ARM GAS  /tmp/ccag9PFX.s 			page 1


   1              		.cpu cortex-m4
   2              		.eabi_attribute 27, 1
   3              		.eabi_attribute 28, 1
   4              		.eabi_attribute 20, 1
   5              		.eabi_attribute 21, 1
   6              		.eabi_attribute 23, 3
   7              		.eabi_attribute 24, 1
   8              		.eabi_attribute 25, 1
   9              		.eabi_attribute 26, 1
  10              		.eabi_attribute 30, 1
  11              		.eabi_attribute 34, 1
  12              		.eabi_attribute 18, 4
  13              		.file	"stm32f4xx_ll_usb.c"
  14              		.text
  15              	.Ltext0:
  16              		.cfi_sections	.debug_frame
  17              		.section	.text.USB_CoreReset,"ax",%progbits
  18              		.align	1
  19              		.syntax unified
  20              		.thumb
  21              		.thumb_func
  22              		.fpu fpv4-sp-d16
  24              	USB_CoreReset:
  25              	.LFB163:
  26              		.file 1 "Drivers/STM32F4xx_HAL_Driver/Src/stm32f4xx_ll_usb.c"
   1:Drivers/STM32F4xx_HAL_Driver/Src/stm32f4xx_ll_usb.c **** /**
   2:Drivers/STM32F4xx_HAL_Driver/Src/stm32f4xx_ll_usb.c ****   ******************************************************************************
   3:Drivers/STM32F4xx_HAL_Driver/Src/stm32f4xx_ll_usb.c ****   * @file    stm32f4xx_ll_usb.c
   4:Drivers/STM32F4xx_HAL_Driver/Src/stm32f4xx_ll_usb.c ****   * @author  MCD Application Team
   5:Drivers/STM32F4xx_HAL_Driver/Src/stm32f4xx_ll_usb.c ****   * @brief   USB Low Layer HAL module driver.
   6:Drivers/STM32F4xx_HAL_Driver/Src/stm32f4xx_ll_usb.c ****   *
   7:Drivers/STM32F4xx_HAL_Driver/Src/stm32f4xx_ll_usb.c ****   *          This file provides firmware functions to manage the following
   8:Drivers/STM32F4xx_HAL_Driver/Src/stm32f4xx_ll_usb.c ****   *          functionalities of the USB Peripheral Controller:
   9:Drivers/STM32F4xx_HAL_Driver/Src/stm32f4xx_ll_usb.c ****   *           + Initialization/de-initialization functions
  10:Drivers/STM32F4xx_HAL_Driver/Src/stm32f4xx_ll_usb.c ****   *           + I/O operation functions
  11:Drivers/STM32F4xx_HAL_Driver/Src/stm32f4xx_ll_usb.c ****   *           + Peripheral Control functions
  12:Drivers/STM32F4xx_HAL_Driver/Src/stm32f4xx_ll_usb.c ****   *           + Peripheral State functions
  13:Drivers/STM32F4xx_HAL_Driver/Src/stm32f4xx_ll_usb.c ****   *
  14:Drivers/STM32F4xx_HAL_Driver/Src/stm32f4xx_ll_usb.c ****   @verbatim
  15:Drivers/STM32F4xx_HAL_Driver/Src/stm32f4xx_ll_usb.c ****   ==============================================================================
  16:Drivers/STM32F4xx_HAL_Driver/Src/stm32f4xx_ll_usb.c ****                     ##### How to use this driver #####
  17:Drivers/STM32F4xx_HAL_Driver/Src/stm32f4xx_ll_usb.c ****   ==============================================================================
  18:Drivers/STM32F4xx_HAL_Driver/Src/stm32f4xx_ll_usb.c ****     [..]
  19:Drivers/STM32F4xx_HAL_Driver/Src/stm32f4xx_ll_usb.c ****       (#) Fill parameters of Init structure in USB_OTG_CfgTypeDef structure.
  20:Drivers/STM32F4xx_HAL_Driver/Src/stm32f4xx_ll_usb.c **** 
  21:Drivers/STM32F4xx_HAL_Driver/Src/stm32f4xx_ll_usb.c ****       (#) Call USB_CoreInit() API to initialize the USB Core peripheral.
  22:Drivers/STM32F4xx_HAL_Driver/Src/stm32f4xx_ll_usb.c **** 
  23:Drivers/STM32F4xx_HAL_Driver/Src/stm32f4xx_ll_usb.c ****       (#) The upper HAL HCD/PCD driver will call the right routines for its internal processes.
  24:Drivers/STM32F4xx_HAL_Driver/Src/stm32f4xx_ll_usb.c **** 
  25:Drivers/STM32F4xx_HAL_Driver/Src/stm32f4xx_ll_usb.c ****   @endverbatim
  26:Drivers/STM32F4xx_HAL_Driver/Src/stm32f4xx_ll_usb.c ****   ******************************************************************************
  27:Drivers/STM32F4xx_HAL_Driver/Src/stm32f4xx_ll_usb.c ****   * @attention
  28:Drivers/STM32F4xx_HAL_Driver/Src/stm32f4xx_ll_usb.c ****   *
  29:Drivers/STM32F4xx_HAL_Driver/Src/stm32f4xx_ll_usb.c ****   * <h2><center>&copy; Copyright (c) 2016 STMicroelectronics.
  30:Drivers/STM32F4xx_HAL_Driver/Src/stm32f4xx_ll_usb.c ****   * All rights reserved.</center></h2>
  31:Drivers/STM32F4xx_HAL_Driver/Src/stm32f4xx_ll_usb.c ****   *
  32:Drivers/STM32F4xx_HAL_Driver/Src/stm32f4xx_ll_usb.c ****   * This software component is licensed by ST under BSD 3-Clause license,
ARM GAS  /tmp/ccag9PFX.s 			page 2


  33:Drivers/STM32F4xx_HAL_Driver/Src/stm32f4xx_ll_usb.c ****   * the "License"; You may not use this file except in compliance with the
  34:Drivers/STM32F4xx_HAL_Driver/Src/stm32f4xx_ll_usb.c ****   * License. You may obtain a copy of the License at:
  35:Drivers/STM32F4xx_HAL_Driver/Src/stm32f4xx_ll_usb.c ****   *                        opensource.org/licenses/BSD-3-Clause
  36:Drivers/STM32F4xx_HAL_Driver/Src/stm32f4xx_ll_usb.c ****   *
  37:Drivers/STM32F4xx_HAL_Driver/Src/stm32f4xx_ll_usb.c ****   ******************************************************************************
  38:Drivers/STM32F4xx_HAL_Driver/Src/stm32f4xx_ll_usb.c ****   */
  39:Drivers/STM32F4xx_HAL_Driver/Src/stm32f4xx_ll_usb.c **** 
  40:Drivers/STM32F4xx_HAL_Driver/Src/stm32f4xx_ll_usb.c **** /* Includes ------------------------------------------------------------------*/
  41:Drivers/STM32F4xx_HAL_Driver/Src/stm32f4xx_ll_usb.c **** #include "stm32f4xx_hal.h"
  42:Drivers/STM32F4xx_HAL_Driver/Src/stm32f4xx_ll_usb.c **** 
  43:Drivers/STM32F4xx_HAL_Driver/Src/stm32f4xx_ll_usb.c **** /** @addtogroup STM32F4xx_LL_USB_DRIVER
  44:Drivers/STM32F4xx_HAL_Driver/Src/stm32f4xx_ll_usb.c ****   * @{
  45:Drivers/STM32F4xx_HAL_Driver/Src/stm32f4xx_ll_usb.c ****   */
  46:Drivers/STM32F4xx_HAL_Driver/Src/stm32f4xx_ll_usb.c **** 
  47:Drivers/STM32F4xx_HAL_Driver/Src/stm32f4xx_ll_usb.c **** #if defined (HAL_PCD_MODULE_ENABLED) || defined (HAL_HCD_MODULE_ENABLED)
  48:Drivers/STM32F4xx_HAL_Driver/Src/stm32f4xx_ll_usb.c **** #if defined (USB_OTG_FS) || defined (USB_OTG_HS)
  49:Drivers/STM32F4xx_HAL_Driver/Src/stm32f4xx_ll_usb.c **** /* Private typedef -----------------------------------------------------------*/
  50:Drivers/STM32F4xx_HAL_Driver/Src/stm32f4xx_ll_usb.c **** /* Private define ------------------------------------------------------------*/
  51:Drivers/STM32F4xx_HAL_Driver/Src/stm32f4xx_ll_usb.c **** /* Private macro -------------------------------------------------------------*/
  52:Drivers/STM32F4xx_HAL_Driver/Src/stm32f4xx_ll_usb.c **** /* Private variables ---------------------------------------------------------*/
  53:Drivers/STM32F4xx_HAL_Driver/Src/stm32f4xx_ll_usb.c **** /* Private function prototypes -----------------------------------------------*/
  54:Drivers/STM32F4xx_HAL_Driver/Src/stm32f4xx_ll_usb.c **** /* Private functions ---------------------------------------------------------*/
  55:Drivers/STM32F4xx_HAL_Driver/Src/stm32f4xx_ll_usb.c **** #if defined (USB_OTG_FS) || defined (USB_OTG_HS)
  56:Drivers/STM32F4xx_HAL_Driver/Src/stm32f4xx_ll_usb.c **** static HAL_StatusTypeDef USB_CoreReset(USB_OTG_GlobalTypeDef *USBx);
  57:Drivers/STM32F4xx_HAL_Driver/Src/stm32f4xx_ll_usb.c **** 
  58:Drivers/STM32F4xx_HAL_Driver/Src/stm32f4xx_ll_usb.c **** /* Exported functions --------------------------------------------------------*/
  59:Drivers/STM32F4xx_HAL_Driver/Src/stm32f4xx_ll_usb.c **** /** @defgroup USB_LL_Exported_Functions USB Low Layer Exported Functions
  60:Drivers/STM32F4xx_HAL_Driver/Src/stm32f4xx_ll_usb.c ****   * @{
  61:Drivers/STM32F4xx_HAL_Driver/Src/stm32f4xx_ll_usb.c ****   */
  62:Drivers/STM32F4xx_HAL_Driver/Src/stm32f4xx_ll_usb.c **** 
  63:Drivers/STM32F4xx_HAL_Driver/Src/stm32f4xx_ll_usb.c **** /** @defgroup USB_LL_Exported_Functions_Group1 Initialization/de-initialization functions
  64:Drivers/STM32F4xx_HAL_Driver/Src/stm32f4xx_ll_usb.c ****  *  @brief    Initialization and Configuration functions
  65:Drivers/STM32F4xx_HAL_Driver/Src/stm32f4xx_ll_usb.c ****  *
  66:Drivers/STM32F4xx_HAL_Driver/Src/stm32f4xx_ll_usb.c **** @verbatim
  67:Drivers/STM32F4xx_HAL_Driver/Src/stm32f4xx_ll_usb.c ****  ===============================================================================
  68:Drivers/STM32F4xx_HAL_Driver/Src/stm32f4xx_ll_usb.c ****                       ##### Initialization/de-initialization functions #####
  69:Drivers/STM32F4xx_HAL_Driver/Src/stm32f4xx_ll_usb.c ****  ===============================================================================
  70:Drivers/STM32F4xx_HAL_Driver/Src/stm32f4xx_ll_usb.c **** 
  71:Drivers/STM32F4xx_HAL_Driver/Src/stm32f4xx_ll_usb.c **** @endverbatim
  72:Drivers/STM32F4xx_HAL_Driver/Src/stm32f4xx_ll_usb.c ****   * @{
  73:Drivers/STM32F4xx_HAL_Driver/Src/stm32f4xx_ll_usb.c ****   */
  74:Drivers/STM32F4xx_HAL_Driver/Src/stm32f4xx_ll_usb.c **** 
  75:Drivers/STM32F4xx_HAL_Driver/Src/stm32f4xx_ll_usb.c **** /**
  76:Drivers/STM32F4xx_HAL_Driver/Src/stm32f4xx_ll_usb.c ****   * @brief  Initializes the USB Core
  77:Drivers/STM32F4xx_HAL_Driver/Src/stm32f4xx_ll_usb.c ****   * @param  USBx USB Instance
  78:Drivers/STM32F4xx_HAL_Driver/Src/stm32f4xx_ll_usb.c ****   * @param  cfg pointer to a USB_OTG_CfgTypeDef structure that contains
  79:Drivers/STM32F4xx_HAL_Driver/Src/stm32f4xx_ll_usb.c ****   *         the configuration information for the specified USBx peripheral.
  80:Drivers/STM32F4xx_HAL_Driver/Src/stm32f4xx_ll_usb.c ****   * @retval HAL status
  81:Drivers/STM32F4xx_HAL_Driver/Src/stm32f4xx_ll_usb.c ****   */
  82:Drivers/STM32F4xx_HAL_Driver/Src/stm32f4xx_ll_usb.c **** HAL_StatusTypeDef USB_CoreInit(USB_OTG_GlobalTypeDef *USBx, USB_OTG_CfgTypeDef cfg)
  83:Drivers/STM32F4xx_HAL_Driver/Src/stm32f4xx_ll_usb.c **** {
  84:Drivers/STM32F4xx_HAL_Driver/Src/stm32f4xx_ll_usb.c ****   HAL_StatusTypeDef ret;
  85:Drivers/STM32F4xx_HAL_Driver/Src/stm32f4xx_ll_usb.c **** 
  86:Drivers/STM32F4xx_HAL_Driver/Src/stm32f4xx_ll_usb.c ****   if (cfg.phy_itface == USB_OTG_ULPI_PHY)
  87:Drivers/STM32F4xx_HAL_Driver/Src/stm32f4xx_ll_usb.c ****   {
  88:Drivers/STM32F4xx_HAL_Driver/Src/stm32f4xx_ll_usb.c ****     USBx->GCCFG &= ~(USB_OTG_GCCFG_PWRDWN);
  89:Drivers/STM32F4xx_HAL_Driver/Src/stm32f4xx_ll_usb.c **** 
ARM GAS  /tmp/ccag9PFX.s 			page 3


  90:Drivers/STM32F4xx_HAL_Driver/Src/stm32f4xx_ll_usb.c ****     /* Init The ULPI Interface */
  91:Drivers/STM32F4xx_HAL_Driver/Src/stm32f4xx_ll_usb.c ****     USBx->GUSBCFG &= ~(USB_OTG_GUSBCFG_TSDPS | USB_OTG_GUSBCFG_ULPIFSLS | USB_OTG_GUSBCFG_PHYSEL);
  92:Drivers/STM32F4xx_HAL_Driver/Src/stm32f4xx_ll_usb.c **** 
  93:Drivers/STM32F4xx_HAL_Driver/Src/stm32f4xx_ll_usb.c ****     /* Select vbus source */
  94:Drivers/STM32F4xx_HAL_Driver/Src/stm32f4xx_ll_usb.c ****     USBx->GUSBCFG &= ~(USB_OTG_GUSBCFG_ULPIEVBUSD | USB_OTG_GUSBCFG_ULPIEVBUSI);
  95:Drivers/STM32F4xx_HAL_Driver/Src/stm32f4xx_ll_usb.c ****     if (cfg.use_external_vbus == 1U)
  96:Drivers/STM32F4xx_HAL_Driver/Src/stm32f4xx_ll_usb.c ****     {
  97:Drivers/STM32F4xx_HAL_Driver/Src/stm32f4xx_ll_usb.c ****       USBx->GUSBCFG |= USB_OTG_GUSBCFG_ULPIEVBUSD;
  98:Drivers/STM32F4xx_HAL_Driver/Src/stm32f4xx_ll_usb.c ****     }
  99:Drivers/STM32F4xx_HAL_Driver/Src/stm32f4xx_ll_usb.c ****     /* Reset after a PHY select  */
 100:Drivers/STM32F4xx_HAL_Driver/Src/stm32f4xx_ll_usb.c ****     ret = USB_CoreReset(USBx);
 101:Drivers/STM32F4xx_HAL_Driver/Src/stm32f4xx_ll_usb.c ****   }
 102:Drivers/STM32F4xx_HAL_Driver/Src/stm32f4xx_ll_usb.c ****   else /* FS interface (embedded Phy) */
 103:Drivers/STM32F4xx_HAL_Driver/Src/stm32f4xx_ll_usb.c ****   {
 104:Drivers/STM32F4xx_HAL_Driver/Src/stm32f4xx_ll_usb.c ****     /* Select FS Embedded PHY */
 105:Drivers/STM32F4xx_HAL_Driver/Src/stm32f4xx_ll_usb.c ****     USBx->GUSBCFG |= USB_OTG_GUSBCFG_PHYSEL;
 106:Drivers/STM32F4xx_HAL_Driver/Src/stm32f4xx_ll_usb.c **** 
 107:Drivers/STM32F4xx_HAL_Driver/Src/stm32f4xx_ll_usb.c ****     /* Reset after a PHY select and set Host mode */
 108:Drivers/STM32F4xx_HAL_Driver/Src/stm32f4xx_ll_usb.c ****     ret = USB_CoreReset(USBx);
 109:Drivers/STM32F4xx_HAL_Driver/Src/stm32f4xx_ll_usb.c **** 
 110:Drivers/STM32F4xx_HAL_Driver/Src/stm32f4xx_ll_usb.c ****     if (cfg.battery_charging_enable == 0U)
 111:Drivers/STM32F4xx_HAL_Driver/Src/stm32f4xx_ll_usb.c ****     {
 112:Drivers/STM32F4xx_HAL_Driver/Src/stm32f4xx_ll_usb.c ****       /* Activate the USB Transceiver */
 113:Drivers/STM32F4xx_HAL_Driver/Src/stm32f4xx_ll_usb.c ****       USBx->GCCFG |= USB_OTG_GCCFG_PWRDWN;
 114:Drivers/STM32F4xx_HAL_Driver/Src/stm32f4xx_ll_usb.c ****     }
 115:Drivers/STM32F4xx_HAL_Driver/Src/stm32f4xx_ll_usb.c ****     else
 116:Drivers/STM32F4xx_HAL_Driver/Src/stm32f4xx_ll_usb.c ****     {
 117:Drivers/STM32F4xx_HAL_Driver/Src/stm32f4xx_ll_usb.c ****       /* Deactivate the USB Transceiver */
 118:Drivers/STM32F4xx_HAL_Driver/Src/stm32f4xx_ll_usb.c ****       USBx->GCCFG &= ~(USB_OTG_GCCFG_PWRDWN);
 119:Drivers/STM32F4xx_HAL_Driver/Src/stm32f4xx_ll_usb.c ****     }
 120:Drivers/STM32F4xx_HAL_Driver/Src/stm32f4xx_ll_usb.c ****   }
 121:Drivers/STM32F4xx_HAL_Driver/Src/stm32f4xx_ll_usb.c **** 
 122:Drivers/STM32F4xx_HAL_Driver/Src/stm32f4xx_ll_usb.c ****   if (cfg.dma_enable == 1U)
 123:Drivers/STM32F4xx_HAL_Driver/Src/stm32f4xx_ll_usb.c ****   {
 124:Drivers/STM32F4xx_HAL_Driver/Src/stm32f4xx_ll_usb.c ****     USBx->GAHBCFG |= USB_OTG_GAHBCFG_HBSTLEN_2;
 125:Drivers/STM32F4xx_HAL_Driver/Src/stm32f4xx_ll_usb.c ****     USBx->GAHBCFG |= USB_OTG_GAHBCFG_DMAEN;
 126:Drivers/STM32F4xx_HAL_Driver/Src/stm32f4xx_ll_usb.c ****   }
 127:Drivers/STM32F4xx_HAL_Driver/Src/stm32f4xx_ll_usb.c **** 
 128:Drivers/STM32F4xx_HAL_Driver/Src/stm32f4xx_ll_usb.c ****   return ret;
 129:Drivers/STM32F4xx_HAL_Driver/Src/stm32f4xx_ll_usb.c **** }
 130:Drivers/STM32F4xx_HAL_Driver/Src/stm32f4xx_ll_usb.c **** 
 131:Drivers/STM32F4xx_HAL_Driver/Src/stm32f4xx_ll_usb.c **** 
 132:Drivers/STM32F4xx_HAL_Driver/Src/stm32f4xx_ll_usb.c **** /**
 133:Drivers/STM32F4xx_HAL_Driver/Src/stm32f4xx_ll_usb.c ****   * @brief  Set the USB turnaround time
 134:Drivers/STM32F4xx_HAL_Driver/Src/stm32f4xx_ll_usb.c ****   * @param  USBx USB Instance
 135:Drivers/STM32F4xx_HAL_Driver/Src/stm32f4xx_ll_usb.c ****   * @param  hclk: AHB clock frequency
 136:Drivers/STM32F4xx_HAL_Driver/Src/stm32f4xx_ll_usb.c ****   * @retval USB turnaround time In PHY Clocks number
 137:Drivers/STM32F4xx_HAL_Driver/Src/stm32f4xx_ll_usb.c ****   */
 138:Drivers/STM32F4xx_HAL_Driver/Src/stm32f4xx_ll_usb.c **** HAL_StatusTypeDef USB_SetTurnaroundTime(USB_OTG_GlobalTypeDef *USBx,
 139:Drivers/STM32F4xx_HAL_Driver/Src/stm32f4xx_ll_usb.c ****                                         uint32_t hclk, uint8_t speed)
 140:Drivers/STM32F4xx_HAL_Driver/Src/stm32f4xx_ll_usb.c **** {
 141:Drivers/STM32F4xx_HAL_Driver/Src/stm32f4xx_ll_usb.c ****   uint32_t UsbTrd;
 142:Drivers/STM32F4xx_HAL_Driver/Src/stm32f4xx_ll_usb.c **** 
 143:Drivers/STM32F4xx_HAL_Driver/Src/stm32f4xx_ll_usb.c ****   /* The USBTRD is configured according to the tables below, depending on AHB frequency
 144:Drivers/STM32F4xx_HAL_Driver/Src/stm32f4xx_ll_usb.c ****   used by application. In the low AHB frequency range it is used to stretch enough the USB response
 145:Drivers/STM32F4xx_HAL_Driver/Src/stm32f4xx_ll_usb.c ****   time to IN tokens, the USB turnaround time, so to compensate for the longer AHB read access
 146:Drivers/STM32F4xx_HAL_Driver/Src/stm32f4xx_ll_usb.c ****   latency to the Data FIFO */
ARM GAS  /tmp/ccag9PFX.s 			page 4


 147:Drivers/STM32F4xx_HAL_Driver/Src/stm32f4xx_ll_usb.c ****   if (speed == USBD_FS_SPEED)
 148:Drivers/STM32F4xx_HAL_Driver/Src/stm32f4xx_ll_usb.c ****   {
 149:Drivers/STM32F4xx_HAL_Driver/Src/stm32f4xx_ll_usb.c ****     if ((hclk >= 14200000U) && (hclk < 15000000U))
 150:Drivers/STM32F4xx_HAL_Driver/Src/stm32f4xx_ll_usb.c ****     {
 151:Drivers/STM32F4xx_HAL_Driver/Src/stm32f4xx_ll_usb.c ****       /* hclk Clock Range between 14.2-15 MHz */
 152:Drivers/STM32F4xx_HAL_Driver/Src/stm32f4xx_ll_usb.c ****       UsbTrd = 0xFU;
 153:Drivers/STM32F4xx_HAL_Driver/Src/stm32f4xx_ll_usb.c ****     }
 154:Drivers/STM32F4xx_HAL_Driver/Src/stm32f4xx_ll_usb.c ****     else if ((hclk >= 15000000U) && (hclk < 16000000U))
 155:Drivers/STM32F4xx_HAL_Driver/Src/stm32f4xx_ll_usb.c ****     {
 156:Drivers/STM32F4xx_HAL_Driver/Src/stm32f4xx_ll_usb.c ****       /* hclk Clock Range between 15-16 MHz */
 157:Drivers/STM32F4xx_HAL_Driver/Src/stm32f4xx_ll_usb.c ****       UsbTrd = 0xEU;
 158:Drivers/STM32F4xx_HAL_Driver/Src/stm32f4xx_ll_usb.c ****     }
 159:Drivers/STM32F4xx_HAL_Driver/Src/stm32f4xx_ll_usb.c ****     else if ((hclk >= 16000000U) && (hclk < 17200000U))
 160:Drivers/STM32F4xx_HAL_Driver/Src/stm32f4xx_ll_usb.c ****     {
 161:Drivers/STM32F4xx_HAL_Driver/Src/stm32f4xx_ll_usb.c ****       /* hclk Clock Range between 16-17.2 MHz */
 162:Drivers/STM32F4xx_HAL_Driver/Src/stm32f4xx_ll_usb.c ****       UsbTrd = 0xDU;
 163:Drivers/STM32F4xx_HAL_Driver/Src/stm32f4xx_ll_usb.c ****     }
 164:Drivers/STM32F4xx_HAL_Driver/Src/stm32f4xx_ll_usb.c ****     else if ((hclk >= 17200000U) && (hclk < 18500000U))
 165:Drivers/STM32F4xx_HAL_Driver/Src/stm32f4xx_ll_usb.c ****     {
 166:Drivers/STM32F4xx_HAL_Driver/Src/stm32f4xx_ll_usb.c ****       /* hclk Clock Range between 17.2-18.5 MHz */
 167:Drivers/STM32F4xx_HAL_Driver/Src/stm32f4xx_ll_usb.c ****       UsbTrd = 0xCU;
 168:Drivers/STM32F4xx_HAL_Driver/Src/stm32f4xx_ll_usb.c ****     }
 169:Drivers/STM32F4xx_HAL_Driver/Src/stm32f4xx_ll_usb.c ****     else if ((hclk >= 18500000U) && (hclk < 20000000U))
 170:Drivers/STM32F4xx_HAL_Driver/Src/stm32f4xx_ll_usb.c ****     {
 171:Drivers/STM32F4xx_HAL_Driver/Src/stm32f4xx_ll_usb.c ****       /* hclk Clock Range between 18.5-20 MHz */
 172:Drivers/STM32F4xx_HAL_Driver/Src/stm32f4xx_ll_usb.c ****       UsbTrd = 0xBU;
 173:Drivers/STM32F4xx_HAL_Driver/Src/stm32f4xx_ll_usb.c ****     }
 174:Drivers/STM32F4xx_HAL_Driver/Src/stm32f4xx_ll_usb.c ****     else if ((hclk >= 20000000U) && (hclk < 21800000U))
 175:Drivers/STM32F4xx_HAL_Driver/Src/stm32f4xx_ll_usb.c ****     {
 176:Drivers/STM32F4xx_HAL_Driver/Src/stm32f4xx_ll_usb.c ****       /* hclk Clock Range between 20-21.8 MHz */
 177:Drivers/STM32F4xx_HAL_Driver/Src/stm32f4xx_ll_usb.c ****       UsbTrd = 0xAU;
 178:Drivers/STM32F4xx_HAL_Driver/Src/stm32f4xx_ll_usb.c ****     }
 179:Drivers/STM32F4xx_HAL_Driver/Src/stm32f4xx_ll_usb.c ****     else if ((hclk >= 21800000U) && (hclk < 24000000U))
 180:Drivers/STM32F4xx_HAL_Driver/Src/stm32f4xx_ll_usb.c ****     {
 181:Drivers/STM32F4xx_HAL_Driver/Src/stm32f4xx_ll_usb.c ****       /* hclk Clock Range between 21.8-24 MHz */
 182:Drivers/STM32F4xx_HAL_Driver/Src/stm32f4xx_ll_usb.c ****       UsbTrd = 0x9U;
 183:Drivers/STM32F4xx_HAL_Driver/Src/stm32f4xx_ll_usb.c ****     }
 184:Drivers/STM32F4xx_HAL_Driver/Src/stm32f4xx_ll_usb.c ****     else if ((hclk >= 24000000U) && (hclk < 27700000U))
 185:Drivers/STM32F4xx_HAL_Driver/Src/stm32f4xx_ll_usb.c ****     {
 186:Drivers/STM32F4xx_HAL_Driver/Src/stm32f4xx_ll_usb.c ****       /* hclk Clock Range between 24-27.7 MHz */
 187:Drivers/STM32F4xx_HAL_Driver/Src/stm32f4xx_ll_usb.c ****       UsbTrd = 0x8U;
 188:Drivers/STM32F4xx_HAL_Driver/Src/stm32f4xx_ll_usb.c ****     }
 189:Drivers/STM32F4xx_HAL_Driver/Src/stm32f4xx_ll_usb.c ****     else if ((hclk >= 27700000U) && (hclk < 32000000U))
 190:Drivers/STM32F4xx_HAL_Driver/Src/stm32f4xx_ll_usb.c ****     {
 191:Drivers/STM32F4xx_HAL_Driver/Src/stm32f4xx_ll_usb.c ****       /* hclk Clock Range between 27.7-32 MHz */
 192:Drivers/STM32F4xx_HAL_Driver/Src/stm32f4xx_ll_usb.c ****       UsbTrd = 0x7U;
 193:Drivers/STM32F4xx_HAL_Driver/Src/stm32f4xx_ll_usb.c ****     }
 194:Drivers/STM32F4xx_HAL_Driver/Src/stm32f4xx_ll_usb.c ****     else /* if(hclk >= 32000000) */
 195:Drivers/STM32F4xx_HAL_Driver/Src/stm32f4xx_ll_usb.c ****     {
 196:Drivers/STM32F4xx_HAL_Driver/Src/stm32f4xx_ll_usb.c ****       /* hclk Clock Range between 32-200 MHz */
 197:Drivers/STM32F4xx_HAL_Driver/Src/stm32f4xx_ll_usb.c ****       UsbTrd = 0x6U;
 198:Drivers/STM32F4xx_HAL_Driver/Src/stm32f4xx_ll_usb.c ****     }
 199:Drivers/STM32F4xx_HAL_Driver/Src/stm32f4xx_ll_usb.c ****   }
 200:Drivers/STM32F4xx_HAL_Driver/Src/stm32f4xx_ll_usb.c ****   else if (speed == USBD_HS_SPEED)
 201:Drivers/STM32F4xx_HAL_Driver/Src/stm32f4xx_ll_usb.c ****   {
 202:Drivers/STM32F4xx_HAL_Driver/Src/stm32f4xx_ll_usb.c ****     UsbTrd = USBD_HS_TRDT_VALUE;
 203:Drivers/STM32F4xx_HAL_Driver/Src/stm32f4xx_ll_usb.c ****   }
ARM GAS  /tmp/ccag9PFX.s 			page 5


 204:Drivers/STM32F4xx_HAL_Driver/Src/stm32f4xx_ll_usb.c ****   else
 205:Drivers/STM32F4xx_HAL_Driver/Src/stm32f4xx_ll_usb.c ****   {
 206:Drivers/STM32F4xx_HAL_Driver/Src/stm32f4xx_ll_usb.c ****     UsbTrd = USBD_DEFAULT_TRDT_VALUE;
 207:Drivers/STM32F4xx_HAL_Driver/Src/stm32f4xx_ll_usb.c ****   }
 208:Drivers/STM32F4xx_HAL_Driver/Src/stm32f4xx_ll_usb.c **** 
 209:Drivers/STM32F4xx_HAL_Driver/Src/stm32f4xx_ll_usb.c ****   USBx->GUSBCFG &= ~USB_OTG_GUSBCFG_TRDT;
 210:Drivers/STM32F4xx_HAL_Driver/Src/stm32f4xx_ll_usb.c ****   USBx->GUSBCFG |= (uint32_t)((UsbTrd << 10) & USB_OTG_GUSBCFG_TRDT);
 211:Drivers/STM32F4xx_HAL_Driver/Src/stm32f4xx_ll_usb.c **** 
 212:Drivers/STM32F4xx_HAL_Driver/Src/stm32f4xx_ll_usb.c ****   return HAL_OK;
 213:Drivers/STM32F4xx_HAL_Driver/Src/stm32f4xx_ll_usb.c **** }
 214:Drivers/STM32F4xx_HAL_Driver/Src/stm32f4xx_ll_usb.c **** 
 215:Drivers/STM32F4xx_HAL_Driver/Src/stm32f4xx_ll_usb.c **** /**
 216:Drivers/STM32F4xx_HAL_Driver/Src/stm32f4xx_ll_usb.c ****   * @brief  USB_EnableGlobalInt
 217:Drivers/STM32F4xx_HAL_Driver/Src/stm32f4xx_ll_usb.c ****   *         Enables the controller's Global Int in the AHB Config reg
 218:Drivers/STM32F4xx_HAL_Driver/Src/stm32f4xx_ll_usb.c ****   * @param  USBx  Selected device
 219:Drivers/STM32F4xx_HAL_Driver/Src/stm32f4xx_ll_usb.c ****   * @retval HAL status
 220:Drivers/STM32F4xx_HAL_Driver/Src/stm32f4xx_ll_usb.c ****   */
 221:Drivers/STM32F4xx_HAL_Driver/Src/stm32f4xx_ll_usb.c **** HAL_StatusTypeDef USB_EnableGlobalInt(USB_OTG_GlobalTypeDef *USBx)
 222:Drivers/STM32F4xx_HAL_Driver/Src/stm32f4xx_ll_usb.c **** {
 223:Drivers/STM32F4xx_HAL_Driver/Src/stm32f4xx_ll_usb.c ****   USBx->GAHBCFG |= USB_OTG_GAHBCFG_GINT;
 224:Drivers/STM32F4xx_HAL_Driver/Src/stm32f4xx_ll_usb.c ****   return HAL_OK;
 225:Drivers/STM32F4xx_HAL_Driver/Src/stm32f4xx_ll_usb.c **** }
 226:Drivers/STM32F4xx_HAL_Driver/Src/stm32f4xx_ll_usb.c **** 
 227:Drivers/STM32F4xx_HAL_Driver/Src/stm32f4xx_ll_usb.c **** /**
 228:Drivers/STM32F4xx_HAL_Driver/Src/stm32f4xx_ll_usb.c ****   * @brief  USB_DisableGlobalInt
 229:Drivers/STM32F4xx_HAL_Driver/Src/stm32f4xx_ll_usb.c ****   *         Disable the controller's Global Int in the AHB Config reg
 230:Drivers/STM32F4xx_HAL_Driver/Src/stm32f4xx_ll_usb.c ****   * @param  USBx  Selected device
 231:Drivers/STM32F4xx_HAL_Driver/Src/stm32f4xx_ll_usb.c ****   * @retval HAL status
 232:Drivers/STM32F4xx_HAL_Driver/Src/stm32f4xx_ll_usb.c **** */
 233:Drivers/STM32F4xx_HAL_Driver/Src/stm32f4xx_ll_usb.c **** HAL_StatusTypeDef USB_DisableGlobalInt(USB_OTG_GlobalTypeDef *USBx)
 234:Drivers/STM32F4xx_HAL_Driver/Src/stm32f4xx_ll_usb.c **** {
 235:Drivers/STM32F4xx_HAL_Driver/Src/stm32f4xx_ll_usb.c ****   USBx->GAHBCFG &= ~USB_OTG_GAHBCFG_GINT;
 236:Drivers/STM32F4xx_HAL_Driver/Src/stm32f4xx_ll_usb.c ****   return HAL_OK;
 237:Drivers/STM32F4xx_HAL_Driver/Src/stm32f4xx_ll_usb.c **** }
 238:Drivers/STM32F4xx_HAL_Driver/Src/stm32f4xx_ll_usb.c **** 
 239:Drivers/STM32F4xx_HAL_Driver/Src/stm32f4xx_ll_usb.c **** /**
 240:Drivers/STM32F4xx_HAL_Driver/Src/stm32f4xx_ll_usb.c ****   * @brief  USB_SetCurrentMode : Set functional mode
 241:Drivers/STM32F4xx_HAL_Driver/Src/stm32f4xx_ll_usb.c ****   * @param  USBx  Selected device
 242:Drivers/STM32F4xx_HAL_Driver/Src/stm32f4xx_ll_usb.c ****   * @param  mode   current core mode
 243:Drivers/STM32F4xx_HAL_Driver/Src/stm32f4xx_ll_usb.c ****   *          This parameter can be one of these values:
 244:Drivers/STM32F4xx_HAL_Driver/Src/stm32f4xx_ll_usb.c ****   *            @arg USB_DEVICE_MODE: Peripheral mode
 245:Drivers/STM32F4xx_HAL_Driver/Src/stm32f4xx_ll_usb.c ****   *            @arg USB_HOST_MODE: Host mode
 246:Drivers/STM32F4xx_HAL_Driver/Src/stm32f4xx_ll_usb.c ****   *            @arg USB_DRD_MODE: Dual Role Device mode
 247:Drivers/STM32F4xx_HAL_Driver/Src/stm32f4xx_ll_usb.c ****   * @retval HAL status
 248:Drivers/STM32F4xx_HAL_Driver/Src/stm32f4xx_ll_usb.c ****   */
 249:Drivers/STM32F4xx_HAL_Driver/Src/stm32f4xx_ll_usb.c **** HAL_StatusTypeDef USB_SetCurrentMode(USB_OTG_GlobalTypeDef *USBx, USB_OTG_ModeTypeDef mode)
 250:Drivers/STM32F4xx_HAL_Driver/Src/stm32f4xx_ll_usb.c **** {
 251:Drivers/STM32F4xx_HAL_Driver/Src/stm32f4xx_ll_usb.c ****   USBx->GUSBCFG &= ~(USB_OTG_GUSBCFG_FHMOD | USB_OTG_GUSBCFG_FDMOD);
 252:Drivers/STM32F4xx_HAL_Driver/Src/stm32f4xx_ll_usb.c **** 
 253:Drivers/STM32F4xx_HAL_Driver/Src/stm32f4xx_ll_usb.c ****   if (mode == USB_HOST_MODE)
 254:Drivers/STM32F4xx_HAL_Driver/Src/stm32f4xx_ll_usb.c ****   {
 255:Drivers/STM32F4xx_HAL_Driver/Src/stm32f4xx_ll_usb.c ****     USBx->GUSBCFG |= USB_OTG_GUSBCFG_FHMOD;
 256:Drivers/STM32F4xx_HAL_Driver/Src/stm32f4xx_ll_usb.c ****   }
 257:Drivers/STM32F4xx_HAL_Driver/Src/stm32f4xx_ll_usb.c ****   else if (mode == USB_DEVICE_MODE)
 258:Drivers/STM32F4xx_HAL_Driver/Src/stm32f4xx_ll_usb.c ****   {
 259:Drivers/STM32F4xx_HAL_Driver/Src/stm32f4xx_ll_usb.c ****     USBx->GUSBCFG |= USB_OTG_GUSBCFG_FDMOD;
 260:Drivers/STM32F4xx_HAL_Driver/Src/stm32f4xx_ll_usb.c ****   }
ARM GAS  /tmp/ccag9PFX.s 			page 6


 261:Drivers/STM32F4xx_HAL_Driver/Src/stm32f4xx_ll_usb.c ****   else
 262:Drivers/STM32F4xx_HAL_Driver/Src/stm32f4xx_ll_usb.c ****   {
 263:Drivers/STM32F4xx_HAL_Driver/Src/stm32f4xx_ll_usb.c ****     return HAL_ERROR;
 264:Drivers/STM32F4xx_HAL_Driver/Src/stm32f4xx_ll_usb.c ****   }
 265:Drivers/STM32F4xx_HAL_Driver/Src/stm32f4xx_ll_usb.c ****   HAL_Delay(50U);
 266:Drivers/STM32F4xx_HAL_Driver/Src/stm32f4xx_ll_usb.c **** 
 267:Drivers/STM32F4xx_HAL_Driver/Src/stm32f4xx_ll_usb.c ****   return HAL_OK;
 268:Drivers/STM32F4xx_HAL_Driver/Src/stm32f4xx_ll_usb.c **** }
 269:Drivers/STM32F4xx_HAL_Driver/Src/stm32f4xx_ll_usb.c **** 
 270:Drivers/STM32F4xx_HAL_Driver/Src/stm32f4xx_ll_usb.c **** /**
 271:Drivers/STM32F4xx_HAL_Driver/Src/stm32f4xx_ll_usb.c ****   * @brief  USB_DevInit : Initializes the USB_OTG controller registers
 272:Drivers/STM32F4xx_HAL_Driver/Src/stm32f4xx_ll_usb.c ****   *         for device mode
 273:Drivers/STM32F4xx_HAL_Driver/Src/stm32f4xx_ll_usb.c ****   * @param  USBx  Selected device
 274:Drivers/STM32F4xx_HAL_Driver/Src/stm32f4xx_ll_usb.c ****   * @param  cfg   pointer to a USB_OTG_CfgTypeDef structure that contains
 275:Drivers/STM32F4xx_HAL_Driver/Src/stm32f4xx_ll_usb.c ****   *         the configuration information for the specified USBx peripheral.
 276:Drivers/STM32F4xx_HAL_Driver/Src/stm32f4xx_ll_usb.c ****   * @retval HAL status
 277:Drivers/STM32F4xx_HAL_Driver/Src/stm32f4xx_ll_usb.c ****   */
 278:Drivers/STM32F4xx_HAL_Driver/Src/stm32f4xx_ll_usb.c **** HAL_StatusTypeDef USB_DevInit(USB_OTG_GlobalTypeDef *USBx, USB_OTG_CfgTypeDef cfg)
 279:Drivers/STM32F4xx_HAL_Driver/Src/stm32f4xx_ll_usb.c **** {
 280:Drivers/STM32F4xx_HAL_Driver/Src/stm32f4xx_ll_usb.c ****   HAL_StatusTypeDef ret = HAL_OK;
 281:Drivers/STM32F4xx_HAL_Driver/Src/stm32f4xx_ll_usb.c ****   uint32_t USBx_BASE = (uint32_t)USBx;
 282:Drivers/STM32F4xx_HAL_Driver/Src/stm32f4xx_ll_usb.c ****   uint32_t i;
 283:Drivers/STM32F4xx_HAL_Driver/Src/stm32f4xx_ll_usb.c **** 
 284:Drivers/STM32F4xx_HAL_Driver/Src/stm32f4xx_ll_usb.c ****   for (i = 0U; i < 15U; i++)
 285:Drivers/STM32F4xx_HAL_Driver/Src/stm32f4xx_ll_usb.c ****   {
 286:Drivers/STM32F4xx_HAL_Driver/Src/stm32f4xx_ll_usb.c ****     USBx->DIEPTXF[i] = 0U;
 287:Drivers/STM32F4xx_HAL_Driver/Src/stm32f4xx_ll_usb.c ****   }
 288:Drivers/STM32F4xx_HAL_Driver/Src/stm32f4xx_ll_usb.c **** 
 289:Drivers/STM32F4xx_HAL_Driver/Src/stm32f4xx_ll_usb.c **** #if defined(STM32F446xx) || defined(STM32F469xx) || defined(STM32F479xx) || defined(STM32F412Zx) ||
 290:Drivers/STM32F4xx_HAL_Driver/Src/stm32f4xx_ll_usb.c ****   /* VBUS Sensing setup */
 291:Drivers/STM32F4xx_HAL_Driver/Src/stm32f4xx_ll_usb.c ****   if (cfg.vbus_sensing_enable == 0U)
 292:Drivers/STM32F4xx_HAL_Driver/Src/stm32f4xx_ll_usb.c ****   {
 293:Drivers/STM32F4xx_HAL_Driver/Src/stm32f4xx_ll_usb.c ****     /* Deactivate VBUS Sensing B */
 294:Drivers/STM32F4xx_HAL_Driver/Src/stm32f4xx_ll_usb.c ****     USBx->GCCFG &= ~USB_OTG_GCCFG_VBDEN;
 295:Drivers/STM32F4xx_HAL_Driver/Src/stm32f4xx_ll_usb.c **** 
 296:Drivers/STM32F4xx_HAL_Driver/Src/stm32f4xx_ll_usb.c ****     /* B-peripheral session valid override enable */
 297:Drivers/STM32F4xx_HAL_Driver/Src/stm32f4xx_ll_usb.c ****     USBx->GOTGCTL |= USB_OTG_GOTGCTL_BVALOEN;
 298:Drivers/STM32F4xx_HAL_Driver/Src/stm32f4xx_ll_usb.c ****     USBx->GOTGCTL |= USB_OTG_GOTGCTL_BVALOVAL;
 299:Drivers/STM32F4xx_HAL_Driver/Src/stm32f4xx_ll_usb.c ****   }
 300:Drivers/STM32F4xx_HAL_Driver/Src/stm32f4xx_ll_usb.c ****   else
 301:Drivers/STM32F4xx_HAL_Driver/Src/stm32f4xx_ll_usb.c ****   {
 302:Drivers/STM32F4xx_HAL_Driver/Src/stm32f4xx_ll_usb.c ****     /* Enable HW VBUS sensing */
 303:Drivers/STM32F4xx_HAL_Driver/Src/stm32f4xx_ll_usb.c ****     USBx->GCCFG |= USB_OTG_GCCFG_VBDEN;
 304:Drivers/STM32F4xx_HAL_Driver/Src/stm32f4xx_ll_usb.c ****   }
 305:Drivers/STM32F4xx_HAL_Driver/Src/stm32f4xx_ll_usb.c **** #else
 306:Drivers/STM32F4xx_HAL_Driver/Src/stm32f4xx_ll_usb.c ****   /* VBUS Sensing setup */
 307:Drivers/STM32F4xx_HAL_Driver/Src/stm32f4xx_ll_usb.c ****   if (cfg.vbus_sensing_enable == 0U)
 308:Drivers/STM32F4xx_HAL_Driver/Src/stm32f4xx_ll_usb.c ****   {
 309:Drivers/STM32F4xx_HAL_Driver/Src/stm32f4xx_ll_usb.c ****     /*
 310:Drivers/STM32F4xx_HAL_Driver/Src/stm32f4xx_ll_usb.c ****      * Disable HW VBUS sensing. VBUS is internally considered to be always
 311:Drivers/STM32F4xx_HAL_Driver/Src/stm32f4xx_ll_usb.c ****      * at VBUS-Valid level (5V).
 312:Drivers/STM32F4xx_HAL_Driver/Src/stm32f4xx_ll_usb.c ****      */
 313:Drivers/STM32F4xx_HAL_Driver/Src/stm32f4xx_ll_usb.c ****     USBx->GCCFG |= USB_OTG_GCCFG_NOVBUSSENS;
 314:Drivers/STM32F4xx_HAL_Driver/Src/stm32f4xx_ll_usb.c ****     USBx->GCCFG &= ~USB_OTG_GCCFG_VBUSBSEN;
 315:Drivers/STM32F4xx_HAL_Driver/Src/stm32f4xx_ll_usb.c ****     USBx->GCCFG &= ~USB_OTG_GCCFG_VBUSASEN;
 316:Drivers/STM32F4xx_HAL_Driver/Src/stm32f4xx_ll_usb.c ****   }
 317:Drivers/STM32F4xx_HAL_Driver/Src/stm32f4xx_ll_usb.c ****   else
ARM GAS  /tmp/ccag9PFX.s 			page 7


 318:Drivers/STM32F4xx_HAL_Driver/Src/stm32f4xx_ll_usb.c ****   {
 319:Drivers/STM32F4xx_HAL_Driver/Src/stm32f4xx_ll_usb.c ****     /* Enable HW VBUS sensing */
 320:Drivers/STM32F4xx_HAL_Driver/Src/stm32f4xx_ll_usb.c ****     USBx->GOTGCTL &= ~USB_OTG_GCCFG_NOVBUSSENS;
 321:Drivers/STM32F4xx_HAL_Driver/Src/stm32f4xx_ll_usb.c ****     USBx->GCCFG |= USB_OTG_GCCFG_VBUSBSEN;
 322:Drivers/STM32F4xx_HAL_Driver/Src/stm32f4xx_ll_usb.c ****   }
 323:Drivers/STM32F4xx_HAL_Driver/Src/stm32f4xx_ll_usb.c **** #endif /* defined(STM32F446xx) || defined(STM32F469xx) || defined(STM32F479xx) || defined(STM32F412
 324:Drivers/STM32F4xx_HAL_Driver/Src/stm32f4xx_ll_usb.c **** 
 325:Drivers/STM32F4xx_HAL_Driver/Src/stm32f4xx_ll_usb.c ****   /* Restart the Phy Clock */
 326:Drivers/STM32F4xx_HAL_Driver/Src/stm32f4xx_ll_usb.c ****   USBx_PCGCCTL = 0U;
 327:Drivers/STM32F4xx_HAL_Driver/Src/stm32f4xx_ll_usb.c **** 
 328:Drivers/STM32F4xx_HAL_Driver/Src/stm32f4xx_ll_usb.c ****   /* Device mode configuration */
 329:Drivers/STM32F4xx_HAL_Driver/Src/stm32f4xx_ll_usb.c ****   USBx_DEVICE->DCFG |= DCFG_FRAME_INTERVAL_80;
 330:Drivers/STM32F4xx_HAL_Driver/Src/stm32f4xx_ll_usb.c **** 
 331:Drivers/STM32F4xx_HAL_Driver/Src/stm32f4xx_ll_usb.c ****   if (cfg.phy_itface == USB_OTG_ULPI_PHY)
 332:Drivers/STM32F4xx_HAL_Driver/Src/stm32f4xx_ll_usb.c ****   {
 333:Drivers/STM32F4xx_HAL_Driver/Src/stm32f4xx_ll_usb.c ****     if (cfg.speed == USBD_HS_SPEED)
 334:Drivers/STM32F4xx_HAL_Driver/Src/stm32f4xx_ll_usb.c ****     {
 335:Drivers/STM32F4xx_HAL_Driver/Src/stm32f4xx_ll_usb.c ****       /* Set Core speed to High speed mode */
 336:Drivers/STM32F4xx_HAL_Driver/Src/stm32f4xx_ll_usb.c ****       (void)USB_SetDevSpeed(USBx, USB_OTG_SPEED_HIGH);
 337:Drivers/STM32F4xx_HAL_Driver/Src/stm32f4xx_ll_usb.c ****     }
 338:Drivers/STM32F4xx_HAL_Driver/Src/stm32f4xx_ll_usb.c ****     else
 339:Drivers/STM32F4xx_HAL_Driver/Src/stm32f4xx_ll_usb.c ****     {
 340:Drivers/STM32F4xx_HAL_Driver/Src/stm32f4xx_ll_usb.c ****       /* Set Core speed to Full speed mode */
 341:Drivers/STM32F4xx_HAL_Driver/Src/stm32f4xx_ll_usb.c ****       (void)USB_SetDevSpeed(USBx, USB_OTG_SPEED_HIGH_IN_FULL);
 342:Drivers/STM32F4xx_HAL_Driver/Src/stm32f4xx_ll_usb.c ****     }
 343:Drivers/STM32F4xx_HAL_Driver/Src/stm32f4xx_ll_usb.c ****   }
 344:Drivers/STM32F4xx_HAL_Driver/Src/stm32f4xx_ll_usb.c ****   else
 345:Drivers/STM32F4xx_HAL_Driver/Src/stm32f4xx_ll_usb.c ****   {
 346:Drivers/STM32F4xx_HAL_Driver/Src/stm32f4xx_ll_usb.c ****     /* Set Core speed to Full speed mode */
 347:Drivers/STM32F4xx_HAL_Driver/Src/stm32f4xx_ll_usb.c ****     (void)USB_SetDevSpeed(USBx, USB_OTG_SPEED_FULL);
 348:Drivers/STM32F4xx_HAL_Driver/Src/stm32f4xx_ll_usb.c ****   }
 349:Drivers/STM32F4xx_HAL_Driver/Src/stm32f4xx_ll_usb.c **** 
 350:Drivers/STM32F4xx_HAL_Driver/Src/stm32f4xx_ll_usb.c ****   /* Flush the FIFOs */
 351:Drivers/STM32F4xx_HAL_Driver/Src/stm32f4xx_ll_usb.c ****   if (USB_FlushTxFifo(USBx, 0x10U) != HAL_OK) /* all Tx FIFOs */
 352:Drivers/STM32F4xx_HAL_Driver/Src/stm32f4xx_ll_usb.c ****   {
 353:Drivers/STM32F4xx_HAL_Driver/Src/stm32f4xx_ll_usb.c ****     ret = HAL_ERROR;
 354:Drivers/STM32F4xx_HAL_Driver/Src/stm32f4xx_ll_usb.c ****   }
 355:Drivers/STM32F4xx_HAL_Driver/Src/stm32f4xx_ll_usb.c **** 
 356:Drivers/STM32F4xx_HAL_Driver/Src/stm32f4xx_ll_usb.c ****   if (USB_FlushRxFifo(USBx) != HAL_OK)
 357:Drivers/STM32F4xx_HAL_Driver/Src/stm32f4xx_ll_usb.c ****   {
 358:Drivers/STM32F4xx_HAL_Driver/Src/stm32f4xx_ll_usb.c ****     ret = HAL_ERROR;
 359:Drivers/STM32F4xx_HAL_Driver/Src/stm32f4xx_ll_usb.c ****   }
 360:Drivers/STM32F4xx_HAL_Driver/Src/stm32f4xx_ll_usb.c **** 
 361:Drivers/STM32F4xx_HAL_Driver/Src/stm32f4xx_ll_usb.c ****   /* Clear all pending Device Interrupts */
 362:Drivers/STM32F4xx_HAL_Driver/Src/stm32f4xx_ll_usb.c ****   USBx_DEVICE->DIEPMSK = 0U;
 363:Drivers/STM32F4xx_HAL_Driver/Src/stm32f4xx_ll_usb.c ****   USBx_DEVICE->DOEPMSK = 0U;
 364:Drivers/STM32F4xx_HAL_Driver/Src/stm32f4xx_ll_usb.c ****   USBx_DEVICE->DAINTMSK = 0U;
 365:Drivers/STM32F4xx_HAL_Driver/Src/stm32f4xx_ll_usb.c **** 
 366:Drivers/STM32F4xx_HAL_Driver/Src/stm32f4xx_ll_usb.c ****   for (i = 0U; i < cfg.dev_endpoints; i++)
 367:Drivers/STM32F4xx_HAL_Driver/Src/stm32f4xx_ll_usb.c ****   {
 368:Drivers/STM32F4xx_HAL_Driver/Src/stm32f4xx_ll_usb.c ****     if ((USBx_INEP(i)->DIEPCTL & USB_OTG_DIEPCTL_EPENA) == USB_OTG_DIEPCTL_EPENA)
 369:Drivers/STM32F4xx_HAL_Driver/Src/stm32f4xx_ll_usb.c ****     {
 370:Drivers/STM32F4xx_HAL_Driver/Src/stm32f4xx_ll_usb.c ****       if (i == 0U)
 371:Drivers/STM32F4xx_HAL_Driver/Src/stm32f4xx_ll_usb.c ****       {
 372:Drivers/STM32F4xx_HAL_Driver/Src/stm32f4xx_ll_usb.c ****         USBx_INEP(i)->DIEPCTL = USB_OTG_DIEPCTL_SNAK;
 373:Drivers/STM32F4xx_HAL_Driver/Src/stm32f4xx_ll_usb.c ****       }
 374:Drivers/STM32F4xx_HAL_Driver/Src/stm32f4xx_ll_usb.c ****       else
ARM GAS  /tmp/ccag9PFX.s 			page 8


 375:Drivers/STM32F4xx_HAL_Driver/Src/stm32f4xx_ll_usb.c ****       {
 376:Drivers/STM32F4xx_HAL_Driver/Src/stm32f4xx_ll_usb.c ****         USBx_INEP(i)->DIEPCTL = USB_OTG_DIEPCTL_EPDIS | USB_OTG_DIEPCTL_SNAK;
 377:Drivers/STM32F4xx_HAL_Driver/Src/stm32f4xx_ll_usb.c ****       }
 378:Drivers/STM32F4xx_HAL_Driver/Src/stm32f4xx_ll_usb.c ****     }
 379:Drivers/STM32F4xx_HAL_Driver/Src/stm32f4xx_ll_usb.c ****     else
 380:Drivers/STM32F4xx_HAL_Driver/Src/stm32f4xx_ll_usb.c ****     {
 381:Drivers/STM32F4xx_HAL_Driver/Src/stm32f4xx_ll_usb.c ****       USBx_INEP(i)->DIEPCTL = 0U;
 382:Drivers/STM32F4xx_HAL_Driver/Src/stm32f4xx_ll_usb.c ****     }
 383:Drivers/STM32F4xx_HAL_Driver/Src/stm32f4xx_ll_usb.c **** 
 384:Drivers/STM32F4xx_HAL_Driver/Src/stm32f4xx_ll_usb.c ****     USBx_INEP(i)->DIEPTSIZ = 0U;
 385:Drivers/STM32F4xx_HAL_Driver/Src/stm32f4xx_ll_usb.c ****     USBx_INEP(i)->DIEPINT  = 0xFB7FU;
 386:Drivers/STM32F4xx_HAL_Driver/Src/stm32f4xx_ll_usb.c ****   }
 387:Drivers/STM32F4xx_HAL_Driver/Src/stm32f4xx_ll_usb.c **** 
 388:Drivers/STM32F4xx_HAL_Driver/Src/stm32f4xx_ll_usb.c ****   for (i = 0U; i < cfg.dev_endpoints; i++)
 389:Drivers/STM32F4xx_HAL_Driver/Src/stm32f4xx_ll_usb.c ****   {
 390:Drivers/STM32F4xx_HAL_Driver/Src/stm32f4xx_ll_usb.c ****     if ((USBx_OUTEP(i)->DOEPCTL & USB_OTG_DOEPCTL_EPENA) == USB_OTG_DOEPCTL_EPENA)
 391:Drivers/STM32F4xx_HAL_Driver/Src/stm32f4xx_ll_usb.c ****     {
 392:Drivers/STM32F4xx_HAL_Driver/Src/stm32f4xx_ll_usb.c ****       if (i == 0U)
 393:Drivers/STM32F4xx_HAL_Driver/Src/stm32f4xx_ll_usb.c ****       {
 394:Drivers/STM32F4xx_HAL_Driver/Src/stm32f4xx_ll_usb.c ****         USBx_OUTEP(i)->DOEPCTL = USB_OTG_DOEPCTL_SNAK;
 395:Drivers/STM32F4xx_HAL_Driver/Src/stm32f4xx_ll_usb.c ****       }
 396:Drivers/STM32F4xx_HAL_Driver/Src/stm32f4xx_ll_usb.c ****       else
 397:Drivers/STM32F4xx_HAL_Driver/Src/stm32f4xx_ll_usb.c ****       {
 398:Drivers/STM32F4xx_HAL_Driver/Src/stm32f4xx_ll_usb.c ****         USBx_OUTEP(i)->DOEPCTL = USB_OTG_DOEPCTL_EPDIS | USB_OTG_DOEPCTL_SNAK;
 399:Drivers/STM32F4xx_HAL_Driver/Src/stm32f4xx_ll_usb.c ****       }
 400:Drivers/STM32F4xx_HAL_Driver/Src/stm32f4xx_ll_usb.c ****     }
 401:Drivers/STM32F4xx_HAL_Driver/Src/stm32f4xx_ll_usb.c ****     else
 402:Drivers/STM32F4xx_HAL_Driver/Src/stm32f4xx_ll_usb.c ****     {
 403:Drivers/STM32F4xx_HAL_Driver/Src/stm32f4xx_ll_usb.c ****       USBx_OUTEP(i)->DOEPCTL = 0U;
 404:Drivers/STM32F4xx_HAL_Driver/Src/stm32f4xx_ll_usb.c ****     }
 405:Drivers/STM32F4xx_HAL_Driver/Src/stm32f4xx_ll_usb.c **** 
 406:Drivers/STM32F4xx_HAL_Driver/Src/stm32f4xx_ll_usb.c ****     USBx_OUTEP(i)->DOEPTSIZ = 0U;
 407:Drivers/STM32F4xx_HAL_Driver/Src/stm32f4xx_ll_usb.c ****     USBx_OUTEP(i)->DOEPINT  = 0xFB7FU;
 408:Drivers/STM32F4xx_HAL_Driver/Src/stm32f4xx_ll_usb.c ****   }
 409:Drivers/STM32F4xx_HAL_Driver/Src/stm32f4xx_ll_usb.c **** 
 410:Drivers/STM32F4xx_HAL_Driver/Src/stm32f4xx_ll_usb.c ****   USBx_DEVICE->DIEPMSK &= ~(USB_OTG_DIEPMSK_TXFURM);
 411:Drivers/STM32F4xx_HAL_Driver/Src/stm32f4xx_ll_usb.c **** 
 412:Drivers/STM32F4xx_HAL_Driver/Src/stm32f4xx_ll_usb.c ****   if (cfg.dma_enable == 1U)
 413:Drivers/STM32F4xx_HAL_Driver/Src/stm32f4xx_ll_usb.c ****   {
 414:Drivers/STM32F4xx_HAL_Driver/Src/stm32f4xx_ll_usb.c ****     /*Set threshold parameters */
 415:Drivers/STM32F4xx_HAL_Driver/Src/stm32f4xx_ll_usb.c ****     USBx_DEVICE->DTHRCTL = USB_OTG_DTHRCTL_TXTHRLEN_6 |
 416:Drivers/STM32F4xx_HAL_Driver/Src/stm32f4xx_ll_usb.c ****                            USB_OTG_DTHRCTL_RXTHRLEN_6;
 417:Drivers/STM32F4xx_HAL_Driver/Src/stm32f4xx_ll_usb.c **** 
 418:Drivers/STM32F4xx_HAL_Driver/Src/stm32f4xx_ll_usb.c ****     USBx_DEVICE->DTHRCTL |= USB_OTG_DTHRCTL_RXTHREN |
 419:Drivers/STM32F4xx_HAL_Driver/Src/stm32f4xx_ll_usb.c ****                             USB_OTG_DTHRCTL_ISOTHREN |
 420:Drivers/STM32F4xx_HAL_Driver/Src/stm32f4xx_ll_usb.c ****                             USB_OTG_DTHRCTL_NONISOTHREN;
 421:Drivers/STM32F4xx_HAL_Driver/Src/stm32f4xx_ll_usb.c ****   }
 422:Drivers/STM32F4xx_HAL_Driver/Src/stm32f4xx_ll_usb.c **** 
 423:Drivers/STM32F4xx_HAL_Driver/Src/stm32f4xx_ll_usb.c ****   /* Disable all interrupts. */
 424:Drivers/STM32F4xx_HAL_Driver/Src/stm32f4xx_ll_usb.c ****   USBx->GINTMSK = 0U;
 425:Drivers/STM32F4xx_HAL_Driver/Src/stm32f4xx_ll_usb.c **** 
 426:Drivers/STM32F4xx_HAL_Driver/Src/stm32f4xx_ll_usb.c ****   /* Clear any pending interrupts */
 427:Drivers/STM32F4xx_HAL_Driver/Src/stm32f4xx_ll_usb.c ****   USBx->GINTSTS = 0xBFFFFFFFU;
 428:Drivers/STM32F4xx_HAL_Driver/Src/stm32f4xx_ll_usb.c **** 
 429:Drivers/STM32F4xx_HAL_Driver/Src/stm32f4xx_ll_usb.c ****   /* Enable the common interrupts */
 430:Drivers/STM32F4xx_HAL_Driver/Src/stm32f4xx_ll_usb.c ****   if (cfg.dma_enable == 0U)
 431:Drivers/STM32F4xx_HAL_Driver/Src/stm32f4xx_ll_usb.c ****   {
ARM GAS  /tmp/ccag9PFX.s 			page 9


 432:Drivers/STM32F4xx_HAL_Driver/Src/stm32f4xx_ll_usb.c ****     USBx->GINTMSK |= USB_OTG_GINTMSK_RXFLVLM;
 433:Drivers/STM32F4xx_HAL_Driver/Src/stm32f4xx_ll_usb.c ****   }
 434:Drivers/STM32F4xx_HAL_Driver/Src/stm32f4xx_ll_usb.c **** 
 435:Drivers/STM32F4xx_HAL_Driver/Src/stm32f4xx_ll_usb.c ****   /* Enable interrupts matching to the Device mode ONLY */
 436:Drivers/STM32F4xx_HAL_Driver/Src/stm32f4xx_ll_usb.c ****   USBx->GINTMSK |= USB_OTG_GINTMSK_USBSUSPM | USB_OTG_GINTMSK_USBRST |
 437:Drivers/STM32F4xx_HAL_Driver/Src/stm32f4xx_ll_usb.c ****                    USB_OTG_GINTMSK_ENUMDNEM | USB_OTG_GINTMSK_IEPINT |
 438:Drivers/STM32F4xx_HAL_Driver/Src/stm32f4xx_ll_usb.c ****                    USB_OTG_GINTMSK_OEPINT   | USB_OTG_GINTMSK_IISOIXFRM |
 439:Drivers/STM32F4xx_HAL_Driver/Src/stm32f4xx_ll_usb.c ****                    USB_OTG_GINTMSK_PXFRM_IISOOXFRM | USB_OTG_GINTMSK_WUIM;
 440:Drivers/STM32F4xx_HAL_Driver/Src/stm32f4xx_ll_usb.c **** 
 441:Drivers/STM32F4xx_HAL_Driver/Src/stm32f4xx_ll_usb.c ****   if (cfg.Sof_enable != 0U)
 442:Drivers/STM32F4xx_HAL_Driver/Src/stm32f4xx_ll_usb.c ****   {
 443:Drivers/STM32F4xx_HAL_Driver/Src/stm32f4xx_ll_usb.c ****     USBx->GINTMSK |= USB_OTG_GINTMSK_SOFM;
 444:Drivers/STM32F4xx_HAL_Driver/Src/stm32f4xx_ll_usb.c ****   }
 445:Drivers/STM32F4xx_HAL_Driver/Src/stm32f4xx_ll_usb.c **** 
 446:Drivers/STM32F4xx_HAL_Driver/Src/stm32f4xx_ll_usb.c ****   if (cfg.vbus_sensing_enable == 1U)
 447:Drivers/STM32F4xx_HAL_Driver/Src/stm32f4xx_ll_usb.c ****   {
 448:Drivers/STM32F4xx_HAL_Driver/Src/stm32f4xx_ll_usb.c ****     USBx->GINTMSK |= (USB_OTG_GINTMSK_SRQIM | USB_OTG_GINTMSK_OTGINT);
 449:Drivers/STM32F4xx_HAL_Driver/Src/stm32f4xx_ll_usb.c ****   }
 450:Drivers/STM32F4xx_HAL_Driver/Src/stm32f4xx_ll_usb.c **** 
 451:Drivers/STM32F4xx_HAL_Driver/Src/stm32f4xx_ll_usb.c ****   return ret;
 452:Drivers/STM32F4xx_HAL_Driver/Src/stm32f4xx_ll_usb.c **** }
 453:Drivers/STM32F4xx_HAL_Driver/Src/stm32f4xx_ll_usb.c **** 
 454:Drivers/STM32F4xx_HAL_Driver/Src/stm32f4xx_ll_usb.c **** /**
 455:Drivers/STM32F4xx_HAL_Driver/Src/stm32f4xx_ll_usb.c ****   * @brief  USB_OTG_FlushTxFifo : Flush a Tx FIFO
 456:Drivers/STM32F4xx_HAL_Driver/Src/stm32f4xx_ll_usb.c ****   * @param  USBx  Selected device
 457:Drivers/STM32F4xx_HAL_Driver/Src/stm32f4xx_ll_usb.c ****   * @param  num  FIFO number
 458:Drivers/STM32F4xx_HAL_Driver/Src/stm32f4xx_ll_usb.c ****   *         This parameter can be a value from 1 to 15
 459:Drivers/STM32F4xx_HAL_Driver/Src/stm32f4xx_ll_usb.c ****             15 means Flush all Tx FIFOs
 460:Drivers/STM32F4xx_HAL_Driver/Src/stm32f4xx_ll_usb.c ****   * @retval HAL status
 461:Drivers/STM32F4xx_HAL_Driver/Src/stm32f4xx_ll_usb.c ****   */
 462:Drivers/STM32F4xx_HAL_Driver/Src/stm32f4xx_ll_usb.c **** HAL_StatusTypeDef USB_FlushTxFifo(USB_OTG_GlobalTypeDef *USBx, uint32_t num)
 463:Drivers/STM32F4xx_HAL_Driver/Src/stm32f4xx_ll_usb.c **** {
 464:Drivers/STM32F4xx_HAL_Driver/Src/stm32f4xx_ll_usb.c ****   uint32_t count = 0U;
 465:Drivers/STM32F4xx_HAL_Driver/Src/stm32f4xx_ll_usb.c **** 
 466:Drivers/STM32F4xx_HAL_Driver/Src/stm32f4xx_ll_usb.c ****   USBx->GRSTCTL = (USB_OTG_GRSTCTL_TXFFLSH | (num << 6));
 467:Drivers/STM32F4xx_HAL_Driver/Src/stm32f4xx_ll_usb.c **** 
 468:Drivers/STM32F4xx_HAL_Driver/Src/stm32f4xx_ll_usb.c ****   do
 469:Drivers/STM32F4xx_HAL_Driver/Src/stm32f4xx_ll_usb.c ****   {
 470:Drivers/STM32F4xx_HAL_Driver/Src/stm32f4xx_ll_usb.c ****     if (++count > 200000U)
 471:Drivers/STM32F4xx_HAL_Driver/Src/stm32f4xx_ll_usb.c ****     {
 472:Drivers/STM32F4xx_HAL_Driver/Src/stm32f4xx_ll_usb.c ****       return HAL_TIMEOUT;
 473:Drivers/STM32F4xx_HAL_Driver/Src/stm32f4xx_ll_usb.c ****     }
 474:Drivers/STM32F4xx_HAL_Driver/Src/stm32f4xx_ll_usb.c ****   }
 475:Drivers/STM32F4xx_HAL_Driver/Src/stm32f4xx_ll_usb.c ****   while ((USBx->GRSTCTL & USB_OTG_GRSTCTL_TXFFLSH) == USB_OTG_GRSTCTL_TXFFLSH);
 476:Drivers/STM32F4xx_HAL_Driver/Src/stm32f4xx_ll_usb.c **** 
 477:Drivers/STM32F4xx_HAL_Driver/Src/stm32f4xx_ll_usb.c ****   return HAL_OK;
 478:Drivers/STM32F4xx_HAL_Driver/Src/stm32f4xx_ll_usb.c **** }
 479:Drivers/STM32F4xx_HAL_Driver/Src/stm32f4xx_ll_usb.c **** 
 480:Drivers/STM32F4xx_HAL_Driver/Src/stm32f4xx_ll_usb.c **** /**
 481:Drivers/STM32F4xx_HAL_Driver/Src/stm32f4xx_ll_usb.c ****   * @brief  USB_FlushRxFifo : Flush Rx FIFO
 482:Drivers/STM32F4xx_HAL_Driver/Src/stm32f4xx_ll_usb.c ****   * @param  USBx  Selected device
 483:Drivers/STM32F4xx_HAL_Driver/Src/stm32f4xx_ll_usb.c ****   * @retval HAL status
 484:Drivers/STM32F4xx_HAL_Driver/Src/stm32f4xx_ll_usb.c ****   */
 485:Drivers/STM32F4xx_HAL_Driver/Src/stm32f4xx_ll_usb.c **** HAL_StatusTypeDef USB_FlushRxFifo(USB_OTG_GlobalTypeDef *USBx)
 486:Drivers/STM32F4xx_HAL_Driver/Src/stm32f4xx_ll_usb.c **** {
 487:Drivers/STM32F4xx_HAL_Driver/Src/stm32f4xx_ll_usb.c ****   uint32_t count = 0;
 488:Drivers/STM32F4xx_HAL_Driver/Src/stm32f4xx_ll_usb.c **** 
ARM GAS  /tmp/ccag9PFX.s 			page 10


 489:Drivers/STM32F4xx_HAL_Driver/Src/stm32f4xx_ll_usb.c ****   USBx->GRSTCTL = USB_OTG_GRSTCTL_RXFFLSH;
 490:Drivers/STM32F4xx_HAL_Driver/Src/stm32f4xx_ll_usb.c **** 
 491:Drivers/STM32F4xx_HAL_Driver/Src/stm32f4xx_ll_usb.c ****   do
 492:Drivers/STM32F4xx_HAL_Driver/Src/stm32f4xx_ll_usb.c ****   {
 493:Drivers/STM32F4xx_HAL_Driver/Src/stm32f4xx_ll_usb.c ****     if (++count > 200000U)
 494:Drivers/STM32F4xx_HAL_Driver/Src/stm32f4xx_ll_usb.c ****     {
 495:Drivers/STM32F4xx_HAL_Driver/Src/stm32f4xx_ll_usb.c ****       return HAL_TIMEOUT;
 496:Drivers/STM32F4xx_HAL_Driver/Src/stm32f4xx_ll_usb.c ****     }
 497:Drivers/STM32F4xx_HAL_Driver/Src/stm32f4xx_ll_usb.c ****   }
 498:Drivers/STM32F4xx_HAL_Driver/Src/stm32f4xx_ll_usb.c ****   while ((USBx->GRSTCTL & USB_OTG_GRSTCTL_RXFFLSH) == USB_OTG_GRSTCTL_RXFFLSH);
 499:Drivers/STM32F4xx_HAL_Driver/Src/stm32f4xx_ll_usb.c **** 
 500:Drivers/STM32F4xx_HAL_Driver/Src/stm32f4xx_ll_usb.c ****   return HAL_OK;
 501:Drivers/STM32F4xx_HAL_Driver/Src/stm32f4xx_ll_usb.c **** }
 502:Drivers/STM32F4xx_HAL_Driver/Src/stm32f4xx_ll_usb.c **** 
 503:Drivers/STM32F4xx_HAL_Driver/Src/stm32f4xx_ll_usb.c **** /**
 504:Drivers/STM32F4xx_HAL_Driver/Src/stm32f4xx_ll_usb.c ****   * @brief  USB_SetDevSpeed  Initializes the DevSpd field of DCFG register
 505:Drivers/STM32F4xx_HAL_Driver/Src/stm32f4xx_ll_usb.c ****   *         depending the PHY type and the enumeration speed of the device.
 506:Drivers/STM32F4xx_HAL_Driver/Src/stm32f4xx_ll_usb.c ****   * @param  USBx  Selected device
 507:Drivers/STM32F4xx_HAL_Driver/Src/stm32f4xx_ll_usb.c ****   * @param  speed  device speed
 508:Drivers/STM32F4xx_HAL_Driver/Src/stm32f4xx_ll_usb.c ****   *          This parameter can be one of these values:
 509:Drivers/STM32F4xx_HAL_Driver/Src/stm32f4xx_ll_usb.c ****   *            @arg USB_OTG_SPEED_HIGH: High speed mode
 510:Drivers/STM32F4xx_HAL_Driver/Src/stm32f4xx_ll_usb.c ****   *            @arg USB_OTG_SPEED_HIGH_IN_FULL: High speed core in Full Speed mode
 511:Drivers/STM32F4xx_HAL_Driver/Src/stm32f4xx_ll_usb.c ****   *            @arg USB_OTG_SPEED_FULL: Full speed mode
 512:Drivers/STM32F4xx_HAL_Driver/Src/stm32f4xx_ll_usb.c ****   * @retval  Hal status
 513:Drivers/STM32F4xx_HAL_Driver/Src/stm32f4xx_ll_usb.c ****   */
 514:Drivers/STM32F4xx_HAL_Driver/Src/stm32f4xx_ll_usb.c **** HAL_StatusTypeDef USB_SetDevSpeed(USB_OTG_GlobalTypeDef *USBx, uint8_t speed)
 515:Drivers/STM32F4xx_HAL_Driver/Src/stm32f4xx_ll_usb.c **** {
 516:Drivers/STM32F4xx_HAL_Driver/Src/stm32f4xx_ll_usb.c ****   uint32_t USBx_BASE = (uint32_t)USBx;
 517:Drivers/STM32F4xx_HAL_Driver/Src/stm32f4xx_ll_usb.c **** 
 518:Drivers/STM32F4xx_HAL_Driver/Src/stm32f4xx_ll_usb.c ****   USBx_DEVICE->DCFG |= speed;
 519:Drivers/STM32F4xx_HAL_Driver/Src/stm32f4xx_ll_usb.c ****   return HAL_OK;
 520:Drivers/STM32F4xx_HAL_Driver/Src/stm32f4xx_ll_usb.c **** }
 521:Drivers/STM32F4xx_HAL_Driver/Src/stm32f4xx_ll_usb.c **** 
 522:Drivers/STM32F4xx_HAL_Driver/Src/stm32f4xx_ll_usb.c **** /**
 523:Drivers/STM32F4xx_HAL_Driver/Src/stm32f4xx_ll_usb.c ****   * @brief  USB_GetDevSpeed  Return the Dev Speed
 524:Drivers/STM32F4xx_HAL_Driver/Src/stm32f4xx_ll_usb.c ****   * @param  USBx  Selected device
 525:Drivers/STM32F4xx_HAL_Driver/Src/stm32f4xx_ll_usb.c ****   * @retval speed  device speed
 526:Drivers/STM32F4xx_HAL_Driver/Src/stm32f4xx_ll_usb.c ****   *          This parameter can be one of these values:
 527:Drivers/STM32F4xx_HAL_Driver/Src/stm32f4xx_ll_usb.c ****   *            @arg PCD_SPEED_HIGH: High speed mode
 528:Drivers/STM32F4xx_HAL_Driver/Src/stm32f4xx_ll_usb.c ****   *            @arg PCD_SPEED_FULL: Full speed mode
 529:Drivers/STM32F4xx_HAL_Driver/Src/stm32f4xx_ll_usb.c ****   */
 530:Drivers/STM32F4xx_HAL_Driver/Src/stm32f4xx_ll_usb.c **** uint8_t USB_GetDevSpeed(USB_OTG_GlobalTypeDef *USBx)
 531:Drivers/STM32F4xx_HAL_Driver/Src/stm32f4xx_ll_usb.c **** {
 532:Drivers/STM32F4xx_HAL_Driver/Src/stm32f4xx_ll_usb.c ****   uint32_t USBx_BASE = (uint32_t)USBx;
 533:Drivers/STM32F4xx_HAL_Driver/Src/stm32f4xx_ll_usb.c ****   uint8_t speed;
 534:Drivers/STM32F4xx_HAL_Driver/Src/stm32f4xx_ll_usb.c ****   uint32_t DevEnumSpeed = USBx_DEVICE->DSTS & USB_OTG_DSTS_ENUMSPD;
 535:Drivers/STM32F4xx_HAL_Driver/Src/stm32f4xx_ll_usb.c **** 
 536:Drivers/STM32F4xx_HAL_Driver/Src/stm32f4xx_ll_usb.c ****   if (DevEnumSpeed == DSTS_ENUMSPD_HS_PHY_30MHZ_OR_60MHZ)
 537:Drivers/STM32F4xx_HAL_Driver/Src/stm32f4xx_ll_usb.c ****   {
 538:Drivers/STM32F4xx_HAL_Driver/Src/stm32f4xx_ll_usb.c ****     speed = USBD_HS_SPEED;
 539:Drivers/STM32F4xx_HAL_Driver/Src/stm32f4xx_ll_usb.c ****   }
 540:Drivers/STM32F4xx_HAL_Driver/Src/stm32f4xx_ll_usb.c ****   else if ((DevEnumSpeed == DSTS_ENUMSPD_FS_PHY_30MHZ_OR_60MHZ) ||
 541:Drivers/STM32F4xx_HAL_Driver/Src/stm32f4xx_ll_usb.c ****            (DevEnumSpeed == DSTS_ENUMSPD_FS_PHY_48MHZ))
 542:Drivers/STM32F4xx_HAL_Driver/Src/stm32f4xx_ll_usb.c ****   {
 543:Drivers/STM32F4xx_HAL_Driver/Src/stm32f4xx_ll_usb.c ****     speed = USBD_FS_SPEED;
 544:Drivers/STM32F4xx_HAL_Driver/Src/stm32f4xx_ll_usb.c ****   }
 545:Drivers/STM32F4xx_HAL_Driver/Src/stm32f4xx_ll_usb.c ****   else
ARM GAS  /tmp/ccag9PFX.s 			page 11


 546:Drivers/STM32F4xx_HAL_Driver/Src/stm32f4xx_ll_usb.c ****   {
 547:Drivers/STM32F4xx_HAL_Driver/Src/stm32f4xx_ll_usb.c ****     speed = 0xFU;
 548:Drivers/STM32F4xx_HAL_Driver/Src/stm32f4xx_ll_usb.c ****   }
 549:Drivers/STM32F4xx_HAL_Driver/Src/stm32f4xx_ll_usb.c **** 
 550:Drivers/STM32F4xx_HAL_Driver/Src/stm32f4xx_ll_usb.c ****   return speed;
 551:Drivers/STM32F4xx_HAL_Driver/Src/stm32f4xx_ll_usb.c **** }
 552:Drivers/STM32F4xx_HAL_Driver/Src/stm32f4xx_ll_usb.c **** 
 553:Drivers/STM32F4xx_HAL_Driver/Src/stm32f4xx_ll_usb.c **** /**
 554:Drivers/STM32F4xx_HAL_Driver/Src/stm32f4xx_ll_usb.c ****   * @brief  Activate and configure an endpoint
 555:Drivers/STM32F4xx_HAL_Driver/Src/stm32f4xx_ll_usb.c ****   * @param  USBx  Selected device
 556:Drivers/STM32F4xx_HAL_Driver/Src/stm32f4xx_ll_usb.c ****   * @param  ep pointer to endpoint structure
 557:Drivers/STM32F4xx_HAL_Driver/Src/stm32f4xx_ll_usb.c ****   * @retval HAL status
 558:Drivers/STM32F4xx_HAL_Driver/Src/stm32f4xx_ll_usb.c ****   */
 559:Drivers/STM32F4xx_HAL_Driver/Src/stm32f4xx_ll_usb.c **** HAL_StatusTypeDef USB_ActivateEndpoint(USB_OTG_GlobalTypeDef *USBx, USB_OTG_EPTypeDef *ep)
 560:Drivers/STM32F4xx_HAL_Driver/Src/stm32f4xx_ll_usb.c **** {
 561:Drivers/STM32F4xx_HAL_Driver/Src/stm32f4xx_ll_usb.c ****   uint32_t USBx_BASE = (uint32_t)USBx;
 562:Drivers/STM32F4xx_HAL_Driver/Src/stm32f4xx_ll_usb.c ****   uint32_t epnum = (uint32_t)ep->num;
 563:Drivers/STM32F4xx_HAL_Driver/Src/stm32f4xx_ll_usb.c **** 
 564:Drivers/STM32F4xx_HAL_Driver/Src/stm32f4xx_ll_usb.c ****   if (ep->is_in == 1U)
 565:Drivers/STM32F4xx_HAL_Driver/Src/stm32f4xx_ll_usb.c ****   {
 566:Drivers/STM32F4xx_HAL_Driver/Src/stm32f4xx_ll_usb.c ****     USBx_DEVICE->DAINTMSK |= USB_OTG_DAINTMSK_IEPM & (uint32_t)(1UL << (ep->num & EP_ADDR_MSK));
 567:Drivers/STM32F4xx_HAL_Driver/Src/stm32f4xx_ll_usb.c **** 
 568:Drivers/STM32F4xx_HAL_Driver/Src/stm32f4xx_ll_usb.c ****     if ((USBx_INEP(epnum)->DIEPCTL & USB_OTG_DIEPCTL_USBAEP) == 0U)
 569:Drivers/STM32F4xx_HAL_Driver/Src/stm32f4xx_ll_usb.c ****     {
 570:Drivers/STM32F4xx_HAL_Driver/Src/stm32f4xx_ll_usb.c ****       USBx_INEP(epnum)->DIEPCTL |= (ep->maxpacket & USB_OTG_DIEPCTL_MPSIZ) |
 571:Drivers/STM32F4xx_HAL_Driver/Src/stm32f4xx_ll_usb.c ****                                    ((uint32_t)ep->type << 18) | (epnum << 22) |
 572:Drivers/STM32F4xx_HAL_Driver/Src/stm32f4xx_ll_usb.c ****                                    USB_OTG_DIEPCTL_SD0PID_SEVNFRM |
 573:Drivers/STM32F4xx_HAL_Driver/Src/stm32f4xx_ll_usb.c ****                                    USB_OTG_DIEPCTL_USBAEP;
 574:Drivers/STM32F4xx_HAL_Driver/Src/stm32f4xx_ll_usb.c ****     }
 575:Drivers/STM32F4xx_HAL_Driver/Src/stm32f4xx_ll_usb.c ****   }
 576:Drivers/STM32F4xx_HAL_Driver/Src/stm32f4xx_ll_usb.c ****   else
 577:Drivers/STM32F4xx_HAL_Driver/Src/stm32f4xx_ll_usb.c ****   {
 578:Drivers/STM32F4xx_HAL_Driver/Src/stm32f4xx_ll_usb.c ****     USBx_DEVICE->DAINTMSK |= USB_OTG_DAINTMSK_OEPM & ((uint32_t)(1UL << (ep->num & EP_ADDR_MSK)) <<
 579:Drivers/STM32F4xx_HAL_Driver/Src/stm32f4xx_ll_usb.c **** 
 580:Drivers/STM32F4xx_HAL_Driver/Src/stm32f4xx_ll_usb.c ****     if (((USBx_OUTEP(epnum)->DOEPCTL) & USB_OTG_DOEPCTL_USBAEP) == 0U)
 581:Drivers/STM32F4xx_HAL_Driver/Src/stm32f4xx_ll_usb.c ****     {
 582:Drivers/STM32F4xx_HAL_Driver/Src/stm32f4xx_ll_usb.c ****       USBx_OUTEP(epnum)->DOEPCTL |= (ep->maxpacket & USB_OTG_DOEPCTL_MPSIZ) |
 583:Drivers/STM32F4xx_HAL_Driver/Src/stm32f4xx_ll_usb.c ****                                     ((uint32_t)ep->type << 18) |
 584:Drivers/STM32F4xx_HAL_Driver/Src/stm32f4xx_ll_usb.c ****                                     USB_OTG_DIEPCTL_SD0PID_SEVNFRM |
 585:Drivers/STM32F4xx_HAL_Driver/Src/stm32f4xx_ll_usb.c ****                                     USB_OTG_DOEPCTL_USBAEP;
 586:Drivers/STM32F4xx_HAL_Driver/Src/stm32f4xx_ll_usb.c ****     }
 587:Drivers/STM32F4xx_HAL_Driver/Src/stm32f4xx_ll_usb.c ****   }
 588:Drivers/STM32F4xx_HAL_Driver/Src/stm32f4xx_ll_usb.c ****   return HAL_OK;
 589:Drivers/STM32F4xx_HAL_Driver/Src/stm32f4xx_ll_usb.c **** }
 590:Drivers/STM32F4xx_HAL_Driver/Src/stm32f4xx_ll_usb.c **** 
 591:Drivers/STM32F4xx_HAL_Driver/Src/stm32f4xx_ll_usb.c **** /**
 592:Drivers/STM32F4xx_HAL_Driver/Src/stm32f4xx_ll_usb.c ****   * @brief  Activate and configure a dedicated endpoint
 593:Drivers/STM32F4xx_HAL_Driver/Src/stm32f4xx_ll_usb.c ****   * @param  USBx  Selected device
 594:Drivers/STM32F4xx_HAL_Driver/Src/stm32f4xx_ll_usb.c ****   * @param  ep pointer to endpoint structure
 595:Drivers/STM32F4xx_HAL_Driver/Src/stm32f4xx_ll_usb.c ****   * @retval HAL status
 596:Drivers/STM32F4xx_HAL_Driver/Src/stm32f4xx_ll_usb.c ****   */
 597:Drivers/STM32F4xx_HAL_Driver/Src/stm32f4xx_ll_usb.c **** HAL_StatusTypeDef USB_ActivateDedicatedEndpoint(USB_OTG_GlobalTypeDef *USBx, USB_OTG_EPTypeDef *ep)
 598:Drivers/STM32F4xx_HAL_Driver/Src/stm32f4xx_ll_usb.c **** {
 599:Drivers/STM32F4xx_HAL_Driver/Src/stm32f4xx_ll_usb.c ****   uint32_t USBx_BASE = (uint32_t)USBx;
 600:Drivers/STM32F4xx_HAL_Driver/Src/stm32f4xx_ll_usb.c ****   uint32_t epnum = (uint32_t)ep->num;
 601:Drivers/STM32F4xx_HAL_Driver/Src/stm32f4xx_ll_usb.c **** 
 602:Drivers/STM32F4xx_HAL_Driver/Src/stm32f4xx_ll_usb.c ****   /* Read DEPCTLn register */
ARM GAS  /tmp/ccag9PFX.s 			page 12


 603:Drivers/STM32F4xx_HAL_Driver/Src/stm32f4xx_ll_usb.c ****   if (ep->is_in == 1U)
 604:Drivers/STM32F4xx_HAL_Driver/Src/stm32f4xx_ll_usb.c ****   {
 605:Drivers/STM32F4xx_HAL_Driver/Src/stm32f4xx_ll_usb.c ****     if (((USBx_INEP(epnum)->DIEPCTL) & USB_OTG_DIEPCTL_USBAEP) == 0U)
 606:Drivers/STM32F4xx_HAL_Driver/Src/stm32f4xx_ll_usb.c ****     {
 607:Drivers/STM32F4xx_HAL_Driver/Src/stm32f4xx_ll_usb.c ****       USBx_INEP(epnum)->DIEPCTL |= (ep->maxpacket & USB_OTG_DIEPCTL_MPSIZ) |
 608:Drivers/STM32F4xx_HAL_Driver/Src/stm32f4xx_ll_usb.c ****                                    ((uint32_t)ep->type << 18) | (epnum << 22) |
 609:Drivers/STM32F4xx_HAL_Driver/Src/stm32f4xx_ll_usb.c ****                                    USB_OTG_DIEPCTL_SD0PID_SEVNFRM |
 610:Drivers/STM32F4xx_HAL_Driver/Src/stm32f4xx_ll_usb.c ****                                    USB_OTG_DIEPCTL_USBAEP;
 611:Drivers/STM32F4xx_HAL_Driver/Src/stm32f4xx_ll_usb.c ****     }
 612:Drivers/STM32F4xx_HAL_Driver/Src/stm32f4xx_ll_usb.c **** 
 613:Drivers/STM32F4xx_HAL_Driver/Src/stm32f4xx_ll_usb.c ****     USBx_DEVICE->DEACHMSK |= USB_OTG_DAINTMSK_IEPM & (uint32_t)(1UL << (ep->num & EP_ADDR_MSK));
 614:Drivers/STM32F4xx_HAL_Driver/Src/stm32f4xx_ll_usb.c ****   }
 615:Drivers/STM32F4xx_HAL_Driver/Src/stm32f4xx_ll_usb.c ****   else
 616:Drivers/STM32F4xx_HAL_Driver/Src/stm32f4xx_ll_usb.c ****   {
 617:Drivers/STM32F4xx_HAL_Driver/Src/stm32f4xx_ll_usb.c ****     if (((USBx_OUTEP(epnum)->DOEPCTL) & USB_OTG_DOEPCTL_USBAEP) == 0U)
 618:Drivers/STM32F4xx_HAL_Driver/Src/stm32f4xx_ll_usb.c ****     {
 619:Drivers/STM32F4xx_HAL_Driver/Src/stm32f4xx_ll_usb.c ****       USBx_OUTEP(epnum)->DOEPCTL |= (ep->maxpacket & USB_OTG_DOEPCTL_MPSIZ) |
 620:Drivers/STM32F4xx_HAL_Driver/Src/stm32f4xx_ll_usb.c ****                                     ((uint32_t)ep->type << 18) | (epnum << 22) |
 621:Drivers/STM32F4xx_HAL_Driver/Src/stm32f4xx_ll_usb.c ****                                     USB_OTG_DOEPCTL_USBAEP;
 622:Drivers/STM32F4xx_HAL_Driver/Src/stm32f4xx_ll_usb.c ****     }
 623:Drivers/STM32F4xx_HAL_Driver/Src/stm32f4xx_ll_usb.c **** 
 624:Drivers/STM32F4xx_HAL_Driver/Src/stm32f4xx_ll_usb.c ****     USBx_DEVICE->DEACHMSK |= USB_OTG_DAINTMSK_OEPM & ((uint32_t)(1UL << (ep->num & EP_ADDR_MSK)) <<
 625:Drivers/STM32F4xx_HAL_Driver/Src/stm32f4xx_ll_usb.c ****   }
 626:Drivers/STM32F4xx_HAL_Driver/Src/stm32f4xx_ll_usb.c **** 
 627:Drivers/STM32F4xx_HAL_Driver/Src/stm32f4xx_ll_usb.c ****   return HAL_OK;
 628:Drivers/STM32F4xx_HAL_Driver/Src/stm32f4xx_ll_usb.c **** }
 629:Drivers/STM32F4xx_HAL_Driver/Src/stm32f4xx_ll_usb.c **** 
 630:Drivers/STM32F4xx_HAL_Driver/Src/stm32f4xx_ll_usb.c **** /**
 631:Drivers/STM32F4xx_HAL_Driver/Src/stm32f4xx_ll_usb.c ****   * @brief  De-activate and de-initialize an endpoint
 632:Drivers/STM32F4xx_HAL_Driver/Src/stm32f4xx_ll_usb.c ****   * @param  USBx  Selected device
 633:Drivers/STM32F4xx_HAL_Driver/Src/stm32f4xx_ll_usb.c ****   * @param  ep pointer to endpoint structure
 634:Drivers/STM32F4xx_HAL_Driver/Src/stm32f4xx_ll_usb.c ****   * @retval HAL status
 635:Drivers/STM32F4xx_HAL_Driver/Src/stm32f4xx_ll_usb.c ****   */
 636:Drivers/STM32F4xx_HAL_Driver/Src/stm32f4xx_ll_usb.c **** HAL_StatusTypeDef USB_DeactivateEndpoint(USB_OTG_GlobalTypeDef *USBx, USB_OTG_EPTypeDef *ep)
 637:Drivers/STM32F4xx_HAL_Driver/Src/stm32f4xx_ll_usb.c **** {
 638:Drivers/STM32F4xx_HAL_Driver/Src/stm32f4xx_ll_usb.c ****   uint32_t USBx_BASE = (uint32_t)USBx;
 639:Drivers/STM32F4xx_HAL_Driver/Src/stm32f4xx_ll_usb.c ****   uint32_t epnum = (uint32_t)ep->num;
 640:Drivers/STM32F4xx_HAL_Driver/Src/stm32f4xx_ll_usb.c **** 
 641:Drivers/STM32F4xx_HAL_Driver/Src/stm32f4xx_ll_usb.c ****   /* Read DEPCTLn register */
 642:Drivers/STM32F4xx_HAL_Driver/Src/stm32f4xx_ll_usb.c ****   if (ep->is_in == 1U)
 643:Drivers/STM32F4xx_HAL_Driver/Src/stm32f4xx_ll_usb.c ****   {
 644:Drivers/STM32F4xx_HAL_Driver/Src/stm32f4xx_ll_usb.c ****     USBx_DEVICE->DEACHMSK &= ~(USB_OTG_DAINTMSK_IEPM & (uint32_t)(1UL << (ep->num & EP_ADDR_MSK)));
 645:Drivers/STM32F4xx_HAL_Driver/Src/stm32f4xx_ll_usb.c ****     USBx_DEVICE->DAINTMSK &= ~(USB_OTG_DAINTMSK_IEPM & (uint32_t)(1UL << (ep->num & EP_ADDR_MSK)));
 646:Drivers/STM32F4xx_HAL_Driver/Src/stm32f4xx_ll_usb.c ****     USBx_INEP(epnum)->DIEPCTL &= ~(USB_OTG_DIEPCTL_USBAEP |
 647:Drivers/STM32F4xx_HAL_Driver/Src/stm32f4xx_ll_usb.c ****                                    USB_OTG_DIEPCTL_MPSIZ |
 648:Drivers/STM32F4xx_HAL_Driver/Src/stm32f4xx_ll_usb.c ****                                    USB_OTG_DIEPCTL_TXFNUM |
 649:Drivers/STM32F4xx_HAL_Driver/Src/stm32f4xx_ll_usb.c ****                                    USB_OTG_DIEPCTL_SD0PID_SEVNFRM |
 650:Drivers/STM32F4xx_HAL_Driver/Src/stm32f4xx_ll_usb.c ****                                    USB_OTG_DIEPCTL_EPTYP);
 651:Drivers/STM32F4xx_HAL_Driver/Src/stm32f4xx_ll_usb.c ****   }
 652:Drivers/STM32F4xx_HAL_Driver/Src/stm32f4xx_ll_usb.c ****   else
 653:Drivers/STM32F4xx_HAL_Driver/Src/stm32f4xx_ll_usb.c ****   {
 654:Drivers/STM32F4xx_HAL_Driver/Src/stm32f4xx_ll_usb.c ****     USBx_DEVICE->DEACHMSK &= ~(USB_OTG_DAINTMSK_OEPM & ((uint32_t)(1UL << (ep->num & EP_ADDR_MSK)) 
 655:Drivers/STM32F4xx_HAL_Driver/Src/stm32f4xx_ll_usb.c ****     USBx_DEVICE->DAINTMSK &= ~(USB_OTG_DAINTMSK_OEPM & ((uint32_t)(1UL << (ep->num & EP_ADDR_MSK)) 
 656:Drivers/STM32F4xx_HAL_Driver/Src/stm32f4xx_ll_usb.c ****     USBx_OUTEP(epnum)->DOEPCTL &= ~(USB_OTG_DOEPCTL_USBAEP |
 657:Drivers/STM32F4xx_HAL_Driver/Src/stm32f4xx_ll_usb.c ****                                     USB_OTG_DOEPCTL_MPSIZ |
 658:Drivers/STM32F4xx_HAL_Driver/Src/stm32f4xx_ll_usb.c ****                                     USB_OTG_DOEPCTL_SD0PID_SEVNFRM |
 659:Drivers/STM32F4xx_HAL_Driver/Src/stm32f4xx_ll_usb.c ****                                     USB_OTG_DOEPCTL_EPTYP);
ARM GAS  /tmp/ccag9PFX.s 			page 13


 660:Drivers/STM32F4xx_HAL_Driver/Src/stm32f4xx_ll_usb.c ****   }
 661:Drivers/STM32F4xx_HAL_Driver/Src/stm32f4xx_ll_usb.c **** 
 662:Drivers/STM32F4xx_HAL_Driver/Src/stm32f4xx_ll_usb.c ****   return HAL_OK;
 663:Drivers/STM32F4xx_HAL_Driver/Src/stm32f4xx_ll_usb.c **** }
 664:Drivers/STM32F4xx_HAL_Driver/Src/stm32f4xx_ll_usb.c **** 
 665:Drivers/STM32F4xx_HAL_Driver/Src/stm32f4xx_ll_usb.c **** /**
 666:Drivers/STM32F4xx_HAL_Driver/Src/stm32f4xx_ll_usb.c ****   * @brief  De-activate and de-initialize a dedicated endpoint
 667:Drivers/STM32F4xx_HAL_Driver/Src/stm32f4xx_ll_usb.c ****   * @param  USBx  Selected device
 668:Drivers/STM32F4xx_HAL_Driver/Src/stm32f4xx_ll_usb.c ****   * @param  ep pointer to endpoint structure
 669:Drivers/STM32F4xx_HAL_Driver/Src/stm32f4xx_ll_usb.c ****   * @retval HAL status
 670:Drivers/STM32F4xx_HAL_Driver/Src/stm32f4xx_ll_usb.c ****   */
 671:Drivers/STM32F4xx_HAL_Driver/Src/stm32f4xx_ll_usb.c **** HAL_StatusTypeDef USB_DeactivateDedicatedEndpoint(USB_OTG_GlobalTypeDef *USBx, USB_OTG_EPTypeDef *e
 672:Drivers/STM32F4xx_HAL_Driver/Src/stm32f4xx_ll_usb.c **** {
 673:Drivers/STM32F4xx_HAL_Driver/Src/stm32f4xx_ll_usb.c ****   uint32_t USBx_BASE = (uint32_t)USBx;
 674:Drivers/STM32F4xx_HAL_Driver/Src/stm32f4xx_ll_usb.c ****   uint32_t epnum = (uint32_t)ep->num;
 675:Drivers/STM32F4xx_HAL_Driver/Src/stm32f4xx_ll_usb.c **** 
 676:Drivers/STM32F4xx_HAL_Driver/Src/stm32f4xx_ll_usb.c ****   /* Read DEPCTLn register */
 677:Drivers/STM32F4xx_HAL_Driver/Src/stm32f4xx_ll_usb.c ****   if (ep->is_in == 1U)
 678:Drivers/STM32F4xx_HAL_Driver/Src/stm32f4xx_ll_usb.c ****   {
 679:Drivers/STM32F4xx_HAL_Driver/Src/stm32f4xx_ll_usb.c ****     USBx_INEP(epnum)->DIEPCTL &= ~ USB_OTG_DIEPCTL_USBAEP;
 680:Drivers/STM32F4xx_HAL_Driver/Src/stm32f4xx_ll_usb.c ****     USBx_DEVICE->DAINTMSK &= ~(USB_OTG_DAINTMSK_IEPM & (uint32_t)(1UL << (ep->num & EP_ADDR_MSK)));
 681:Drivers/STM32F4xx_HAL_Driver/Src/stm32f4xx_ll_usb.c ****   }
 682:Drivers/STM32F4xx_HAL_Driver/Src/stm32f4xx_ll_usb.c ****   else
 683:Drivers/STM32F4xx_HAL_Driver/Src/stm32f4xx_ll_usb.c ****   {
 684:Drivers/STM32F4xx_HAL_Driver/Src/stm32f4xx_ll_usb.c ****     USBx_OUTEP(epnum)->DOEPCTL &= ~USB_OTG_DOEPCTL_USBAEP;
 685:Drivers/STM32F4xx_HAL_Driver/Src/stm32f4xx_ll_usb.c ****     USBx_DEVICE->DAINTMSK &= ~(USB_OTG_DAINTMSK_OEPM & ((uint32_t)(1UL << (ep->num & EP_ADDR_MSK)) 
 686:Drivers/STM32F4xx_HAL_Driver/Src/stm32f4xx_ll_usb.c ****   }
 687:Drivers/STM32F4xx_HAL_Driver/Src/stm32f4xx_ll_usb.c **** 
 688:Drivers/STM32F4xx_HAL_Driver/Src/stm32f4xx_ll_usb.c ****   return HAL_OK;
 689:Drivers/STM32F4xx_HAL_Driver/Src/stm32f4xx_ll_usb.c **** }
 690:Drivers/STM32F4xx_HAL_Driver/Src/stm32f4xx_ll_usb.c **** 
 691:Drivers/STM32F4xx_HAL_Driver/Src/stm32f4xx_ll_usb.c **** /**
 692:Drivers/STM32F4xx_HAL_Driver/Src/stm32f4xx_ll_usb.c ****   * @brief  USB_EPStartXfer : setup and starts a transfer over an EP
 693:Drivers/STM32F4xx_HAL_Driver/Src/stm32f4xx_ll_usb.c ****   * @param  USBx  Selected device
 694:Drivers/STM32F4xx_HAL_Driver/Src/stm32f4xx_ll_usb.c ****   * @param  ep pointer to endpoint structure
 695:Drivers/STM32F4xx_HAL_Driver/Src/stm32f4xx_ll_usb.c ****   * @param  dma USB dma enabled or disabled
 696:Drivers/STM32F4xx_HAL_Driver/Src/stm32f4xx_ll_usb.c ****   *          This parameter can be one of these values:
 697:Drivers/STM32F4xx_HAL_Driver/Src/stm32f4xx_ll_usb.c ****   *           0 : DMA feature not used
 698:Drivers/STM32F4xx_HAL_Driver/Src/stm32f4xx_ll_usb.c ****   *           1 : DMA feature used
 699:Drivers/STM32F4xx_HAL_Driver/Src/stm32f4xx_ll_usb.c ****   * @retval HAL status
 700:Drivers/STM32F4xx_HAL_Driver/Src/stm32f4xx_ll_usb.c ****   */
 701:Drivers/STM32F4xx_HAL_Driver/Src/stm32f4xx_ll_usb.c **** HAL_StatusTypeDef USB_EPStartXfer(USB_OTG_GlobalTypeDef *USBx, USB_OTG_EPTypeDef *ep, uint8_t dma)
 702:Drivers/STM32F4xx_HAL_Driver/Src/stm32f4xx_ll_usb.c **** {
 703:Drivers/STM32F4xx_HAL_Driver/Src/stm32f4xx_ll_usb.c ****   uint32_t USBx_BASE = (uint32_t)USBx;
 704:Drivers/STM32F4xx_HAL_Driver/Src/stm32f4xx_ll_usb.c ****   uint32_t epnum = (uint32_t)ep->num;
 705:Drivers/STM32F4xx_HAL_Driver/Src/stm32f4xx_ll_usb.c ****   uint16_t pktcnt;
 706:Drivers/STM32F4xx_HAL_Driver/Src/stm32f4xx_ll_usb.c **** 
 707:Drivers/STM32F4xx_HAL_Driver/Src/stm32f4xx_ll_usb.c ****   /* IN endpoint */
 708:Drivers/STM32F4xx_HAL_Driver/Src/stm32f4xx_ll_usb.c ****   if (ep->is_in == 1U)
 709:Drivers/STM32F4xx_HAL_Driver/Src/stm32f4xx_ll_usb.c ****   {
 710:Drivers/STM32F4xx_HAL_Driver/Src/stm32f4xx_ll_usb.c ****     /* Zero Length Packet? */
 711:Drivers/STM32F4xx_HAL_Driver/Src/stm32f4xx_ll_usb.c ****     if (ep->xfer_len == 0U)
 712:Drivers/STM32F4xx_HAL_Driver/Src/stm32f4xx_ll_usb.c ****     {
 713:Drivers/STM32F4xx_HAL_Driver/Src/stm32f4xx_ll_usb.c ****       USBx_INEP(epnum)->DIEPTSIZ &= ~(USB_OTG_DIEPTSIZ_PKTCNT);
 714:Drivers/STM32F4xx_HAL_Driver/Src/stm32f4xx_ll_usb.c ****       USBx_INEP(epnum)->DIEPTSIZ |= (USB_OTG_DIEPTSIZ_PKTCNT & (1U << 19));
 715:Drivers/STM32F4xx_HAL_Driver/Src/stm32f4xx_ll_usb.c ****       USBx_INEP(epnum)->DIEPTSIZ &= ~(USB_OTG_DIEPTSIZ_XFRSIZ);
 716:Drivers/STM32F4xx_HAL_Driver/Src/stm32f4xx_ll_usb.c ****     }
ARM GAS  /tmp/ccag9PFX.s 			page 14


 717:Drivers/STM32F4xx_HAL_Driver/Src/stm32f4xx_ll_usb.c ****     else
 718:Drivers/STM32F4xx_HAL_Driver/Src/stm32f4xx_ll_usb.c ****     {
 719:Drivers/STM32F4xx_HAL_Driver/Src/stm32f4xx_ll_usb.c ****       /* Program the transfer size and packet count
 720:Drivers/STM32F4xx_HAL_Driver/Src/stm32f4xx_ll_usb.c ****       * as follows: xfersize = N * maxpacket +
 721:Drivers/STM32F4xx_HAL_Driver/Src/stm32f4xx_ll_usb.c ****       * short_packet pktcnt = N + (short_packet
 722:Drivers/STM32F4xx_HAL_Driver/Src/stm32f4xx_ll_usb.c ****       * exist ? 1 : 0)
 723:Drivers/STM32F4xx_HAL_Driver/Src/stm32f4xx_ll_usb.c ****       */
 724:Drivers/STM32F4xx_HAL_Driver/Src/stm32f4xx_ll_usb.c ****       USBx_INEP(epnum)->DIEPTSIZ &= ~(USB_OTG_DIEPTSIZ_XFRSIZ);
 725:Drivers/STM32F4xx_HAL_Driver/Src/stm32f4xx_ll_usb.c ****       USBx_INEP(epnum)->DIEPTSIZ &= ~(USB_OTG_DIEPTSIZ_PKTCNT);
 726:Drivers/STM32F4xx_HAL_Driver/Src/stm32f4xx_ll_usb.c ****       USBx_INEP(epnum)->DIEPTSIZ |= (USB_OTG_DIEPTSIZ_PKTCNT & (((ep->xfer_len + ep->maxpacket - 1U
 727:Drivers/STM32F4xx_HAL_Driver/Src/stm32f4xx_ll_usb.c ****       USBx_INEP(epnum)->DIEPTSIZ |= (USB_OTG_DIEPTSIZ_XFRSIZ & ep->xfer_len);
 728:Drivers/STM32F4xx_HAL_Driver/Src/stm32f4xx_ll_usb.c **** 
 729:Drivers/STM32F4xx_HAL_Driver/Src/stm32f4xx_ll_usb.c ****       if (ep->type == EP_TYPE_ISOC)
 730:Drivers/STM32F4xx_HAL_Driver/Src/stm32f4xx_ll_usb.c ****       {
 731:Drivers/STM32F4xx_HAL_Driver/Src/stm32f4xx_ll_usb.c ****         USBx_INEP(epnum)->DIEPTSIZ &= ~(USB_OTG_DIEPTSIZ_MULCNT);
 732:Drivers/STM32F4xx_HAL_Driver/Src/stm32f4xx_ll_usb.c ****         USBx_INEP(epnum)->DIEPTSIZ |= (USB_OTG_DIEPTSIZ_MULCNT & (1U << 29));
 733:Drivers/STM32F4xx_HAL_Driver/Src/stm32f4xx_ll_usb.c ****       }
 734:Drivers/STM32F4xx_HAL_Driver/Src/stm32f4xx_ll_usb.c ****     }
 735:Drivers/STM32F4xx_HAL_Driver/Src/stm32f4xx_ll_usb.c **** 
 736:Drivers/STM32F4xx_HAL_Driver/Src/stm32f4xx_ll_usb.c ****     if (dma == 1U)
 737:Drivers/STM32F4xx_HAL_Driver/Src/stm32f4xx_ll_usb.c ****     {
 738:Drivers/STM32F4xx_HAL_Driver/Src/stm32f4xx_ll_usb.c ****       if ((uint32_t)ep->dma_addr != 0U)
 739:Drivers/STM32F4xx_HAL_Driver/Src/stm32f4xx_ll_usb.c ****       {
 740:Drivers/STM32F4xx_HAL_Driver/Src/stm32f4xx_ll_usb.c ****         USBx_INEP(epnum)->DIEPDMA = (uint32_t)(ep->dma_addr);
 741:Drivers/STM32F4xx_HAL_Driver/Src/stm32f4xx_ll_usb.c ****       }
 742:Drivers/STM32F4xx_HAL_Driver/Src/stm32f4xx_ll_usb.c **** 
 743:Drivers/STM32F4xx_HAL_Driver/Src/stm32f4xx_ll_usb.c ****       if (ep->type == EP_TYPE_ISOC)
 744:Drivers/STM32F4xx_HAL_Driver/Src/stm32f4xx_ll_usb.c ****       {
 745:Drivers/STM32F4xx_HAL_Driver/Src/stm32f4xx_ll_usb.c ****         if ((USBx_DEVICE->DSTS & (1U << 8)) == 0U)
 746:Drivers/STM32F4xx_HAL_Driver/Src/stm32f4xx_ll_usb.c ****         {
 747:Drivers/STM32F4xx_HAL_Driver/Src/stm32f4xx_ll_usb.c ****           USBx_INEP(epnum)->DIEPCTL |= USB_OTG_DIEPCTL_SODDFRM;
 748:Drivers/STM32F4xx_HAL_Driver/Src/stm32f4xx_ll_usb.c ****         }
 749:Drivers/STM32F4xx_HAL_Driver/Src/stm32f4xx_ll_usb.c ****         else
 750:Drivers/STM32F4xx_HAL_Driver/Src/stm32f4xx_ll_usb.c ****         {
 751:Drivers/STM32F4xx_HAL_Driver/Src/stm32f4xx_ll_usb.c ****           USBx_INEP(epnum)->DIEPCTL |= USB_OTG_DIEPCTL_SD0PID_SEVNFRM;
 752:Drivers/STM32F4xx_HAL_Driver/Src/stm32f4xx_ll_usb.c ****         }
 753:Drivers/STM32F4xx_HAL_Driver/Src/stm32f4xx_ll_usb.c ****       }
 754:Drivers/STM32F4xx_HAL_Driver/Src/stm32f4xx_ll_usb.c **** 
 755:Drivers/STM32F4xx_HAL_Driver/Src/stm32f4xx_ll_usb.c ****       /* EP enable, IN data in FIFO */
 756:Drivers/STM32F4xx_HAL_Driver/Src/stm32f4xx_ll_usb.c ****       USBx_INEP(epnum)->DIEPCTL |= (USB_OTG_DIEPCTL_CNAK | USB_OTG_DIEPCTL_EPENA);
 757:Drivers/STM32F4xx_HAL_Driver/Src/stm32f4xx_ll_usb.c ****     }
 758:Drivers/STM32F4xx_HAL_Driver/Src/stm32f4xx_ll_usb.c ****     else
 759:Drivers/STM32F4xx_HAL_Driver/Src/stm32f4xx_ll_usb.c ****     {
 760:Drivers/STM32F4xx_HAL_Driver/Src/stm32f4xx_ll_usb.c ****       /* EP enable, IN data in FIFO */
 761:Drivers/STM32F4xx_HAL_Driver/Src/stm32f4xx_ll_usb.c ****       USBx_INEP(epnum)->DIEPCTL |= (USB_OTG_DIEPCTL_CNAK | USB_OTG_DIEPCTL_EPENA);
 762:Drivers/STM32F4xx_HAL_Driver/Src/stm32f4xx_ll_usb.c **** 
 763:Drivers/STM32F4xx_HAL_Driver/Src/stm32f4xx_ll_usb.c ****       if (ep->type != EP_TYPE_ISOC)
 764:Drivers/STM32F4xx_HAL_Driver/Src/stm32f4xx_ll_usb.c ****       {
 765:Drivers/STM32F4xx_HAL_Driver/Src/stm32f4xx_ll_usb.c ****         /* Enable the Tx FIFO Empty Interrupt for this EP */
 766:Drivers/STM32F4xx_HAL_Driver/Src/stm32f4xx_ll_usb.c ****         if (ep->xfer_len > 0U)
 767:Drivers/STM32F4xx_HAL_Driver/Src/stm32f4xx_ll_usb.c ****         {
 768:Drivers/STM32F4xx_HAL_Driver/Src/stm32f4xx_ll_usb.c ****           USBx_DEVICE->DIEPEMPMSK |= 1UL << (ep->num & EP_ADDR_MSK);
 769:Drivers/STM32F4xx_HAL_Driver/Src/stm32f4xx_ll_usb.c ****         }
 770:Drivers/STM32F4xx_HAL_Driver/Src/stm32f4xx_ll_usb.c ****       }
 771:Drivers/STM32F4xx_HAL_Driver/Src/stm32f4xx_ll_usb.c ****       else
 772:Drivers/STM32F4xx_HAL_Driver/Src/stm32f4xx_ll_usb.c ****       {
 773:Drivers/STM32F4xx_HAL_Driver/Src/stm32f4xx_ll_usb.c ****         if ((USBx_DEVICE->DSTS & (1U << 8)) == 0U)
ARM GAS  /tmp/ccag9PFX.s 			page 15


 774:Drivers/STM32F4xx_HAL_Driver/Src/stm32f4xx_ll_usb.c ****         {
 775:Drivers/STM32F4xx_HAL_Driver/Src/stm32f4xx_ll_usb.c ****           USBx_INEP(epnum)->DIEPCTL |= USB_OTG_DIEPCTL_SODDFRM;
 776:Drivers/STM32F4xx_HAL_Driver/Src/stm32f4xx_ll_usb.c ****         }
 777:Drivers/STM32F4xx_HAL_Driver/Src/stm32f4xx_ll_usb.c ****         else
 778:Drivers/STM32F4xx_HAL_Driver/Src/stm32f4xx_ll_usb.c ****         {
 779:Drivers/STM32F4xx_HAL_Driver/Src/stm32f4xx_ll_usb.c ****           USBx_INEP(epnum)->DIEPCTL |= USB_OTG_DIEPCTL_SD0PID_SEVNFRM;
 780:Drivers/STM32F4xx_HAL_Driver/Src/stm32f4xx_ll_usb.c ****         }
 781:Drivers/STM32F4xx_HAL_Driver/Src/stm32f4xx_ll_usb.c **** 
 782:Drivers/STM32F4xx_HAL_Driver/Src/stm32f4xx_ll_usb.c ****         (void)USB_WritePacket(USBx, ep->xfer_buff, ep->num, (uint16_t)ep->xfer_len, dma);
 783:Drivers/STM32F4xx_HAL_Driver/Src/stm32f4xx_ll_usb.c ****       }
 784:Drivers/STM32F4xx_HAL_Driver/Src/stm32f4xx_ll_usb.c ****     }
 785:Drivers/STM32F4xx_HAL_Driver/Src/stm32f4xx_ll_usb.c ****   }
 786:Drivers/STM32F4xx_HAL_Driver/Src/stm32f4xx_ll_usb.c ****   else /* OUT endpoint */
 787:Drivers/STM32F4xx_HAL_Driver/Src/stm32f4xx_ll_usb.c ****   {
 788:Drivers/STM32F4xx_HAL_Driver/Src/stm32f4xx_ll_usb.c ****     /* Program the transfer size and packet count as follows:
 789:Drivers/STM32F4xx_HAL_Driver/Src/stm32f4xx_ll_usb.c ****     * pktcnt = N
 790:Drivers/STM32F4xx_HAL_Driver/Src/stm32f4xx_ll_usb.c ****     * xfersize = N * maxpacket
 791:Drivers/STM32F4xx_HAL_Driver/Src/stm32f4xx_ll_usb.c ****     */
 792:Drivers/STM32F4xx_HAL_Driver/Src/stm32f4xx_ll_usb.c ****     USBx_OUTEP(epnum)->DOEPTSIZ &= ~(USB_OTG_DOEPTSIZ_XFRSIZ);
 793:Drivers/STM32F4xx_HAL_Driver/Src/stm32f4xx_ll_usb.c ****     USBx_OUTEP(epnum)->DOEPTSIZ &= ~(USB_OTG_DOEPTSIZ_PKTCNT);
 794:Drivers/STM32F4xx_HAL_Driver/Src/stm32f4xx_ll_usb.c **** 
 795:Drivers/STM32F4xx_HAL_Driver/Src/stm32f4xx_ll_usb.c ****     if (ep->xfer_len == 0U)
 796:Drivers/STM32F4xx_HAL_Driver/Src/stm32f4xx_ll_usb.c ****     {
 797:Drivers/STM32F4xx_HAL_Driver/Src/stm32f4xx_ll_usb.c ****       USBx_OUTEP(epnum)->DOEPTSIZ |= (USB_OTG_DOEPTSIZ_XFRSIZ & ep->maxpacket);
 798:Drivers/STM32F4xx_HAL_Driver/Src/stm32f4xx_ll_usb.c ****       USBx_OUTEP(epnum)->DOEPTSIZ |= (USB_OTG_DOEPTSIZ_PKTCNT & (1U << 19));
 799:Drivers/STM32F4xx_HAL_Driver/Src/stm32f4xx_ll_usb.c ****     }
 800:Drivers/STM32F4xx_HAL_Driver/Src/stm32f4xx_ll_usb.c ****     else
 801:Drivers/STM32F4xx_HAL_Driver/Src/stm32f4xx_ll_usb.c ****     {
 802:Drivers/STM32F4xx_HAL_Driver/Src/stm32f4xx_ll_usb.c ****       pktcnt = (uint16_t)((ep->xfer_len + ep->maxpacket - 1U) / ep->maxpacket);
 803:Drivers/STM32F4xx_HAL_Driver/Src/stm32f4xx_ll_usb.c ****       USBx_OUTEP(epnum)->DOEPTSIZ |= USB_OTG_DOEPTSIZ_PKTCNT & ((uint32_t)pktcnt << 19);
 804:Drivers/STM32F4xx_HAL_Driver/Src/stm32f4xx_ll_usb.c ****       USBx_OUTEP(epnum)->DOEPTSIZ |= USB_OTG_DOEPTSIZ_XFRSIZ & (ep->maxpacket * pktcnt);
 805:Drivers/STM32F4xx_HAL_Driver/Src/stm32f4xx_ll_usb.c ****     }
 806:Drivers/STM32F4xx_HAL_Driver/Src/stm32f4xx_ll_usb.c **** 
 807:Drivers/STM32F4xx_HAL_Driver/Src/stm32f4xx_ll_usb.c ****     if (dma == 1U)
 808:Drivers/STM32F4xx_HAL_Driver/Src/stm32f4xx_ll_usb.c ****     {
 809:Drivers/STM32F4xx_HAL_Driver/Src/stm32f4xx_ll_usb.c ****       if ((uint32_t)ep->xfer_buff != 0U)
 810:Drivers/STM32F4xx_HAL_Driver/Src/stm32f4xx_ll_usb.c ****       {
 811:Drivers/STM32F4xx_HAL_Driver/Src/stm32f4xx_ll_usb.c ****         USBx_OUTEP(epnum)->DOEPDMA = (uint32_t)(ep->xfer_buff);
 812:Drivers/STM32F4xx_HAL_Driver/Src/stm32f4xx_ll_usb.c ****       }
 813:Drivers/STM32F4xx_HAL_Driver/Src/stm32f4xx_ll_usb.c ****     }
 814:Drivers/STM32F4xx_HAL_Driver/Src/stm32f4xx_ll_usb.c **** 
 815:Drivers/STM32F4xx_HAL_Driver/Src/stm32f4xx_ll_usb.c ****     if (ep->type == EP_TYPE_ISOC)
 816:Drivers/STM32F4xx_HAL_Driver/Src/stm32f4xx_ll_usb.c ****     {
 817:Drivers/STM32F4xx_HAL_Driver/Src/stm32f4xx_ll_usb.c ****       if ((USBx_DEVICE->DSTS & (1U << 8)) == 0U)
 818:Drivers/STM32F4xx_HAL_Driver/Src/stm32f4xx_ll_usb.c ****       {
 819:Drivers/STM32F4xx_HAL_Driver/Src/stm32f4xx_ll_usb.c ****         USBx_OUTEP(epnum)->DOEPCTL |= USB_OTG_DOEPCTL_SODDFRM;
 820:Drivers/STM32F4xx_HAL_Driver/Src/stm32f4xx_ll_usb.c ****       }
 821:Drivers/STM32F4xx_HAL_Driver/Src/stm32f4xx_ll_usb.c ****       else
 822:Drivers/STM32F4xx_HAL_Driver/Src/stm32f4xx_ll_usb.c ****       {
 823:Drivers/STM32F4xx_HAL_Driver/Src/stm32f4xx_ll_usb.c ****         USBx_OUTEP(epnum)->DOEPCTL |= USB_OTG_DOEPCTL_SD0PID_SEVNFRM;
 824:Drivers/STM32F4xx_HAL_Driver/Src/stm32f4xx_ll_usb.c ****       }
 825:Drivers/STM32F4xx_HAL_Driver/Src/stm32f4xx_ll_usb.c ****     }
 826:Drivers/STM32F4xx_HAL_Driver/Src/stm32f4xx_ll_usb.c ****     /* EP enable */
 827:Drivers/STM32F4xx_HAL_Driver/Src/stm32f4xx_ll_usb.c ****     USBx_OUTEP(epnum)->DOEPCTL |= (USB_OTG_DOEPCTL_CNAK | USB_OTG_DOEPCTL_EPENA);
 828:Drivers/STM32F4xx_HAL_Driver/Src/stm32f4xx_ll_usb.c ****   }
 829:Drivers/STM32F4xx_HAL_Driver/Src/stm32f4xx_ll_usb.c **** 
 830:Drivers/STM32F4xx_HAL_Driver/Src/stm32f4xx_ll_usb.c ****   return HAL_OK;
ARM GAS  /tmp/ccag9PFX.s 			page 16


 831:Drivers/STM32F4xx_HAL_Driver/Src/stm32f4xx_ll_usb.c **** }
 832:Drivers/STM32F4xx_HAL_Driver/Src/stm32f4xx_ll_usb.c **** 
 833:Drivers/STM32F4xx_HAL_Driver/Src/stm32f4xx_ll_usb.c **** /**
 834:Drivers/STM32F4xx_HAL_Driver/Src/stm32f4xx_ll_usb.c ****   * @brief  USB_EP0StartXfer : setup and starts a transfer over the EP  0
 835:Drivers/STM32F4xx_HAL_Driver/Src/stm32f4xx_ll_usb.c ****   * @param  USBx  Selected device
 836:Drivers/STM32F4xx_HAL_Driver/Src/stm32f4xx_ll_usb.c ****   * @param  ep pointer to endpoint structure
 837:Drivers/STM32F4xx_HAL_Driver/Src/stm32f4xx_ll_usb.c ****   * @param  dma USB dma enabled or disabled
 838:Drivers/STM32F4xx_HAL_Driver/Src/stm32f4xx_ll_usb.c ****   *          This parameter can be one of these values:
 839:Drivers/STM32F4xx_HAL_Driver/Src/stm32f4xx_ll_usb.c ****   *           0 : DMA feature not used
 840:Drivers/STM32F4xx_HAL_Driver/Src/stm32f4xx_ll_usb.c ****   *           1 : DMA feature used
 841:Drivers/STM32F4xx_HAL_Driver/Src/stm32f4xx_ll_usb.c ****   * @retval HAL status
 842:Drivers/STM32F4xx_HAL_Driver/Src/stm32f4xx_ll_usb.c ****   */
 843:Drivers/STM32F4xx_HAL_Driver/Src/stm32f4xx_ll_usb.c **** HAL_StatusTypeDef USB_EP0StartXfer(USB_OTG_GlobalTypeDef *USBx, USB_OTG_EPTypeDef *ep, uint8_t dma)
 844:Drivers/STM32F4xx_HAL_Driver/Src/stm32f4xx_ll_usb.c **** {
 845:Drivers/STM32F4xx_HAL_Driver/Src/stm32f4xx_ll_usb.c ****   uint32_t USBx_BASE = (uint32_t)USBx;
 846:Drivers/STM32F4xx_HAL_Driver/Src/stm32f4xx_ll_usb.c ****   uint32_t epnum = (uint32_t)ep->num;
 847:Drivers/STM32F4xx_HAL_Driver/Src/stm32f4xx_ll_usb.c **** 
 848:Drivers/STM32F4xx_HAL_Driver/Src/stm32f4xx_ll_usb.c ****   /* IN endpoint */
 849:Drivers/STM32F4xx_HAL_Driver/Src/stm32f4xx_ll_usb.c ****   if (ep->is_in == 1U)
 850:Drivers/STM32F4xx_HAL_Driver/Src/stm32f4xx_ll_usb.c ****   {
 851:Drivers/STM32F4xx_HAL_Driver/Src/stm32f4xx_ll_usb.c ****     /* Zero Length Packet? */
 852:Drivers/STM32F4xx_HAL_Driver/Src/stm32f4xx_ll_usb.c ****     if (ep->xfer_len == 0U)
 853:Drivers/STM32F4xx_HAL_Driver/Src/stm32f4xx_ll_usb.c ****     {
 854:Drivers/STM32F4xx_HAL_Driver/Src/stm32f4xx_ll_usb.c ****       USBx_INEP(epnum)->DIEPTSIZ &= ~(USB_OTG_DIEPTSIZ_PKTCNT);
 855:Drivers/STM32F4xx_HAL_Driver/Src/stm32f4xx_ll_usb.c ****       USBx_INEP(epnum)->DIEPTSIZ |= (USB_OTG_DIEPTSIZ_PKTCNT & (1U << 19));
 856:Drivers/STM32F4xx_HAL_Driver/Src/stm32f4xx_ll_usb.c ****       USBx_INEP(epnum)->DIEPTSIZ &= ~(USB_OTG_DIEPTSIZ_XFRSIZ);
 857:Drivers/STM32F4xx_HAL_Driver/Src/stm32f4xx_ll_usb.c ****     }
 858:Drivers/STM32F4xx_HAL_Driver/Src/stm32f4xx_ll_usb.c ****     else
 859:Drivers/STM32F4xx_HAL_Driver/Src/stm32f4xx_ll_usb.c ****     {
 860:Drivers/STM32F4xx_HAL_Driver/Src/stm32f4xx_ll_usb.c ****       /* Program the transfer size and packet count
 861:Drivers/STM32F4xx_HAL_Driver/Src/stm32f4xx_ll_usb.c ****       * as follows: xfersize = N * maxpacket +
 862:Drivers/STM32F4xx_HAL_Driver/Src/stm32f4xx_ll_usb.c ****       * short_packet pktcnt = N + (short_packet
 863:Drivers/STM32F4xx_HAL_Driver/Src/stm32f4xx_ll_usb.c ****       * exist ? 1 : 0)
 864:Drivers/STM32F4xx_HAL_Driver/Src/stm32f4xx_ll_usb.c ****       */
 865:Drivers/STM32F4xx_HAL_Driver/Src/stm32f4xx_ll_usb.c ****       USBx_INEP(epnum)->DIEPTSIZ &= ~(USB_OTG_DIEPTSIZ_XFRSIZ);
 866:Drivers/STM32F4xx_HAL_Driver/Src/stm32f4xx_ll_usb.c ****       USBx_INEP(epnum)->DIEPTSIZ &= ~(USB_OTG_DIEPTSIZ_PKTCNT);
 867:Drivers/STM32F4xx_HAL_Driver/Src/stm32f4xx_ll_usb.c **** 
 868:Drivers/STM32F4xx_HAL_Driver/Src/stm32f4xx_ll_usb.c ****       if (ep->xfer_len > ep->maxpacket)
 869:Drivers/STM32F4xx_HAL_Driver/Src/stm32f4xx_ll_usb.c ****       {
 870:Drivers/STM32F4xx_HAL_Driver/Src/stm32f4xx_ll_usb.c ****         ep->xfer_len = ep->maxpacket;
 871:Drivers/STM32F4xx_HAL_Driver/Src/stm32f4xx_ll_usb.c ****       }
 872:Drivers/STM32F4xx_HAL_Driver/Src/stm32f4xx_ll_usb.c ****       USBx_INEP(epnum)->DIEPTSIZ |= (USB_OTG_DIEPTSIZ_PKTCNT & (1U << 19));
 873:Drivers/STM32F4xx_HAL_Driver/Src/stm32f4xx_ll_usb.c ****       USBx_INEP(epnum)->DIEPTSIZ |= (USB_OTG_DIEPTSIZ_XFRSIZ & ep->xfer_len);
 874:Drivers/STM32F4xx_HAL_Driver/Src/stm32f4xx_ll_usb.c ****     }
 875:Drivers/STM32F4xx_HAL_Driver/Src/stm32f4xx_ll_usb.c **** 
 876:Drivers/STM32F4xx_HAL_Driver/Src/stm32f4xx_ll_usb.c ****     if (dma == 1U)
 877:Drivers/STM32F4xx_HAL_Driver/Src/stm32f4xx_ll_usb.c ****     {
 878:Drivers/STM32F4xx_HAL_Driver/Src/stm32f4xx_ll_usb.c ****       if ((uint32_t)ep->dma_addr != 0U)
 879:Drivers/STM32F4xx_HAL_Driver/Src/stm32f4xx_ll_usb.c ****       {
 880:Drivers/STM32F4xx_HAL_Driver/Src/stm32f4xx_ll_usb.c ****         USBx_INEP(epnum)->DIEPDMA = (uint32_t)(ep->dma_addr);
 881:Drivers/STM32F4xx_HAL_Driver/Src/stm32f4xx_ll_usb.c ****       }
 882:Drivers/STM32F4xx_HAL_Driver/Src/stm32f4xx_ll_usb.c **** 
 883:Drivers/STM32F4xx_HAL_Driver/Src/stm32f4xx_ll_usb.c ****       /* EP enable, IN data in FIFO */
 884:Drivers/STM32F4xx_HAL_Driver/Src/stm32f4xx_ll_usb.c ****       USBx_INEP(epnum)->DIEPCTL |= (USB_OTG_DIEPCTL_CNAK | USB_OTG_DIEPCTL_EPENA);
 885:Drivers/STM32F4xx_HAL_Driver/Src/stm32f4xx_ll_usb.c ****     }
 886:Drivers/STM32F4xx_HAL_Driver/Src/stm32f4xx_ll_usb.c ****     else
 887:Drivers/STM32F4xx_HAL_Driver/Src/stm32f4xx_ll_usb.c ****     {
ARM GAS  /tmp/ccag9PFX.s 			page 17


 888:Drivers/STM32F4xx_HAL_Driver/Src/stm32f4xx_ll_usb.c ****       /* EP enable, IN data in FIFO */
 889:Drivers/STM32F4xx_HAL_Driver/Src/stm32f4xx_ll_usb.c ****       USBx_INEP(epnum)->DIEPCTL |= (USB_OTG_DIEPCTL_CNAK | USB_OTG_DIEPCTL_EPENA);
 890:Drivers/STM32F4xx_HAL_Driver/Src/stm32f4xx_ll_usb.c **** 
 891:Drivers/STM32F4xx_HAL_Driver/Src/stm32f4xx_ll_usb.c ****       /* Enable the Tx FIFO Empty Interrupt for this EP */
 892:Drivers/STM32F4xx_HAL_Driver/Src/stm32f4xx_ll_usb.c ****       if (ep->xfer_len > 0U)
 893:Drivers/STM32F4xx_HAL_Driver/Src/stm32f4xx_ll_usb.c ****       {
 894:Drivers/STM32F4xx_HAL_Driver/Src/stm32f4xx_ll_usb.c ****         USBx_DEVICE->DIEPEMPMSK |= 1UL << (ep->num & EP_ADDR_MSK);
 895:Drivers/STM32F4xx_HAL_Driver/Src/stm32f4xx_ll_usb.c ****       }
 896:Drivers/STM32F4xx_HAL_Driver/Src/stm32f4xx_ll_usb.c ****     }
 897:Drivers/STM32F4xx_HAL_Driver/Src/stm32f4xx_ll_usb.c ****   }
 898:Drivers/STM32F4xx_HAL_Driver/Src/stm32f4xx_ll_usb.c ****   else /* OUT endpoint */
 899:Drivers/STM32F4xx_HAL_Driver/Src/stm32f4xx_ll_usb.c ****   {
 900:Drivers/STM32F4xx_HAL_Driver/Src/stm32f4xx_ll_usb.c ****     /* Program the transfer size and packet count as follows:
 901:Drivers/STM32F4xx_HAL_Driver/Src/stm32f4xx_ll_usb.c ****     * pktcnt = N
 902:Drivers/STM32F4xx_HAL_Driver/Src/stm32f4xx_ll_usb.c ****     * xfersize = N * maxpacket
 903:Drivers/STM32F4xx_HAL_Driver/Src/stm32f4xx_ll_usb.c ****     */
 904:Drivers/STM32F4xx_HAL_Driver/Src/stm32f4xx_ll_usb.c ****     USBx_OUTEP(epnum)->DOEPTSIZ &= ~(USB_OTG_DOEPTSIZ_XFRSIZ);
 905:Drivers/STM32F4xx_HAL_Driver/Src/stm32f4xx_ll_usb.c ****     USBx_OUTEP(epnum)->DOEPTSIZ &= ~(USB_OTG_DOEPTSIZ_PKTCNT);
 906:Drivers/STM32F4xx_HAL_Driver/Src/stm32f4xx_ll_usb.c **** 
 907:Drivers/STM32F4xx_HAL_Driver/Src/stm32f4xx_ll_usb.c ****     if (ep->xfer_len > 0U)
 908:Drivers/STM32F4xx_HAL_Driver/Src/stm32f4xx_ll_usb.c ****     {
 909:Drivers/STM32F4xx_HAL_Driver/Src/stm32f4xx_ll_usb.c ****       ep->xfer_len = ep->maxpacket;
 910:Drivers/STM32F4xx_HAL_Driver/Src/stm32f4xx_ll_usb.c ****     }
 911:Drivers/STM32F4xx_HAL_Driver/Src/stm32f4xx_ll_usb.c **** 
 912:Drivers/STM32F4xx_HAL_Driver/Src/stm32f4xx_ll_usb.c ****     USBx_OUTEP(epnum)->DOEPTSIZ |= (USB_OTG_DOEPTSIZ_PKTCNT & (1U << 19));
 913:Drivers/STM32F4xx_HAL_Driver/Src/stm32f4xx_ll_usb.c ****     USBx_OUTEP(epnum)->DOEPTSIZ |= (USB_OTG_DOEPTSIZ_XFRSIZ & (ep->maxpacket));
 914:Drivers/STM32F4xx_HAL_Driver/Src/stm32f4xx_ll_usb.c **** 
 915:Drivers/STM32F4xx_HAL_Driver/Src/stm32f4xx_ll_usb.c ****     if (dma == 1U)
 916:Drivers/STM32F4xx_HAL_Driver/Src/stm32f4xx_ll_usb.c ****     {
 917:Drivers/STM32F4xx_HAL_Driver/Src/stm32f4xx_ll_usb.c ****       if ((uint32_t)ep->xfer_buff != 0U)
 918:Drivers/STM32F4xx_HAL_Driver/Src/stm32f4xx_ll_usb.c ****       {
 919:Drivers/STM32F4xx_HAL_Driver/Src/stm32f4xx_ll_usb.c ****         USBx_OUTEP(epnum)->DOEPDMA = (uint32_t)(ep->xfer_buff);
 920:Drivers/STM32F4xx_HAL_Driver/Src/stm32f4xx_ll_usb.c ****       }
 921:Drivers/STM32F4xx_HAL_Driver/Src/stm32f4xx_ll_usb.c ****     }
 922:Drivers/STM32F4xx_HAL_Driver/Src/stm32f4xx_ll_usb.c **** 
 923:Drivers/STM32F4xx_HAL_Driver/Src/stm32f4xx_ll_usb.c ****     /* EP enable */
 924:Drivers/STM32F4xx_HAL_Driver/Src/stm32f4xx_ll_usb.c ****     USBx_OUTEP(epnum)->DOEPCTL |= (USB_OTG_DOEPCTL_CNAK | USB_OTG_DOEPCTL_EPENA);
 925:Drivers/STM32F4xx_HAL_Driver/Src/stm32f4xx_ll_usb.c ****   }
 926:Drivers/STM32F4xx_HAL_Driver/Src/stm32f4xx_ll_usb.c **** 
 927:Drivers/STM32F4xx_HAL_Driver/Src/stm32f4xx_ll_usb.c ****   return HAL_OK;
 928:Drivers/STM32F4xx_HAL_Driver/Src/stm32f4xx_ll_usb.c **** }
 929:Drivers/STM32F4xx_HAL_Driver/Src/stm32f4xx_ll_usb.c **** 
 930:Drivers/STM32F4xx_HAL_Driver/Src/stm32f4xx_ll_usb.c **** /**
 931:Drivers/STM32F4xx_HAL_Driver/Src/stm32f4xx_ll_usb.c ****   * @brief  USB_WritePacket : Writes a packet into the Tx FIFO associated
 932:Drivers/STM32F4xx_HAL_Driver/Src/stm32f4xx_ll_usb.c ****   *         with the EP/channel
 933:Drivers/STM32F4xx_HAL_Driver/Src/stm32f4xx_ll_usb.c ****   * @param  USBx  Selected device
 934:Drivers/STM32F4xx_HAL_Driver/Src/stm32f4xx_ll_usb.c ****   * @param  src   pointer to source buffer
 935:Drivers/STM32F4xx_HAL_Driver/Src/stm32f4xx_ll_usb.c ****   * @param  ch_ep_num  endpoint or host channel number
 936:Drivers/STM32F4xx_HAL_Driver/Src/stm32f4xx_ll_usb.c ****   * @param  len  Number of bytes to write
 937:Drivers/STM32F4xx_HAL_Driver/Src/stm32f4xx_ll_usb.c ****   * @param  dma USB dma enabled or disabled
 938:Drivers/STM32F4xx_HAL_Driver/Src/stm32f4xx_ll_usb.c ****   *          This parameter can be one of these values:
 939:Drivers/STM32F4xx_HAL_Driver/Src/stm32f4xx_ll_usb.c ****   *           0 : DMA feature not used
 940:Drivers/STM32F4xx_HAL_Driver/Src/stm32f4xx_ll_usb.c ****   *           1 : DMA feature used
 941:Drivers/STM32F4xx_HAL_Driver/Src/stm32f4xx_ll_usb.c ****   * @retval HAL status
 942:Drivers/STM32F4xx_HAL_Driver/Src/stm32f4xx_ll_usb.c ****   */
 943:Drivers/STM32F4xx_HAL_Driver/Src/stm32f4xx_ll_usb.c **** HAL_StatusTypeDef USB_WritePacket(USB_OTG_GlobalTypeDef *USBx, uint8_t *src, uint8_t ch_ep_num, uin
 944:Drivers/STM32F4xx_HAL_Driver/Src/stm32f4xx_ll_usb.c **** {
ARM GAS  /tmp/ccag9PFX.s 			page 18


 945:Drivers/STM32F4xx_HAL_Driver/Src/stm32f4xx_ll_usb.c ****   uint32_t USBx_BASE = (uint32_t)USBx;
 946:Drivers/STM32F4xx_HAL_Driver/Src/stm32f4xx_ll_usb.c ****   uint32_t *pSrc = (uint32_t *)src;
 947:Drivers/STM32F4xx_HAL_Driver/Src/stm32f4xx_ll_usb.c ****   uint32_t count32b, i;
 948:Drivers/STM32F4xx_HAL_Driver/Src/stm32f4xx_ll_usb.c **** 
 949:Drivers/STM32F4xx_HAL_Driver/Src/stm32f4xx_ll_usb.c ****   if (dma == 0U)
 950:Drivers/STM32F4xx_HAL_Driver/Src/stm32f4xx_ll_usb.c ****   {
 951:Drivers/STM32F4xx_HAL_Driver/Src/stm32f4xx_ll_usb.c ****     count32b = ((uint32_t)len + 3U) / 4U;
 952:Drivers/STM32F4xx_HAL_Driver/Src/stm32f4xx_ll_usb.c ****     for (i = 0U; i < count32b; i++)
 953:Drivers/STM32F4xx_HAL_Driver/Src/stm32f4xx_ll_usb.c ****     {
 954:Drivers/STM32F4xx_HAL_Driver/Src/stm32f4xx_ll_usb.c ****       USBx_DFIFO((uint32_t)ch_ep_num) = __UNALIGNED_UINT32_READ(pSrc);
 955:Drivers/STM32F4xx_HAL_Driver/Src/stm32f4xx_ll_usb.c ****       pSrc++;
 956:Drivers/STM32F4xx_HAL_Driver/Src/stm32f4xx_ll_usb.c ****     }
 957:Drivers/STM32F4xx_HAL_Driver/Src/stm32f4xx_ll_usb.c ****   }
 958:Drivers/STM32F4xx_HAL_Driver/Src/stm32f4xx_ll_usb.c **** 
 959:Drivers/STM32F4xx_HAL_Driver/Src/stm32f4xx_ll_usb.c ****   return HAL_OK;
 960:Drivers/STM32F4xx_HAL_Driver/Src/stm32f4xx_ll_usb.c **** }
 961:Drivers/STM32F4xx_HAL_Driver/Src/stm32f4xx_ll_usb.c **** 
 962:Drivers/STM32F4xx_HAL_Driver/Src/stm32f4xx_ll_usb.c **** /**
 963:Drivers/STM32F4xx_HAL_Driver/Src/stm32f4xx_ll_usb.c ****   * @brief  USB_ReadPacket : read a packet from the RX FIFO
 964:Drivers/STM32F4xx_HAL_Driver/Src/stm32f4xx_ll_usb.c ****   * @param  USBx  Selected device
 965:Drivers/STM32F4xx_HAL_Driver/Src/stm32f4xx_ll_usb.c ****   * @param  dest  source pointer
 966:Drivers/STM32F4xx_HAL_Driver/Src/stm32f4xx_ll_usb.c ****   * @param  len  Number of bytes to read
 967:Drivers/STM32F4xx_HAL_Driver/Src/stm32f4xx_ll_usb.c ****   * @retval pointer to destination buffer
 968:Drivers/STM32F4xx_HAL_Driver/Src/stm32f4xx_ll_usb.c ****   */
 969:Drivers/STM32F4xx_HAL_Driver/Src/stm32f4xx_ll_usb.c **** void *USB_ReadPacket(USB_OTG_GlobalTypeDef *USBx, uint8_t *dest, uint16_t len)
 970:Drivers/STM32F4xx_HAL_Driver/Src/stm32f4xx_ll_usb.c **** {
 971:Drivers/STM32F4xx_HAL_Driver/Src/stm32f4xx_ll_usb.c ****   uint32_t USBx_BASE = (uint32_t)USBx;
 972:Drivers/STM32F4xx_HAL_Driver/Src/stm32f4xx_ll_usb.c ****   uint32_t *pDest = (uint32_t *)dest;
 973:Drivers/STM32F4xx_HAL_Driver/Src/stm32f4xx_ll_usb.c ****   uint32_t i;
 974:Drivers/STM32F4xx_HAL_Driver/Src/stm32f4xx_ll_usb.c ****   uint32_t count32b = ((uint32_t)len + 3U) / 4U;
 975:Drivers/STM32F4xx_HAL_Driver/Src/stm32f4xx_ll_usb.c **** 
 976:Drivers/STM32F4xx_HAL_Driver/Src/stm32f4xx_ll_usb.c ****   for (i = 0U; i < count32b; i++)
 977:Drivers/STM32F4xx_HAL_Driver/Src/stm32f4xx_ll_usb.c ****   {
 978:Drivers/STM32F4xx_HAL_Driver/Src/stm32f4xx_ll_usb.c ****     __UNALIGNED_UINT32_WRITE(pDest, USBx_DFIFO(0U));
 979:Drivers/STM32F4xx_HAL_Driver/Src/stm32f4xx_ll_usb.c ****     pDest++;
 980:Drivers/STM32F4xx_HAL_Driver/Src/stm32f4xx_ll_usb.c ****   }
 981:Drivers/STM32F4xx_HAL_Driver/Src/stm32f4xx_ll_usb.c **** 
 982:Drivers/STM32F4xx_HAL_Driver/Src/stm32f4xx_ll_usb.c ****   return ((void *)pDest);
 983:Drivers/STM32F4xx_HAL_Driver/Src/stm32f4xx_ll_usb.c **** }
 984:Drivers/STM32F4xx_HAL_Driver/Src/stm32f4xx_ll_usb.c **** 
 985:Drivers/STM32F4xx_HAL_Driver/Src/stm32f4xx_ll_usb.c **** /**
 986:Drivers/STM32F4xx_HAL_Driver/Src/stm32f4xx_ll_usb.c ****   * @brief  USB_EPSetStall : set a stall condition over an EP
 987:Drivers/STM32F4xx_HAL_Driver/Src/stm32f4xx_ll_usb.c ****   * @param  USBx  Selected device
 988:Drivers/STM32F4xx_HAL_Driver/Src/stm32f4xx_ll_usb.c ****   * @param  ep pointer to endpoint structure
 989:Drivers/STM32F4xx_HAL_Driver/Src/stm32f4xx_ll_usb.c ****   * @retval HAL status
 990:Drivers/STM32F4xx_HAL_Driver/Src/stm32f4xx_ll_usb.c ****   */
 991:Drivers/STM32F4xx_HAL_Driver/Src/stm32f4xx_ll_usb.c **** HAL_StatusTypeDef USB_EPSetStall(USB_OTG_GlobalTypeDef *USBx, USB_OTG_EPTypeDef *ep)
 992:Drivers/STM32F4xx_HAL_Driver/Src/stm32f4xx_ll_usb.c **** {
 993:Drivers/STM32F4xx_HAL_Driver/Src/stm32f4xx_ll_usb.c ****   uint32_t USBx_BASE = (uint32_t)USBx;
 994:Drivers/STM32F4xx_HAL_Driver/Src/stm32f4xx_ll_usb.c ****   uint32_t epnum = (uint32_t)ep->num;
 995:Drivers/STM32F4xx_HAL_Driver/Src/stm32f4xx_ll_usb.c **** 
 996:Drivers/STM32F4xx_HAL_Driver/Src/stm32f4xx_ll_usb.c ****   if (ep->is_in == 1U)
 997:Drivers/STM32F4xx_HAL_Driver/Src/stm32f4xx_ll_usb.c ****   {
 998:Drivers/STM32F4xx_HAL_Driver/Src/stm32f4xx_ll_usb.c ****     if (((USBx_INEP(epnum)->DIEPCTL & USB_OTG_DIEPCTL_EPENA) == 0U) && (epnum != 0U))
 999:Drivers/STM32F4xx_HAL_Driver/Src/stm32f4xx_ll_usb.c ****     {
1000:Drivers/STM32F4xx_HAL_Driver/Src/stm32f4xx_ll_usb.c ****       USBx_INEP(epnum)->DIEPCTL &= ~(USB_OTG_DIEPCTL_EPDIS);
1001:Drivers/STM32F4xx_HAL_Driver/Src/stm32f4xx_ll_usb.c ****     }
ARM GAS  /tmp/ccag9PFX.s 			page 19


1002:Drivers/STM32F4xx_HAL_Driver/Src/stm32f4xx_ll_usb.c ****     USBx_INEP(epnum)->DIEPCTL |= USB_OTG_DIEPCTL_STALL;
1003:Drivers/STM32F4xx_HAL_Driver/Src/stm32f4xx_ll_usb.c ****   }
1004:Drivers/STM32F4xx_HAL_Driver/Src/stm32f4xx_ll_usb.c ****   else
1005:Drivers/STM32F4xx_HAL_Driver/Src/stm32f4xx_ll_usb.c ****   {
1006:Drivers/STM32F4xx_HAL_Driver/Src/stm32f4xx_ll_usb.c ****     if (((USBx_OUTEP(epnum)->DOEPCTL & USB_OTG_DOEPCTL_EPENA) == 0U) && (epnum != 0U))
1007:Drivers/STM32F4xx_HAL_Driver/Src/stm32f4xx_ll_usb.c ****     {
1008:Drivers/STM32F4xx_HAL_Driver/Src/stm32f4xx_ll_usb.c ****       USBx_OUTEP(epnum)->DOEPCTL &= ~(USB_OTG_DOEPCTL_EPDIS);
1009:Drivers/STM32F4xx_HAL_Driver/Src/stm32f4xx_ll_usb.c ****     }
1010:Drivers/STM32F4xx_HAL_Driver/Src/stm32f4xx_ll_usb.c ****     USBx_OUTEP(epnum)->DOEPCTL |= USB_OTG_DOEPCTL_STALL;
1011:Drivers/STM32F4xx_HAL_Driver/Src/stm32f4xx_ll_usb.c ****   }
1012:Drivers/STM32F4xx_HAL_Driver/Src/stm32f4xx_ll_usb.c **** 
1013:Drivers/STM32F4xx_HAL_Driver/Src/stm32f4xx_ll_usb.c ****   return HAL_OK;
1014:Drivers/STM32F4xx_HAL_Driver/Src/stm32f4xx_ll_usb.c **** }
1015:Drivers/STM32F4xx_HAL_Driver/Src/stm32f4xx_ll_usb.c **** 
1016:Drivers/STM32F4xx_HAL_Driver/Src/stm32f4xx_ll_usb.c **** /**
1017:Drivers/STM32F4xx_HAL_Driver/Src/stm32f4xx_ll_usb.c ****   * @brief  USB_EPClearStall : Clear a stall condition over an EP
1018:Drivers/STM32F4xx_HAL_Driver/Src/stm32f4xx_ll_usb.c ****   * @param  USBx  Selected device
1019:Drivers/STM32F4xx_HAL_Driver/Src/stm32f4xx_ll_usb.c ****   * @param  ep pointer to endpoint structure
1020:Drivers/STM32F4xx_HAL_Driver/Src/stm32f4xx_ll_usb.c ****   * @retval HAL status
1021:Drivers/STM32F4xx_HAL_Driver/Src/stm32f4xx_ll_usb.c ****   */
1022:Drivers/STM32F4xx_HAL_Driver/Src/stm32f4xx_ll_usb.c **** HAL_StatusTypeDef USB_EPClearStall(USB_OTG_GlobalTypeDef *USBx, USB_OTG_EPTypeDef *ep)
1023:Drivers/STM32F4xx_HAL_Driver/Src/stm32f4xx_ll_usb.c **** {
1024:Drivers/STM32F4xx_HAL_Driver/Src/stm32f4xx_ll_usb.c ****   uint32_t USBx_BASE = (uint32_t)USBx;
1025:Drivers/STM32F4xx_HAL_Driver/Src/stm32f4xx_ll_usb.c ****   uint32_t epnum = (uint32_t)ep->num;
1026:Drivers/STM32F4xx_HAL_Driver/Src/stm32f4xx_ll_usb.c **** 
1027:Drivers/STM32F4xx_HAL_Driver/Src/stm32f4xx_ll_usb.c ****   if (ep->is_in == 1U)
1028:Drivers/STM32F4xx_HAL_Driver/Src/stm32f4xx_ll_usb.c ****   {
1029:Drivers/STM32F4xx_HAL_Driver/Src/stm32f4xx_ll_usb.c ****     USBx_INEP(epnum)->DIEPCTL &= ~USB_OTG_DIEPCTL_STALL;
1030:Drivers/STM32F4xx_HAL_Driver/Src/stm32f4xx_ll_usb.c ****     if ((ep->type == EP_TYPE_INTR) || (ep->type == EP_TYPE_BULK))
1031:Drivers/STM32F4xx_HAL_Driver/Src/stm32f4xx_ll_usb.c ****     {
1032:Drivers/STM32F4xx_HAL_Driver/Src/stm32f4xx_ll_usb.c ****       USBx_INEP(epnum)->DIEPCTL |= USB_OTG_DIEPCTL_SD0PID_SEVNFRM; /* DATA0 */
1033:Drivers/STM32F4xx_HAL_Driver/Src/stm32f4xx_ll_usb.c ****     }
1034:Drivers/STM32F4xx_HAL_Driver/Src/stm32f4xx_ll_usb.c ****   }
1035:Drivers/STM32F4xx_HAL_Driver/Src/stm32f4xx_ll_usb.c ****   else
1036:Drivers/STM32F4xx_HAL_Driver/Src/stm32f4xx_ll_usb.c ****   {
1037:Drivers/STM32F4xx_HAL_Driver/Src/stm32f4xx_ll_usb.c ****     USBx_OUTEP(epnum)->DOEPCTL &= ~USB_OTG_DOEPCTL_STALL;
1038:Drivers/STM32F4xx_HAL_Driver/Src/stm32f4xx_ll_usb.c ****     if ((ep->type == EP_TYPE_INTR) || (ep->type == EP_TYPE_BULK))
1039:Drivers/STM32F4xx_HAL_Driver/Src/stm32f4xx_ll_usb.c ****     {
1040:Drivers/STM32F4xx_HAL_Driver/Src/stm32f4xx_ll_usb.c ****       USBx_OUTEP(epnum)->DOEPCTL |= USB_OTG_DOEPCTL_SD0PID_SEVNFRM; /* DATA0 */
1041:Drivers/STM32F4xx_HAL_Driver/Src/stm32f4xx_ll_usb.c ****     }
1042:Drivers/STM32F4xx_HAL_Driver/Src/stm32f4xx_ll_usb.c ****   }
1043:Drivers/STM32F4xx_HAL_Driver/Src/stm32f4xx_ll_usb.c ****   return HAL_OK;
1044:Drivers/STM32F4xx_HAL_Driver/Src/stm32f4xx_ll_usb.c **** }
1045:Drivers/STM32F4xx_HAL_Driver/Src/stm32f4xx_ll_usb.c **** 
1046:Drivers/STM32F4xx_HAL_Driver/Src/stm32f4xx_ll_usb.c **** /**
1047:Drivers/STM32F4xx_HAL_Driver/Src/stm32f4xx_ll_usb.c ****   * @brief  USB_StopDevice : Stop the usb device mode
1048:Drivers/STM32F4xx_HAL_Driver/Src/stm32f4xx_ll_usb.c ****   * @param  USBx  Selected device
1049:Drivers/STM32F4xx_HAL_Driver/Src/stm32f4xx_ll_usb.c ****   * @retval HAL status
1050:Drivers/STM32F4xx_HAL_Driver/Src/stm32f4xx_ll_usb.c ****   */
1051:Drivers/STM32F4xx_HAL_Driver/Src/stm32f4xx_ll_usb.c **** HAL_StatusTypeDef USB_StopDevice(USB_OTG_GlobalTypeDef *USBx)
1052:Drivers/STM32F4xx_HAL_Driver/Src/stm32f4xx_ll_usb.c **** {
1053:Drivers/STM32F4xx_HAL_Driver/Src/stm32f4xx_ll_usb.c ****   HAL_StatusTypeDef ret;
1054:Drivers/STM32F4xx_HAL_Driver/Src/stm32f4xx_ll_usb.c ****   uint32_t USBx_BASE = (uint32_t)USBx;
1055:Drivers/STM32F4xx_HAL_Driver/Src/stm32f4xx_ll_usb.c ****   uint32_t i;
1056:Drivers/STM32F4xx_HAL_Driver/Src/stm32f4xx_ll_usb.c **** 
1057:Drivers/STM32F4xx_HAL_Driver/Src/stm32f4xx_ll_usb.c ****   /* Clear Pending interrupt */
1058:Drivers/STM32F4xx_HAL_Driver/Src/stm32f4xx_ll_usb.c ****   for (i = 0U; i < 15U; i++)
ARM GAS  /tmp/ccag9PFX.s 			page 20


1059:Drivers/STM32F4xx_HAL_Driver/Src/stm32f4xx_ll_usb.c ****   {
1060:Drivers/STM32F4xx_HAL_Driver/Src/stm32f4xx_ll_usb.c ****     USBx_INEP(i)->DIEPINT = 0xFB7FU;
1061:Drivers/STM32F4xx_HAL_Driver/Src/stm32f4xx_ll_usb.c ****     USBx_OUTEP(i)->DOEPINT = 0xFB7FU;
1062:Drivers/STM32F4xx_HAL_Driver/Src/stm32f4xx_ll_usb.c ****   }
1063:Drivers/STM32F4xx_HAL_Driver/Src/stm32f4xx_ll_usb.c **** 
1064:Drivers/STM32F4xx_HAL_Driver/Src/stm32f4xx_ll_usb.c ****   /* Clear interrupt masks */
1065:Drivers/STM32F4xx_HAL_Driver/Src/stm32f4xx_ll_usb.c ****   USBx_DEVICE->DIEPMSK  = 0U;
1066:Drivers/STM32F4xx_HAL_Driver/Src/stm32f4xx_ll_usb.c ****   USBx_DEVICE->DOEPMSK  = 0U;
1067:Drivers/STM32F4xx_HAL_Driver/Src/stm32f4xx_ll_usb.c ****   USBx_DEVICE->DAINTMSK = 0U;
1068:Drivers/STM32F4xx_HAL_Driver/Src/stm32f4xx_ll_usb.c **** 
1069:Drivers/STM32F4xx_HAL_Driver/Src/stm32f4xx_ll_usb.c ****   /* Flush the FIFO */
1070:Drivers/STM32F4xx_HAL_Driver/Src/stm32f4xx_ll_usb.c ****   ret = USB_FlushRxFifo(USBx);
1071:Drivers/STM32F4xx_HAL_Driver/Src/stm32f4xx_ll_usb.c ****   if (ret != HAL_OK)
1072:Drivers/STM32F4xx_HAL_Driver/Src/stm32f4xx_ll_usb.c ****   {
1073:Drivers/STM32F4xx_HAL_Driver/Src/stm32f4xx_ll_usb.c ****     return ret;
1074:Drivers/STM32F4xx_HAL_Driver/Src/stm32f4xx_ll_usb.c ****   }
1075:Drivers/STM32F4xx_HAL_Driver/Src/stm32f4xx_ll_usb.c **** 
1076:Drivers/STM32F4xx_HAL_Driver/Src/stm32f4xx_ll_usb.c ****   ret = USB_FlushTxFifo(USBx,  0x10U);
1077:Drivers/STM32F4xx_HAL_Driver/Src/stm32f4xx_ll_usb.c ****   if (ret != HAL_OK)
1078:Drivers/STM32F4xx_HAL_Driver/Src/stm32f4xx_ll_usb.c ****   {
1079:Drivers/STM32F4xx_HAL_Driver/Src/stm32f4xx_ll_usb.c ****     return ret;
1080:Drivers/STM32F4xx_HAL_Driver/Src/stm32f4xx_ll_usb.c ****   }
1081:Drivers/STM32F4xx_HAL_Driver/Src/stm32f4xx_ll_usb.c **** 
1082:Drivers/STM32F4xx_HAL_Driver/Src/stm32f4xx_ll_usb.c ****   return ret;
1083:Drivers/STM32F4xx_HAL_Driver/Src/stm32f4xx_ll_usb.c **** }
1084:Drivers/STM32F4xx_HAL_Driver/Src/stm32f4xx_ll_usb.c **** 
1085:Drivers/STM32F4xx_HAL_Driver/Src/stm32f4xx_ll_usb.c **** /**
1086:Drivers/STM32F4xx_HAL_Driver/Src/stm32f4xx_ll_usb.c ****   * @brief  USB_SetDevAddress : Stop the usb device mode
1087:Drivers/STM32F4xx_HAL_Driver/Src/stm32f4xx_ll_usb.c ****   * @param  USBx  Selected device
1088:Drivers/STM32F4xx_HAL_Driver/Src/stm32f4xx_ll_usb.c ****   * @param  address  new device address to be assigned
1089:Drivers/STM32F4xx_HAL_Driver/Src/stm32f4xx_ll_usb.c ****   *          This parameter can be a value from 0 to 255
1090:Drivers/STM32F4xx_HAL_Driver/Src/stm32f4xx_ll_usb.c ****   * @retval HAL status
1091:Drivers/STM32F4xx_HAL_Driver/Src/stm32f4xx_ll_usb.c ****   */
1092:Drivers/STM32F4xx_HAL_Driver/Src/stm32f4xx_ll_usb.c **** HAL_StatusTypeDef  USB_SetDevAddress(USB_OTG_GlobalTypeDef *USBx, uint8_t address)
1093:Drivers/STM32F4xx_HAL_Driver/Src/stm32f4xx_ll_usb.c **** {
1094:Drivers/STM32F4xx_HAL_Driver/Src/stm32f4xx_ll_usb.c ****   uint32_t USBx_BASE = (uint32_t)USBx;
1095:Drivers/STM32F4xx_HAL_Driver/Src/stm32f4xx_ll_usb.c **** 
1096:Drivers/STM32F4xx_HAL_Driver/Src/stm32f4xx_ll_usb.c ****   USBx_DEVICE->DCFG &= ~(USB_OTG_DCFG_DAD);
1097:Drivers/STM32F4xx_HAL_Driver/Src/stm32f4xx_ll_usb.c ****   USBx_DEVICE->DCFG |= ((uint32_t)address << 4) & USB_OTG_DCFG_DAD;
1098:Drivers/STM32F4xx_HAL_Driver/Src/stm32f4xx_ll_usb.c **** 
1099:Drivers/STM32F4xx_HAL_Driver/Src/stm32f4xx_ll_usb.c ****   return HAL_OK;
1100:Drivers/STM32F4xx_HAL_Driver/Src/stm32f4xx_ll_usb.c **** }
1101:Drivers/STM32F4xx_HAL_Driver/Src/stm32f4xx_ll_usb.c **** 
1102:Drivers/STM32F4xx_HAL_Driver/Src/stm32f4xx_ll_usb.c **** /**
1103:Drivers/STM32F4xx_HAL_Driver/Src/stm32f4xx_ll_usb.c ****   * @brief  USB_DevConnect : Connect the USB device by enabling the pull-up/pull-down
1104:Drivers/STM32F4xx_HAL_Driver/Src/stm32f4xx_ll_usb.c ****   * @param  USBx  Selected device
1105:Drivers/STM32F4xx_HAL_Driver/Src/stm32f4xx_ll_usb.c ****   * @retval HAL status
1106:Drivers/STM32F4xx_HAL_Driver/Src/stm32f4xx_ll_usb.c ****   */
1107:Drivers/STM32F4xx_HAL_Driver/Src/stm32f4xx_ll_usb.c **** HAL_StatusTypeDef  USB_DevConnect(USB_OTG_GlobalTypeDef *USBx)
1108:Drivers/STM32F4xx_HAL_Driver/Src/stm32f4xx_ll_usb.c **** {
1109:Drivers/STM32F4xx_HAL_Driver/Src/stm32f4xx_ll_usb.c ****   uint32_t USBx_BASE = (uint32_t)USBx;
1110:Drivers/STM32F4xx_HAL_Driver/Src/stm32f4xx_ll_usb.c **** 
1111:Drivers/STM32F4xx_HAL_Driver/Src/stm32f4xx_ll_usb.c ****   USBx_DEVICE->DCTL &= ~USB_OTG_DCTL_SDIS;
1112:Drivers/STM32F4xx_HAL_Driver/Src/stm32f4xx_ll_usb.c ****   HAL_Delay(3U);
1113:Drivers/STM32F4xx_HAL_Driver/Src/stm32f4xx_ll_usb.c **** 
1114:Drivers/STM32F4xx_HAL_Driver/Src/stm32f4xx_ll_usb.c ****   return HAL_OK;
1115:Drivers/STM32F4xx_HAL_Driver/Src/stm32f4xx_ll_usb.c **** }
ARM GAS  /tmp/ccag9PFX.s 			page 21


1116:Drivers/STM32F4xx_HAL_Driver/Src/stm32f4xx_ll_usb.c **** 
1117:Drivers/STM32F4xx_HAL_Driver/Src/stm32f4xx_ll_usb.c **** /**
1118:Drivers/STM32F4xx_HAL_Driver/Src/stm32f4xx_ll_usb.c ****   * @brief  USB_DevDisconnect : Disconnect the USB device by disabling the pull-up/pull-down
1119:Drivers/STM32F4xx_HAL_Driver/Src/stm32f4xx_ll_usb.c ****   * @param  USBx  Selected device
1120:Drivers/STM32F4xx_HAL_Driver/Src/stm32f4xx_ll_usb.c ****   * @retval HAL status
1121:Drivers/STM32F4xx_HAL_Driver/Src/stm32f4xx_ll_usb.c ****   */
1122:Drivers/STM32F4xx_HAL_Driver/Src/stm32f4xx_ll_usb.c **** HAL_StatusTypeDef  USB_DevDisconnect(USB_OTG_GlobalTypeDef *USBx)
1123:Drivers/STM32F4xx_HAL_Driver/Src/stm32f4xx_ll_usb.c **** {
1124:Drivers/STM32F4xx_HAL_Driver/Src/stm32f4xx_ll_usb.c ****   uint32_t USBx_BASE = (uint32_t)USBx;
1125:Drivers/STM32F4xx_HAL_Driver/Src/stm32f4xx_ll_usb.c **** 
1126:Drivers/STM32F4xx_HAL_Driver/Src/stm32f4xx_ll_usb.c ****   USBx_DEVICE->DCTL |= USB_OTG_DCTL_SDIS;
1127:Drivers/STM32F4xx_HAL_Driver/Src/stm32f4xx_ll_usb.c ****   HAL_Delay(3U);
1128:Drivers/STM32F4xx_HAL_Driver/Src/stm32f4xx_ll_usb.c **** 
1129:Drivers/STM32F4xx_HAL_Driver/Src/stm32f4xx_ll_usb.c ****   return HAL_OK;
1130:Drivers/STM32F4xx_HAL_Driver/Src/stm32f4xx_ll_usb.c **** }
1131:Drivers/STM32F4xx_HAL_Driver/Src/stm32f4xx_ll_usb.c **** 
1132:Drivers/STM32F4xx_HAL_Driver/Src/stm32f4xx_ll_usb.c **** /**
1133:Drivers/STM32F4xx_HAL_Driver/Src/stm32f4xx_ll_usb.c ****   * @brief  USB_ReadInterrupts: return the global USB interrupt status
1134:Drivers/STM32F4xx_HAL_Driver/Src/stm32f4xx_ll_usb.c ****   * @param  USBx  Selected device
1135:Drivers/STM32F4xx_HAL_Driver/Src/stm32f4xx_ll_usb.c ****   * @retval HAL status
1136:Drivers/STM32F4xx_HAL_Driver/Src/stm32f4xx_ll_usb.c ****   */
1137:Drivers/STM32F4xx_HAL_Driver/Src/stm32f4xx_ll_usb.c **** uint32_t  USB_ReadInterrupts(USB_OTG_GlobalTypeDef *USBx)
1138:Drivers/STM32F4xx_HAL_Driver/Src/stm32f4xx_ll_usb.c **** {
1139:Drivers/STM32F4xx_HAL_Driver/Src/stm32f4xx_ll_usb.c ****   uint32_t tmpreg;
1140:Drivers/STM32F4xx_HAL_Driver/Src/stm32f4xx_ll_usb.c **** 
1141:Drivers/STM32F4xx_HAL_Driver/Src/stm32f4xx_ll_usb.c ****   tmpreg = USBx->GINTSTS;
1142:Drivers/STM32F4xx_HAL_Driver/Src/stm32f4xx_ll_usb.c ****   tmpreg &= USBx->GINTMSK;
1143:Drivers/STM32F4xx_HAL_Driver/Src/stm32f4xx_ll_usb.c **** 
1144:Drivers/STM32F4xx_HAL_Driver/Src/stm32f4xx_ll_usb.c ****   return tmpreg;
1145:Drivers/STM32F4xx_HAL_Driver/Src/stm32f4xx_ll_usb.c **** }
1146:Drivers/STM32F4xx_HAL_Driver/Src/stm32f4xx_ll_usb.c **** 
1147:Drivers/STM32F4xx_HAL_Driver/Src/stm32f4xx_ll_usb.c **** /**
1148:Drivers/STM32F4xx_HAL_Driver/Src/stm32f4xx_ll_usb.c ****   * @brief  USB_ReadDevAllOutEpInterrupt: return the USB device OUT endpoints interrupt status
1149:Drivers/STM32F4xx_HAL_Driver/Src/stm32f4xx_ll_usb.c ****   * @param  USBx  Selected device
1150:Drivers/STM32F4xx_HAL_Driver/Src/stm32f4xx_ll_usb.c ****   * @retval HAL status
1151:Drivers/STM32F4xx_HAL_Driver/Src/stm32f4xx_ll_usb.c ****   */
1152:Drivers/STM32F4xx_HAL_Driver/Src/stm32f4xx_ll_usb.c **** uint32_t USB_ReadDevAllOutEpInterrupt(USB_OTG_GlobalTypeDef *USBx)
1153:Drivers/STM32F4xx_HAL_Driver/Src/stm32f4xx_ll_usb.c **** {
1154:Drivers/STM32F4xx_HAL_Driver/Src/stm32f4xx_ll_usb.c ****   uint32_t USBx_BASE = (uint32_t)USBx;
1155:Drivers/STM32F4xx_HAL_Driver/Src/stm32f4xx_ll_usb.c ****   uint32_t tmpreg;
1156:Drivers/STM32F4xx_HAL_Driver/Src/stm32f4xx_ll_usb.c **** 
1157:Drivers/STM32F4xx_HAL_Driver/Src/stm32f4xx_ll_usb.c ****   tmpreg  = USBx_DEVICE->DAINT;
1158:Drivers/STM32F4xx_HAL_Driver/Src/stm32f4xx_ll_usb.c ****   tmpreg &= USBx_DEVICE->DAINTMSK;
1159:Drivers/STM32F4xx_HAL_Driver/Src/stm32f4xx_ll_usb.c **** 
1160:Drivers/STM32F4xx_HAL_Driver/Src/stm32f4xx_ll_usb.c ****   return ((tmpreg & 0xffff0000U) >> 16);
1161:Drivers/STM32F4xx_HAL_Driver/Src/stm32f4xx_ll_usb.c **** }
1162:Drivers/STM32F4xx_HAL_Driver/Src/stm32f4xx_ll_usb.c **** 
1163:Drivers/STM32F4xx_HAL_Driver/Src/stm32f4xx_ll_usb.c **** /**
1164:Drivers/STM32F4xx_HAL_Driver/Src/stm32f4xx_ll_usb.c ****   * @brief  USB_ReadDevAllInEpInterrupt: return the USB device IN endpoints interrupt status
1165:Drivers/STM32F4xx_HAL_Driver/Src/stm32f4xx_ll_usb.c ****   * @param  USBx  Selected device
1166:Drivers/STM32F4xx_HAL_Driver/Src/stm32f4xx_ll_usb.c ****   * @retval HAL status
1167:Drivers/STM32F4xx_HAL_Driver/Src/stm32f4xx_ll_usb.c ****   */
1168:Drivers/STM32F4xx_HAL_Driver/Src/stm32f4xx_ll_usb.c **** uint32_t USB_ReadDevAllInEpInterrupt(USB_OTG_GlobalTypeDef *USBx)
1169:Drivers/STM32F4xx_HAL_Driver/Src/stm32f4xx_ll_usb.c **** {
1170:Drivers/STM32F4xx_HAL_Driver/Src/stm32f4xx_ll_usb.c ****   uint32_t USBx_BASE = (uint32_t)USBx;
1171:Drivers/STM32F4xx_HAL_Driver/Src/stm32f4xx_ll_usb.c ****   uint32_t tmpreg;
1172:Drivers/STM32F4xx_HAL_Driver/Src/stm32f4xx_ll_usb.c **** 
ARM GAS  /tmp/ccag9PFX.s 			page 22


1173:Drivers/STM32F4xx_HAL_Driver/Src/stm32f4xx_ll_usb.c ****   tmpreg  = USBx_DEVICE->DAINT;
1174:Drivers/STM32F4xx_HAL_Driver/Src/stm32f4xx_ll_usb.c ****   tmpreg &= USBx_DEVICE->DAINTMSK;
1175:Drivers/STM32F4xx_HAL_Driver/Src/stm32f4xx_ll_usb.c **** 
1176:Drivers/STM32F4xx_HAL_Driver/Src/stm32f4xx_ll_usb.c ****   return ((tmpreg & 0xFFFFU));
1177:Drivers/STM32F4xx_HAL_Driver/Src/stm32f4xx_ll_usb.c **** }
1178:Drivers/STM32F4xx_HAL_Driver/Src/stm32f4xx_ll_usb.c **** 
1179:Drivers/STM32F4xx_HAL_Driver/Src/stm32f4xx_ll_usb.c **** /**
1180:Drivers/STM32F4xx_HAL_Driver/Src/stm32f4xx_ll_usb.c ****   * @brief  Returns Device OUT EP Interrupt register
1181:Drivers/STM32F4xx_HAL_Driver/Src/stm32f4xx_ll_usb.c ****   * @param  USBx  Selected device
1182:Drivers/STM32F4xx_HAL_Driver/Src/stm32f4xx_ll_usb.c ****   * @param  epnum  endpoint number
1183:Drivers/STM32F4xx_HAL_Driver/Src/stm32f4xx_ll_usb.c ****   *          This parameter can be a value from 0 to 15
1184:Drivers/STM32F4xx_HAL_Driver/Src/stm32f4xx_ll_usb.c ****   * @retval Device OUT EP Interrupt register
1185:Drivers/STM32F4xx_HAL_Driver/Src/stm32f4xx_ll_usb.c ****   */
1186:Drivers/STM32F4xx_HAL_Driver/Src/stm32f4xx_ll_usb.c **** uint32_t USB_ReadDevOutEPInterrupt(USB_OTG_GlobalTypeDef *USBx, uint8_t epnum)
1187:Drivers/STM32F4xx_HAL_Driver/Src/stm32f4xx_ll_usb.c **** {
1188:Drivers/STM32F4xx_HAL_Driver/Src/stm32f4xx_ll_usb.c ****   uint32_t USBx_BASE = (uint32_t)USBx;
1189:Drivers/STM32F4xx_HAL_Driver/Src/stm32f4xx_ll_usb.c ****   uint32_t tmpreg;
1190:Drivers/STM32F4xx_HAL_Driver/Src/stm32f4xx_ll_usb.c **** 
1191:Drivers/STM32F4xx_HAL_Driver/Src/stm32f4xx_ll_usb.c ****   tmpreg  = USBx_OUTEP((uint32_t)epnum)->DOEPINT;
1192:Drivers/STM32F4xx_HAL_Driver/Src/stm32f4xx_ll_usb.c ****   tmpreg &= USBx_DEVICE->DOEPMSK;
1193:Drivers/STM32F4xx_HAL_Driver/Src/stm32f4xx_ll_usb.c **** 
1194:Drivers/STM32F4xx_HAL_Driver/Src/stm32f4xx_ll_usb.c ****   return tmpreg;
1195:Drivers/STM32F4xx_HAL_Driver/Src/stm32f4xx_ll_usb.c **** }
1196:Drivers/STM32F4xx_HAL_Driver/Src/stm32f4xx_ll_usb.c **** 
1197:Drivers/STM32F4xx_HAL_Driver/Src/stm32f4xx_ll_usb.c **** /**
1198:Drivers/STM32F4xx_HAL_Driver/Src/stm32f4xx_ll_usb.c ****   * @brief  Returns Device IN EP Interrupt register
1199:Drivers/STM32F4xx_HAL_Driver/Src/stm32f4xx_ll_usb.c ****   * @param  USBx  Selected device
1200:Drivers/STM32F4xx_HAL_Driver/Src/stm32f4xx_ll_usb.c ****   * @param  epnum  endpoint number
1201:Drivers/STM32F4xx_HAL_Driver/Src/stm32f4xx_ll_usb.c ****   *          This parameter can be a value from 0 to 15
1202:Drivers/STM32F4xx_HAL_Driver/Src/stm32f4xx_ll_usb.c ****   * @retval Device IN EP Interrupt register
1203:Drivers/STM32F4xx_HAL_Driver/Src/stm32f4xx_ll_usb.c ****   */
1204:Drivers/STM32F4xx_HAL_Driver/Src/stm32f4xx_ll_usb.c **** uint32_t USB_ReadDevInEPInterrupt(USB_OTG_GlobalTypeDef *USBx, uint8_t epnum)
1205:Drivers/STM32F4xx_HAL_Driver/Src/stm32f4xx_ll_usb.c **** {
1206:Drivers/STM32F4xx_HAL_Driver/Src/stm32f4xx_ll_usb.c ****   uint32_t USBx_BASE = (uint32_t)USBx;
1207:Drivers/STM32F4xx_HAL_Driver/Src/stm32f4xx_ll_usb.c ****   uint32_t tmpreg, msk, emp;
1208:Drivers/STM32F4xx_HAL_Driver/Src/stm32f4xx_ll_usb.c **** 
1209:Drivers/STM32F4xx_HAL_Driver/Src/stm32f4xx_ll_usb.c ****   msk = USBx_DEVICE->DIEPMSK;
1210:Drivers/STM32F4xx_HAL_Driver/Src/stm32f4xx_ll_usb.c ****   emp = USBx_DEVICE->DIEPEMPMSK;
1211:Drivers/STM32F4xx_HAL_Driver/Src/stm32f4xx_ll_usb.c ****   msk |= ((emp >> (epnum & EP_ADDR_MSK)) & 0x1U) << 7;
1212:Drivers/STM32F4xx_HAL_Driver/Src/stm32f4xx_ll_usb.c ****   tmpreg = USBx_INEP((uint32_t)epnum)->DIEPINT & msk;
1213:Drivers/STM32F4xx_HAL_Driver/Src/stm32f4xx_ll_usb.c **** 
1214:Drivers/STM32F4xx_HAL_Driver/Src/stm32f4xx_ll_usb.c ****   return tmpreg;
1215:Drivers/STM32F4xx_HAL_Driver/Src/stm32f4xx_ll_usb.c **** }
1216:Drivers/STM32F4xx_HAL_Driver/Src/stm32f4xx_ll_usb.c **** 
1217:Drivers/STM32F4xx_HAL_Driver/Src/stm32f4xx_ll_usb.c **** /**
1218:Drivers/STM32F4xx_HAL_Driver/Src/stm32f4xx_ll_usb.c ****   * @brief  USB_ClearInterrupts: clear a USB interrupt
1219:Drivers/STM32F4xx_HAL_Driver/Src/stm32f4xx_ll_usb.c ****   * @param  USBx  Selected device
1220:Drivers/STM32F4xx_HAL_Driver/Src/stm32f4xx_ll_usb.c ****   * @param  interrupt  interrupt flag
1221:Drivers/STM32F4xx_HAL_Driver/Src/stm32f4xx_ll_usb.c ****   * @retval None
1222:Drivers/STM32F4xx_HAL_Driver/Src/stm32f4xx_ll_usb.c ****   */
1223:Drivers/STM32F4xx_HAL_Driver/Src/stm32f4xx_ll_usb.c **** void  USB_ClearInterrupts(USB_OTG_GlobalTypeDef *USBx, uint32_t interrupt)
1224:Drivers/STM32F4xx_HAL_Driver/Src/stm32f4xx_ll_usb.c **** {
1225:Drivers/STM32F4xx_HAL_Driver/Src/stm32f4xx_ll_usb.c ****   USBx->GINTSTS |= interrupt;
1226:Drivers/STM32F4xx_HAL_Driver/Src/stm32f4xx_ll_usb.c **** }
1227:Drivers/STM32F4xx_HAL_Driver/Src/stm32f4xx_ll_usb.c **** 
1228:Drivers/STM32F4xx_HAL_Driver/Src/stm32f4xx_ll_usb.c **** /**
1229:Drivers/STM32F4xx_HAL_Driver/Src/stm32f4xx_ll_usb.c ****   * @brief  Returns USB core mode
ARM GAS  /tmp/ccag9PFX.s 			page 23


1230:Drivers/STM32F4xx_HAL_Driver/Src/stm32f4xx_ll_usb.c ****   * @param  USBx  Selected device
1231:Drivers/STM32F4xx_HAL_Driver/Src/stm32f4xx_ll_usb.c ****   * @retval return core mode : Host or Device
1232:Drivers/STM32F4xx_HAL_Driver/Src/stm32f4xx_ll_usb.c ****   *          This parameter can be one of these values:
1233:Drivers/STM32F4xx_HAL_Driver/Src/stm32f4xx_ll_usb.c ****   *           0 : Host
1234:Drivers/STM32F4xx_HAL_Driver/Src/stm32f4xx_ll_usb.c ****   *           1 : Device
1235:Drivers/STM32F4xx_HAL_Driver/Src/stm32f4xx_ll_usb.c ****   */
1236:Drivers/STM32F4xx_HAL_Driver/Src/stm32f4xx_ll_usb.c **** uint32_t USB_GetMode(USB_OTG_GlobalTypeDef *USBx)
1237:Drivers/STM32F4xx_HAL_Driver/Src/stm32f4xx_ll_usb.c **** {
1238:Drivers/STM32F4xx_HAL_Driver/Src/stm32f4xx_ll_usb.c ****   return ((USBx->GINTSTS) & 0x1U);
1239:Drivers/STM32F4xx_HAL_Driver/Src/stm32f4xx_ll_usb.c **** }
1240:Drivers/STM32F4xx_HAL_Driver/Src/stm32f4xx_ll_usb.c **** 
1241:Drivers/STM32F4xx_HAL_Driver/Src/stm32f4xx_ll_usb.c **** /**
1242:Drivers/STM32F4xx_HAL_Driver/Src/stm32f4xx_ll_usb.c ****   * @brief  Activate EP0 for Setup transactions
1243:Drivers/STM32F4xx_HAL_Driver/Src/stm32f4xx_ll_usb.c ****   * @param  USBx  Selected device
1244:Drivers/STM32F4xx_HAL_Driver/Src/stm32f4xx_ll_usb.c ****   * @retval HAL status
1245:Drivers/STM32F4xx_HAL_Driver/Src/stm32f4xx_ll_usb.c ****   */
1246:Drivers/STM32F4xx_HAL_Driver/Src/stm32f4xx_ll_usb.c **** HAL_StatusTypeDef  USB_ActivateSetup(USB_OTG_GlobalTypeDef *USBx)
1247:Drivers/STM32F4xx_HAL_Driver/Src/stm32f4xx_ll_usb.c **** {
1248:Drivers/STM32F4xx_HAL_Driver/Src/stm32f4xx_ll_usb.c ****   uint32_t USBx_BASE = (uint32_t)USBx;
1249:Drivers/STM32F4xx_HAL_Driver/Src/stm32f4xx_ll_usb.c **** 
1250:Drivers/STM32F4xx_HAL_Driver/Src/stm32f4xx_ll_usb.c ****   /* Set the MPS of the IN EP based on the enumeration speed */
1251:Drivers/STM32F4xx_HAL_Driver/Src/stm32f4xx_ll_usb.c ****   USBx_INEP(0U)->DIEPCTL &= ~USB_OTG_DIEPCTL_MPSIZ;
1252:Drivers/STM32F4xx_HAL_Driver/Src/stm32f4xx_ll_usb.c **** 
1253:Drivers/STM32F4xx_HAL_Driver/Src/stm32f4xx_ll_usb.c ****   if ((USBx_DEVICE->DSTS & USB_OTG_DSTS_ENUMSPD) == DSTS_ENUMSPD_LS_PHY_6MHZ)
1254:Drivers/STM32F4xx_HAL_Driver/Src/stm32f4xx_ll_usb.c ****   {
1255:Drivers/STM32F4xx_HAL_Driver/Src/stm32f4xx_ll_usb.c ****     USBx_INEP(0U)->DIEPCTL |= 3U;
1256:Drivers/STM32F4xx_HAL_Driver/Src/stm32f4xx_ll_usb.c ****   }
1257:Drivers/STM32F4xx_HAL_Driver/Src/stm32f4xx_ll_usb.c ****   USBx_DEVICE->DCTL |= USB_OTG_DCTL_CGINAK;
1258:Drivers/STM32F4xx_HAL_Driver/Src/stm32f4xx_ll_usb.c **** 
1259:Drivers/STM32F4xx_HAL_Driver/Src/stm32f4xx_ll_usb.c ****   return HAL_OK;
1260:Drivers/STM32F4xx_HAL_Driver/Src/stm32f4xx_ll_usb.c **** }
1261:Drivers/STM32F4xx_HAL_Driver/Src/stm32f4xx_ll_usb.c **** 
1262:Drivers/STM32F4xx_HAL_Driver/Src/stm32f4xx_ll_usb.c **** /**
1263:Drivers/STM32F4xx_HAL_Driver/Src/stm32f4xx_ll_usb.c ****   * @brief  Prepare the EP0 to start the first control setup
1264:Drivers/STM32F4xx_HAL_Driver/Src/stm32f4xx_ll_usb.c ****   * @param  USBx  Selected device
1265:Drivers/STM32F4xx_HAL_Driver/Src/stm32f4xx_ll_usb.c ****   * @param  dma USB dma enabled or disabled
1266:Drivers/STM32F4xx_HAL_Driver/Src/stm32f4xx_ll_usb.c ****   *          This parameter can be one of these values:
1267:Drivers/STM32F4xx_HAL_Driver/Src/stm32f4xx_ll_usb.c ****   *           0 : DMA feature not used
1268:Drivers/STM32F4xx_HAL_Driver/Src/stm32f4xx_ll_usb.c ****   *           1 : DMA feature used
1269:Drivers/STM32F4xx_HAL_Driver/Src/stm32f4xx_ll_usb.c ****   * @param  psetup  pointer to setup packet
1270:Drivers/STM32F4xx_HAL_Driver/Src/stm32f4xx_ll_usb.c ****   * @retval HAL status
1271:Drivers/STM32F4xx_HAL_Driver/Src/stm32f4xx_ll_usb.c ****   */
1272:Drivers/STM32F4xx_HAL_Driver/Src/stm32f4xx_ll_usb.c **** HAL_StatusTypeDef USB_EP0_OutStart(USB_OTG_GlobalTypeDef *USBx, uint8_t dma, uint8_t *psetup)
1273:Drivers/STM32F4xx_HAL_Driver/Src/stm32f4xx_ll_usb.c **** {
1274:Drivers/STM32F4xx_HAL_Driver/Src/stm32f4xx_ll_usb.c ****   uint32_t USBx_BASE = (uint32_t)USBx;
1275:Drivers/STM32F4xx_HAL_Driver/Src/stm32f4xx_ll_usb.c ****   uint32_t gSNPSiD = *(__IO uint32_t *)(&USBx->CID + 0x1U);
1276:Drivers/STM32F4xx_HAL_Driver/Src/stm32f4xx_ll_usb.c **** 
1277:Drivers/STM32F4xx_HAL_Driver/Src/stm32f4xx_ll_usb.c ****   if (gSNPSiD > USB_OTG_CORE_ID_300A)
1278:Drivers/STM32F4xx_HAL_Driver/Src/stm32f4xx_ll_usb.c ****   {
1279:Drivers/STM32F4xx_HAL_Driver/Src/stm32f4xx_ll_usb.c ****     if ((USBx_OUTEP(0U)->DOEPCTL & USB_OTG_DOEPCTL_EPENA) == USB_OTG_DOEPCTL_EPENA)
1280:Drivers/STM32F4xx_HAL_Driver/Src/stm32f4xx_ll_usb.c ****     {
1281:Drivers/STM32F4xx_HAL_Driver/Src/stm32f4xx_ll_usb.c ****       return HAL_OK;
1282:Drivers/STM32F4xx_HAL_Driver/Src/stm32f4xx_ll_usb.c ****     }
1283:Drivers/STM32F4xx_HAL_Driver/Src/stm32f4xx_ll_usb.c ****   }
1284:Drivers/STM32F4xx_HAL_Driver/Src/stm32f4xx_ll_usb.c **** 
1285:Drivers/STM32F4xx_HAL_Driver/Src/stm32f4xx_ll_usb.c ****   USBx_OUTEP(0U)->DOEPTSIZ = 0U;
1286:Drivers/STM32F4xx_HAL_Driver/Src/stm32f4xx_ll_usb.c ****   USBx_OUTEP(0U)->DOEPTSIZ |= (USB_OTG_DOEPTSIZ_PKTCNT & (1U << 19));
ARM GAS  /tmp/ccag9PFX.s 			page 24


1287:Drivers/STM32F4xx_HAL_Driver/Src/stm32f4xx_ll_usb.c ****   USBx_OUTEP(0U)->DOEPTSIZ |= (3U * 8U);
1288:Drivers/STM32F4xx_HAL_Driver/Src/stm32f4xx_ll_usb.c ****   USBx_OUTEP(0U)->DOEPTSIZ |=  USB_OTG_DOEPTSIZ_STUPCNT;
1289:Drivers/STM32F4xx_HAL_Driver/Src/stm32f4xx_ll_usb.c **** 
1290:Drivers/STM32F4xx_HAL_Driver/Src/stm32f4xx_ll_usb.c ****   if (dma == 1U)
1291:Drivers/STM32F4xx_HAL_Driver/Src/stm32f4xx_ll_usb.c ****   {
1292:Drivers/STM32F4xx_HAL_Driver/Src/stm32f4xx_ll_usb.c ****     USBx_OUTEP(0U)->DOEPDMA = (uint32_t)psetup;
1293:Drivers/STM32F4xx_HAL_Driver/Src/stm32f4xx_ll_usb.c ****     /* EP enable */
1294:Drivers/STM32F4xx_HAL_Driver/Src/stm32f4xx_ll_usb.c ****     USBx_OUTEP(0U)->DOEPCTL |= USB_OTG_DOEPCTL_EPENA | USB_OTG_DOEPCTL_USBAEP;
1295:Drivers/STM32F4xx_HAL_Driver/Src/stm32f4xx_ll_usb.c ****   }
1296:Drivers/STM32F4xx_HAL_Driver/Src/stm32f4xx_ll_usb.c **** 
1297:Drivers/STM32F4xx_HAL_Driver/Src/stm32f4xx_ll_usb.c ****   return HAL_OK;
1298:Drivers/STM32F4xx_HAL_Driver/Src/stm32f4xx_ll_usb.c **** }
1299:Drivers/STM32F4xx_HAL_Driver/Src/stm32f4xx_ll_usb.c **** 
1300:Drivers/STM32F4xx_HAL_Driver/Src/stm32f4xx_ll_usb.c **** /**
1301:Drivers/STM32F4xx_HAL_Driver/Src/stm32f4xx_ll_usb.c ****   * @brief  Reset the USB Core (needed after USB clock settings change)
1302:Drivers/STM32F4xx_HAL_Driver/Src/stm32f4xx_ll_usb.c ****   * @param  USBx  Selected device
1303:Drivers/STM32F4xx_HAL_Driver/Src/stm32f4xx_ll_usb.c ****   * @retval HAL status
1304:Drivers/STM32F4xx_HAL_Driver/Src/stm32f4xx_ll_usb.c ****   */
1305:Drivers/STM32F4xx_HAL_Driver/Src/stm32f4xx_ll_usb.c **** static HAL_StatusTypeDef USB_CoreReset(USB_OTG_GlobalTypeDef *USBx)
1306:Drivers/STM32F4xx_HAL_Driver/Src/stm32f4xx_ll_usb.c **** {
  27              		.loc 1 1306 0
  28              		.cfi_startproc
  29              		@ args = 0, pretend = 0, frame = 0
  30              		@ frame_needed = 0, uses_anonymous_args = 0
  31              		@ link register save eliminated.
  32              	.LVL0:
1307:Drivers/STM32F4xx_HAL_Driver/Src/stm32f4xx_ll_usb.c ****   uint32_t count = 0U;
  33              		.loc 1 1307 0
  34 0000 0023     		movs	r3, #0
  35              	.LVL1:
  36              	.L3:
1308:Drivers/STM32F4xx_HAL_Driver/Src/stm32f4xx_ll_usb.c **** 
1309:Drivers/STM32F4xx_HAL_Driver/Src/stm32f4xx_ll_usb.c ****   /* Wait for AHB master IDLE state. */
1310:Drivers/STM32F4xx_HAL_Driver/Src/stm32f4xx_ll_usb.c ****   do
1311:Drivers/STM32F4xx_HAL_Driver/Src/stm32f4xx_ll_usb.c ****   {
1312:Drivers/STM32F4xx_HAL_Driver/Src/stm32f4xx_ll_usb.c ****     if (++count > 200000U)
  37              		.loc 1 1312 0
  38 0002 0133     		adds	r3, r3, #1
  39              	.LVL2:
  40 0004 0C4A     		ldr	r2, .L7
  41 0006 9342     		cmp	r3, r2
  42 0008 11D8     		bhi	.L5
1313:Drivers/STM32F4xx_HAL_Driver/Src/stm32f4xx_ll_usb.c ****     {
1314:Drivers/STM32F4xx_HAL_Driver/Src/stm32f4xx_ll_usb.c ****       return HAL_TIMEOUT;
1315:Drivers/STM32F4xx_HAL_Driver/Src/stm32f4xx_ll_usb.c ****     }
1316:Drivers/STM32F4xx_HAL_Driver/Src/stm32f4xx_ll_usb.c ****   }
1317:Drivers/STM32F4xx_HAL_Driver/Src/stm32f4xx_ll_usb.c ****   while ((USBx->GRSTCTL & USB_OTG_GRSTCTL_AHBIDL) == 0U);
  43              		.loc 1 1317 0
  44 000a 0269     		ldr	r2, [r0, #16]
  45 000c 002A     		cmp	r2, #0
  46 000e F8DA     		bge	.L3
  47              	.LVL3:
1318:Drivers/STM32F4xx_HAL_Driver/Src/stm32f4xx_ll_usb.c **** 
1319:Drivers/STM32F4xx_HAL_Driver/Src/stm32f4xx_ll_usb.c ****   /* Core Soft Reset */
1320:Drivers/STM32F4xx_HAL_Driver/Src/stm32f4xx_ll_usb.c ****   count = 0U;
1321:Drivers/STM32F4xx_HAL_Driver/Src/stm32f4xx_ll_usb.c ****   USBx->GRSTCTL |= USB_OTG_GRSTCTL_CSRST;
  48              		.loc 1 1321 0
ARM GAS  /tmp/ccag9PFX.s 			page 25


  49 0010 0369     		ldr	r3, [r0, #16]
  50 0012 43F00103 		orr	r3, r3, #1
  51 0016 0361     		str	r3, [r0, #16]
1320:Drivers/STM32F4xx_HAL_Driver/Src/stm32f4xx_ll_usb.c ****   USBx->GRSTCTL |= USB_OTG_GRSTCTL_CSRST;
  52              		.loc 1 1320 0
  53 0018 0023     		movs	r3, #0
  54              	.LVL4:
  55              	.L4:
1322:Drivers/STM32F4xx_HAL_Driver/Src/stm32f4xx_ll_usb.c **** 
1323:Drivers/STM32F4xx_HAL_Driver/Src/stm32f4xx_ll_usb.c ****   do
1324:Drivers/STM32F4xx_HAL_Driver/Src/stm32f4xx_ll_usb.c ****   {
1325:Drivers/STM32F4xx_HAL_Driver/Src/stm32f4xx_ll_usb.c ****     if (++count > 200000U)
  56              		.loc 1 1325 0
  57 001a 0133     		adds	r3, r3, #1
  58              	.LVL5:
  59 001c 064A     		ldr	r2, .L7
  60 001e 9342     		cmp	r3, r2
  61 0020 07D8     		bhi	.L6
1326:Drivers/STM32F4xx_HAL_Driver/Src/stm32f4xx_ll_usb.c ****     {
1327:Drivers/STM32F4xx_HAL_Driver/Src/stm32f4xx_ll_usb.c ****       return HAL_TIMEOUT;
1328:Drivers/STM32F4xx_HAL_Driver/Src/stm32f4xx_ll_usb.c ****     }
1329:Drivers/STM32F4xx_HAL_Driver/Src/stm32f4xx_ll_usb.c ****   }
1330:Drivers/STM32F4xx_HAL_Driver/Src/stm32f4xx_ll_usb.c ****   while ((USBx->GRSTCTL & USB_OTG_GRSTCTL_CSRST) == USB_OTG_GRSTCTL_CSRST);
  62              		.loc 1 1330 0
  63 0022 0269     		ldr	r2, [r0, #16]
  64 0024 12F0010F 		tst	r2, #1
  65 0028 F7D1     		bne	.L4
1331:Drivers/STM32F4xx_HAL_Driver/Src/stm32f4xx_ll_usb.c **** 
1332:Drivers/STM32F4xx_HAL_Driver/Src/stm32f4xx_ll_usb.c ****   return HAL_OK;
  66              		.loc 1 1332 0
  67 002a 0020     		movs	r0, #0
  68              	.LVL6:
  69 002c 7047     		bx	lr
  70              	.LVL7:
  71              	.L5:
1314:Drivers/STM32F4xx_HAL_Driver/Src/stm32f4xx_ll_usb.c ****     }
  72              		.loc 1 1314 0
  73 002e 0320     		movs	r0, #3
  74              	.LVL8:
  75 0030 7047     		bx	lr
  76              	.LVL9:
  77              	.L6:
1327:Drivers/STM32F4xx_HAL_Driver/Src/stm32f4xx_ll_usb.c ****     }
  78              		.loc 1 1327 0
  79 0032 0320     		movs	r0, #3
  80              	.LVL10:
1333:Drivers/STM32F4xx_HAL_Driver/Src/stm32f4xx_ll_usb.c **** }
  81              		.loc 1 1333 0
  82 0034 7047     		bx	lr
  83              	.L8:
  84 0036 00BF     		.align	2
  85              	.L7:
  86 0038 400D0300 		.word	200000
  87              		.cfi_endproc
  88              	.LFE163:
  90              		.section	.text.USB_CoreInit,"ax",%progbits
  91              		.align	1
ARM GAS  /tmp/ccag9PFX.s 			page 26


  92              		.global	USB_CoreInit
  93              		.syntax unified
  94              		.thumb
  95              		.thumb_func
  96              		.fpu fpv4-sp-d16
  98              	USB_CoreInit:
  99              	.LFB130:
  83:Drivers/STM32F4xx_HAL_Driver/Src/stm32f4xx_ll_usb.c ****   HAL_StatusTypeDef ret;
 100              		.loc 1 83 0
 101              		.cfi_startproc
 102              		@ args = 56, pretend = 16, frame = 0
 103              		@ frame_needed = 0, uses_anonymous_args = 0
 104              	.LVL11:
 105 0000 84B0     		sub	sp, sp, #16
 106              	.LCFI0:
 107              		.cfi_def_cfa_offset 16
 108 0002 10B5     		push	{r4, lr}
 109              	.LCFI1:
 110              		.cfi_def_cfa_offset 24
 111              		.cfi_offset 4, -24
 112              		.cfi_offset 14, -20
 113 0004 0446     		mov	r4, r0
 114 0006 03A8     		add	r0, sp, #12
 115              	.LVL12:
 116 0008 80E80E00 		stm	r0, {r1, r2, r3}
  86:Drivers/STM32F4xx_HAL_Driver/Src/stm32f4xx_ll_usb.c ****   {
 117              		.loc 1 86 0
 118 000c 089B     		ldr	r3, [sp, #32]
 119 000e 012B     		cmp	r3, #1
 120 0010 1FD1     		bne	.L10
  88:Drivers/STM32F4xx_HAL_Driver/Src/stm32f4xx_ll_usb.c **** 
 121              		.loc 1 88 0
 122 0012 A36B     		ldr	r3, [r4, #56]
 123 0014 23F48033 		bic	r3, r3, #65536
 124 0018 A363     		str	r3, [r4, #56]
  91:Drivers/STM32F4xx_HAL_Driver/Src/stm32f4xx_ll_usb.c **** 
 125              		.loc 1 91 0
 126 001a E368     		ldr	r3, [r4, #12]
 127 001c 23F48403 		bic	r3, r3, #4325376
 128 0020 23F04003 		bic	r3, r3, #64
 129 0024 E360     		str	r3, [r4, #12]
  94:Drivers/STM32F4xx_HAL_Driver/Src/stm32f4xx_ll_usb.c ****     if (cfg.use_external_vbus == 1U)
 130              		.loc 1 94 0
 131 0026 E368     		ldr	r3, [r4, #12]
 132 0028 23F44013 		bic	r3, r3, #3145728
 133 002c E360     		str	r3, [r4, #12]
  95:Drivers/STM32F4xx_HAL_Driver/Src/stm32f4xx_ll_usb.c ****     {
 134              		.loc 1 95 0
 135 002e 0F9B     		ldr	r3, [sp, #60]
 136 0030 012B     		cmp	r3, #1
 137 0032 09D0     		beq	.L16
 138              	.L11:
 100:Drivers/STM32F4xx_HAL_Driver/Src/stm32f4xx_ll_usb.c ****   }
 139              		.loc 1 100 0
 140 0034 2046     		mov	r0, r4
 141 0036 FFF7FEFF 		bl	USB_CoreReset
 142              	.LVL13:
ARM GAS  /tmp/ccag9PFX.s 			page 27


 143              	.L12:
 122:Drivers/STM32F4xx_HAL_Driver/Src/stm32f4xx_ll_usb.c ****   {
 144              		.loc 1 122 0
 145 003a 069B     		ldr	r3, [sp, #24]
 146 003c 012B     		cmp	r3, #1
 147 003e 1BD0     		beq	.L17
 148              	.L14:
 129:Drivers/STM32F4xx_HAL_Driver/Src/stm32f4xx_ll_usb.c **** 
 149              		.loc 1 129 0
 150 0040 BDE81040 		pop	{r4, lr}
 151              	.LCFI2:
 152              		.cfi_remember_state
 153              		.cfi_restore 14
 154              		.cfi_restore 4
 155              		.cfi_def_cfa_offset 16
 156              	.LVL14:
 157 0044 04B0     		add	sp, sp, #16
 158              	.LCFI3:
 159              		.cfi_def_cfa_offset 0
 160 0046 7047     		bx	lr
 161              	.LVL15:
 162              	.L16:
 163              	.LCFI4:
 164              		.cfi_restore_state
  97:Drivers/STM32F4xx_HAL_Driver/Src/stm32f4xx_ll_usb.c ****     }
 165              		.loc 1 97 0
 166 0048 E368     		ldr	r3, [r4, #12]
 167 004a 43F48013 		orr	r3, r3, #1048576
 168 004e E360     		str	r3, [r4, #12]
 169 0050 F0E7     		b	.L11
 170              	.L10:
 105:Drivers/STM32F4xx_HAL_Driver/Src/stm32f4xx_ll_usb.c **** 
 171              		.loc 1 105 0
 172 0052 E368     		ldr	r3, [r4, #12]
 173 0054 43F04003 		orr	r3, r3, #64
 174 0058 E360     		str	r3, [r4, #12]
 108:Drivers/STM32F4xx_HAL_Driver/Src/stm32f4xx_ll_usb.c **** 
 175              		.loc 1 108 0
 176 005a 2046     		mov	r0, r4
 177 005c FFF7FEFF 		bl	USB_CoreReset
 178              	.LVL16:
 110:Drivers/STM32F4xx_HAL_Driver/Src/stm32f4xx_ll_usb.c ****     {
 179              		.loc 1 110 0
 180 0060 0C9B     		ldr	r3, [sp, #48]
 181 0062 23B9     		cbnz	r3, .L13
 113:Drivers/STM32F4xx_HAL_Driver/Src/stm32f4xx_ll_usb.c ****     }
 182              		.loc 1 113 0
 183 0064 A36B     		ldr	r3, [r4, #56]
 184 0066 43F48033 		orr	r3, r3, #65536
 185 006a A363     		str	r3, [r4, #56]
 186 006c E5E7     		b	.L12
 187              	.L13:
 118:Drivers/STM32F4xx_HAL_Driver/Src/stm32f4xx_ll_usb.c ****     }
 188              		.loc 1 118 0
 189 006e A36B     		ldr	r3, [r4, #56]
 190 0070 23F48033 		bic	r3, r3, #65536
 191 0074 A363     		str	r3, [r4, #56]
ARM GAS  /tmp/ccag9PFX.s 			page 28


 192 0076 E0E7     		b	.L12
 193              	.L17:
 124:Drivers/STM32F4xx_HAL_Driver/Src/stm32f4xx_ll_usb.c ****     USBx->GAHBCFG |= USB_OTG_GAHBCFG_DMAEN;
 194              		.loc 1 124 0
 195 0078 A368     		ldr	r3, [r4, #8]
 196 007a 43F00603 		orr	r3, r3, #6
 197 007e A360     		str	r3, [r4, #8]
 125:Drivers/STM32F4xx_HAL_Driver/Src/stm32f4xx_ll_usb.c ****   }
 198              		.loc 1 125 0
 199 0080 A368     		ldr	r3, [r4, #8]
 200 0082 43F02003 		orr	r3, r3, #32
 201 0086 A360     		str	r3, [r4, #8]
 202 0088 DAE7     		b	.L14
 203              		.cfi_endproc
 204              	.LFE130:
 206              		.section	.text.USB_SetTurnaroundTime,"ax",%progbits
 207              		.align	1
 208              		.global	USB_SetTurnaroundTime
 209              		.syntax unified
 210              		.thumb
 211              		.thumb_func
 212              		.fpu fpv4-sp-d16
 214              	USB_SetTurnaroundTime:
 215              	.LFB131:
 140:Drivers/STM32F4xx_HAL_Driver/Src/stm32f4xx_ll_usb.c ****   uint32_t UsbTrd;
 216              		.loc 1 140 0
 217              		.cfi_startproc
 218              		@ args = 0, pretend = 0, frame = 0
 219              		@ frame_needed = 0, uses_anonymous_args = 0
 220              		@ link register save eliminated.
 221              	.LVL17:
 147:Drivers/STM32F4xx_HAL_Driver/Src/stm32f4xx_ll_usb.c ****   {
 222              		.loc 1 147 0
 223 0000 022A     		cmp	r2, #2
 224 0002 0AD0     		beq	.L30
 202:Drivers/STM32F4xx_HAL_Driver/Src/stm32f4xx_ll_usb.c ****   }
 225              		.loc 1 202 0
 226 0004 0921     		movs	r1, #9
 227              	.LVL18:
 228              	.L19:
 209:Drivers/STM32F4xx_HAL_Driver/Src/stm32f4xx_ll_usb.c ****   USBx->GUSBCFG |= (uint32_t)((UsbTrd << 10) & USB_OTG_GUSBCFG_TRDT);
 229              		.loc 1 209 0
 230 0006 C268     		ldr	r2, [r0, #12]
 231 0008 22F47052 		bic	r2, r2, #15360
 232 000c C260     		str	r2, [r0, #12]
 210:Drivers/STM32F4xx_HAL_Driver/Src/stm32f4xx_ll_usb.c **** 
 233              		.loc 1 210 0
 234 000e C368     		ldr	r3, [r0, #12]
 235 0010 43EA8123 		orr	r3, r3, r1, lsl #10
 236 0014 C360     		str	r3, [r0, #12]
 213:Drivers/STM32F4xx_HAL_Driver/Src/stm32f4xx_ll_usb.c **** 
 237              		.loc 1 213 0
 238 0016 0020     		movs	r0, #0
 239              	.LVL19:
 240 0018 7047     		bx	lr
 241              	.LVL20:
 242              	.L30:
ARM GAS  /tmp/ccag9PFX.s 			page 29


 149:Drivers/STM32F4xx_HAL_Driver/Src/stm32f4xx_ll_usb.c ****     {
 243              		.loc 1 149 0
 244 001a 2A4B     		ldr	r3, .L32
 245 001c 0B44     		add	r3, r3, r1
 246 001e 2A4A     		ldr	r2, .L32+4
 247              	.LVL21:
 248 0020 9342     		cmp	r3, r2
 249 0022 3FD9     		bls	.L21
 154:Drivers/STM32F4xx_HAL_Driver/Src/stm32f4xx_ll_usb.c ****     {
 250              		.loc 1 154 0
 251 0024 294B     		ldr	r3, .L32+8
 252 0026 0B44     		add	r3, r3, r1
 253 0028 294A     		ldr	r2, .L32+12
 254 002a 9342     		cmp	r3, r2
 255 002c 3CD9     		bls	.L22
 159:Drivers/STM32F4xx_HAL_Driver/Src/stm32f4xx_ll_usb.c ****     {
 256              		.loc 1 159 0
 257 002e A1F57403 		sub	r3, r1, #15990784
 258 0032 A3F51053 		sub	r3, r3, #9216
 259 0036 274A     		ldr	r2, .L32+16
 260 0038 9342     		cmp	r3, r2
 261 003a 37D9     		bls	.L23
 164:Drivers/STM32F4xx_HAL_Driver/Src/stm32f4xx_ll_usb.c ****     {
 262              		.loc 1 164 0
 263 003c A1F18373 		sub	r3, r1, #17170432
 264 0040 A3F5E743 		sub	r3, r3, #29568
 265 0044 02F5C332 		add	r2, r2, #99840
 266 0048 A032     		adds	r2, r2, #160
 267 004a 9342     		cmp	r3, r2
 268 004c 30D9     		bls	.L24
 169:Drivers/STM32F4xx_HAL_Driver/Src/stm32f4xx_ll_usb.c ****     {
 269              		.loc 1 169 0
 270 004e 224B     		ldr	r3, .L32+20
 271 0050 0B44     		add	r3, r3, r1
 272 0052 224A     		ldr	r2, .L32+24
 273 0054 9342     		cmp	r3, r2
 274 0056 2DD9     		bls	.L25
 174:Drivers/STM32F4xx_HAL_Driver/Src/stm32f4xx_ll_usb.c ****     {
 275              		.loc 1 174 0
 276 0058 214B     		ldr	r3, .L32+28
 277 005a 0B44     		add	r3, r3, r1
 278 005c 02F59222 		add	r2, r2, #299008
 279 0060 02F57872 		add	r2, r2, #992
 280 0064 9342     		cmp	r3, r2
 281 0066 27D9     		bls	.L26
 179:Drivers/STM32F4xx_HAL_Driver/Src/stm32f4xx_ll_usb.c ****     {
 282              		.loc 1 179 0
 283 0068 1E4B     		ldr	r3, .L32+32
 284 006a 0B44     		add	r3, r3, r1
 285 006c 02F5C322 		add	r2, r2, #399360
 286 0070 02F52072 		add	r2, r2, #640
 287 0074 9342     		cmp	r3, r2
 288 0076 21D9     		bls	.L27
 184:Drivers/STM32F4xx_HAL_Driver/Src/stm32f4xx_ll_usb.c ****     {
 289              		.loc 1 184 0
 290 0078 A1F1B773 		sub	r3, r1, #23986176
 291 007c A3F55853 		sub	r3, r3, #13824
ARM GAS  /tmp/ccag9PFX.s 			page 30


 292 0080 02F5B712 		add	r2, r2, #1499136
 293 0084 02F55872 		add	r2, r2, #864
 294 0088 9342     		cmp	r3, r2
 295 008a 19D9     		bls	.L28
 189:Drivers/STM32F4xx_HAL_Driver/Src/stm32f4xx_ll_usb.c ****     {
 296              		.loc 1 189 0
 297 008c 164B     		ldr	r3, .L32+36
 298 008e 0B44     		add	r3, r3, r1
 299 0090 02F51222 		add	r2, r2, #598016
 300 0094 02F5F862 		add	r2, r2, #1984
 301 0098 9342     		cmp	r3, r2
 302 009a 01D9     		bls	.L31
 197:Drivers/STM32F4xx_HAL_Driver/Src/stm32f4xx_ll_usb.c ****     }
 303              		.loc 1 197 0
 304 009c 0621     		movs	r1, #6
 305              	.LVL22:
 306 009e B2E7     		b	.L19
 307              	.LVL23:
 308              	.L31:
 192:Drivers/STM32F4xx_HAL_Driver/Src/stm32f4xx_ll_usb.c ****     }
 309              		.loc 1 192 0
 310 00a0 0721     		movs	r1, #7
 311              	.LVL24:
 312 00a2 B0E7     		b	.L19
 313              	.LVL25:
 314              	.L21:
 152:Drivers/STM32F4xx_HAL_Driver/Src/stm32f4xx_ll_usb.c ****     }
 315              		.loc 1 152 0
 316 00a4 0F21     		movs	r1, #15
 317              	.LVL26:
 318 00a6 AEE7     		b	.L19
 319              	.LVL27:
 320              	.L22:
 157:Drivers/STM32F4xx_HAL_Driver/Src/stm32f4xx_ll_usb.c ****     }
 321              		.loc 1 157 0
 322 00a8 0E21     		movs	r1, #14
 323              	.LVL28:
 324 00aa ACE7     		b	.L19
 325              	.LVL29:
 326              	.L23:
 162:Drivers/STM32F4xx_HAL_Driver/Src/stm32f4xx_ll_usb.c ****     }
 327              		.loc 1 162 0
 328 00ac 0D21     		movs	r1, #13
 329              	.LVL30:
 330 00ae AAE7     		b	.L19
 331              	.LVL31:
 332              	.L24:
 167:Drivers/STM32F4xx_HAL_Driver/Src/stm32f4xx_ll_usb.c ****     }
 333              		.loc 1 167 0
 334 00b0 0C21     		movs	r1, #12
 335              	.LVL32:
 336 00b2 A8E7     		b	.L19
 337              	.LVL33:
 338              	.L25:
 172:Drivers/STM32F4xx_HAL_Driver/Src/stm32f4xx_ll_usb.c ****     }
 339              		.loc 1 172 0
 340 00b4 0B21     		movs	r1, #11
ARM GAS  /tmp/ccag9PFX.s 			page 31


 341              	.LVL34:
 342 00b6 A6E7     		b	.L19
 343              	.LVL35:
 344              	.L26:
 177:Drivers/STM32F4xx_HAL_Driver/Src/stm32f4xx_ll_usb.c ****     }
 345              		.loc 1 177 0
 346 00b8 0A21     		movs	r1, #10
 347              	.LVL36:
 348 00ba A4E7     		b	.L19
 349              	.LVL37:
 350              	.L27:
 182:Drivers/STM32F4xx_HAL_Driver/Src/stm32f4xx_ll_usb.c ****     }
 351              		.loc 1 182 0
 352 00bc 0921     		movs	r1, #9
 353              	.LVL38:
 354 00be A2E7     		b	.L19
 355              	.LVL39:
 356              	.L28:
 187:Drivers/STM32F4xx_HAL_Driver/Src/stm32f4xx_ll_usb.c ****     }
 357              		.loc 1 187 0
 358 00c0 0821     		movs	r1, #8
 359              	.LVL40:
 360 00c2 A0E7     		b	.L19
 361              	.L33:
 362              		.align	2
 363              	.L32:
 364 00c4 405327FF 		.word	-14200000
 365 00c8 FF340C00 		.word	799999
 366 00cc 401E1BFF 		.word	-15000000
 367 00d0 3F420F00 		.word	999999
 368 00d4 7F4F1200 		.word	1199999
 369 00d8 60B6E5FE 		.word	-18500000
 370 00dc 5FE31600 		.word	1499999
 371 00e0 00D3CEFE 		.word	-20000000
 372 00e4 C05BB3FE 		.word	-21800000
 373 00e8 E05459FE 		.word	-27700000
 374              		.cfi_endproc
 375              	.LFE131:
 377              		.section	.text.USB_EnableGlobalInt,"ax",%progbits
 378              		.align	1
 379              		.global	USB_EnableGlobalInt
 380              		.syntax unified
 381              		.thumb
 382              		.thumb_func
 383              		.fpu fpv4-sp-d16
 385              	USB_EnableGlobalInt:
 386              	.LFB132:
 222:Drivers/STM32F4xx_HAL_Driver/Src/stm32f4xx_ll_usb.c ****   USBx->GAHBCFG |= USB_OTG_GAHBCFG_GINT;
 387              		.loc 1 222 0
 388              		.cfi_startproc
 389              		@ args = 0, pretend = 0, frame = 0
 390              		@ frame_needed = 0, uses_anonymous_args = 0
 391              		@ link register save eliminated.
 392              	.LVL41:
 223:Drivers/STM32F4xx_HAL_Driver/Src/stm32f4xx_ll_usb.c ****   return HAL_OK;
 393              		.loc 1 223 0
 394 0000 8368     		ldr	r3, [r0, #8]
ARM GAS  /tmp/ccag9PFX.s 			page 32


 395 0002 43F00103 		orr	r3, r3, #1
 396 0006 8360     		str	r3, [r0, #8]
 225:Drivers/STM32F4xx_HAL_Driver/Src/stm32f4xx_ll_usb.c **** 
 397              		.loc 1 225 0
 398 0008 0020     		movs	r0, #0
 399              	.LVL42:
 400 000a 7047     		bx	lr
 401              		.cfi_endproc
 402              	.LFE132:
 404              		.section	.text.USB_DisableGlobalInt,"ax",%progbits
 405              		.align	1
 406              		.global	USB_DisableGlobalInt
 407              		.syntax unified
 408              		.thumb
 409              		.thumb_func
 410              		.fpu fpv4-sp-d16
 412              	USB_DisableGlobalInt:
 413              	.LFB133:
 234:Drivers/STM32F4xx_HAL_Driver/Src/stm32f4xx_ll_usb.c ****   USBx->GAHBCFG &= ~USB_OTG_GAHBCFG_GINT;
 414              		.loc 1 234 0
 415              		.cfi_startproc
 416              		@ args = 0, pretend = 0, frame = 0
 417              		@ frame_needed = 0, uses_anonymous_args = 0
 418              		@ link register save eliminated.
 419              	.LVL43:
 235:Drivers/STM32F4xx_HAL_Driver/Src/stm32f4xx_ll_usb.c ****   return HAL_OK;
 420              		.loc 1 235 0
 421 0000 8368     		ldr	r3, [r0, #8]
 422 0002 23F00103 		bic	r3, r3, #1
 423 0006 8360     		str	r3, [r0, #8]
 237:Drivers/STM32F4xx_HAL_Driver/Src/stm32f4xx_ll_usb.c **** 
 424              		.loc 1 237 0
 425 0008 0020     		movs	r0, #0
 426              	.LVL44:
 427 000a 7047     		bx	lr
 428              		.cfi_endproc
 429              	.LFE133:
 431              		.section	.text.USB_SetCurrentMode,"ax",%progbits
 432              		.align	1
 433              		.global	USB_SetCurrentMode
 434              		.syntax unified
 435              		.thumb
 436              		.thumb_func
 437              		.fpu fpv4-sp-d16
 439              	USB_SetCurrentMode:
 440              	.LFB134:
 250:Drivers/STM32F4xx_HAL_Driver/Src/stm32f4xx_ll_usb.c ****   USBx->GUSBCFG &= ~(USB_OTG_GUSBCFG_FHMOD | USB_OTG_GUSBCFG_FDMOD);
 441              		.loc 1 250 0
 442              		.cfi_startproc
 443              		@ args = 0, pretend = 0, frame = 0
 444              		@ frame_needed = 0, uses_anonymous_args = 0
 445              	.LVL45:
 446 0000 08B5     		push	{r3, lr}
 447              	.LCFI5:
 448              		.cfi_def_cfa_offset 8
 449              		.cfi_offset 3, -8
 450              		.cfi_offset 14, -4
ARM GAS  /tmp/ccag9PFX.s 			page 33


 251:Drivers/STM32F4xx_HAL_Driver/Src/stm32f4xx_ll_usb.c **** 
 451              		.loc 1 251 0
 452 0002 C368     		ldr	r3, [r0, #12]
 453 0004 23F0C043 		bic	r3, r3, #1610612736
 454 0008 C360     		str	r3, [r0, #12]
 253:Drivers/STM32F4xx_HAL_Driver/Src/stm32f4xx_ll_usb.c ****   {
 455              		.loc 1 253 0
 456 000a 0129     		cmp	r1, #1
 457 000c 09D0     		beq	.L42
 257:Drivers/STM32F4xx_HAL_Driver/Src/stm32f4xx_ll_usb.c ****   {
 458              		.loc 1 257 0
 459 000e 69B9     		cbnz	r1, .L40
 259:Drivers/STM32F4xx_HAL_Driver/Src/stm32f4xx_ll_usb.c ****   }
 460              		.loc 1 259 0
 461 0010 C368     		ldr	r3, [r0, #12]
 462 0012 43F08043 		orr	r3, r3, #1073741824
 463 0016 C360     		str	r3, [r0, #12]
 464              	.L38:
 265:Drivers/STM32F4xx_HAL_Driver/Src/stm32f4xx_ll_usb.c **** 
 465              		.loc 1 265 0
 466 0018 3220     		movs	r0, #50
 467              	.LVL46:
 468 001a FFF7FEFF 		bl	HAL_Delay
 469              	.LVL47:
 267:Drivers/STM32F4xx_HAL_Driver/Src/stm32f4xx_ll_usb.c **** }
 470              		.loc 1 267 0
 471 001e 0020     		movs	r0, #0
 472              	.L39:
 268:Drivers/STM32F4xx_HAL_Driver/Src/stm32f4xx_ll_usb.c **** 
 473              		.loc 1 268 0
 474 0020 08BD     		pop	{r3, pc}
 475              	.LVL48:
 476              	.L42:
 255:Drivers/STM32F4xx_HAL_Driver/Src/stm32f4xx_ll_usb.c ****   }
 477              		.loc 1 255 0
 478 0022 C368     		ldr	r3, [r0, #12]
 479 0024 43F00053 		orr	r3, r3, #536870912
 480 0028 C360     		str	r3, [r0, #12]
 481 002a F5E7     		b	.L38
 482              	.L40:
 263:Drivers/STM32F4xx_HAL_Driver/Src/stm32f4xx_ll_usb.c ****   }
 483              		.loc 1 263 0
 484 002c 0120     		movs	r0, #1
 485              	.LVL49:
 486 002e F7E7     		b	.L39
 487              		.cfi_endproc
 488              	.LFE134:
 490              		.section	.text.USB_FlushTxFifo,"ax",%progbits
 491              		.align	1
 492              		.global	USB_FlushTxFifo
 493              		.syntax unified
 494              		.thumb
 495              		.thumb_func
 496              		.fpu fpv4-sp-d16
 498              	USB_FlushTxFifo:
 499              	.LFB136:
 463:Drivers/STM32F4xx_HAL_Driver/Src/stm32f4xx_ll_usb.c ****   uint32_t count = 0U;
ARM GAS  /tmp/ccag9PFX.s 			page 34


 500              		.loc 1 463 0
 501              		.cfi_startproc
 502              		@ args = 0, pretend = 0, frame = 0
 503              		@ frame_needed = 0, uses_anonymous_args = 0
 504              		@ link register save eliminated.
 505              	.LVL50:
 466:Drivers/STM32F4xx_HAL_Driver/Src/stm32f4xx_ll_usb.c **** 
 506              		.loc 1 466 0
 507 0000 8901     		lsls	r1, r1, #6
 508              	.LVL51:
 509 0002 41F02001 		orr	r1, r1, #32
 510 0006 0161     		str	r1, [r0, #16]
 464:Drivers/STM32F4xx_HAL_Driver/Src/stm32f4xx_ll_usb.c **** 
 511              		.loc 1 464 0
 512 0008 0023     		movs	r3, #0
 513              	.LVL52:
 514              	.L45:
 470:Drivers/STM32F4xx_HAL_Driver/Src/stm32f4xx_ll_usb.c ****     {
 515              		.loc 1 470 0
 516 000a 0133     		adds	r3, r3, #1
 517              	.LVL53:
 518 000c 054A     		ldr	r2, .L47
 519 000e 9342     		cmp	r3, r2
 520 0010 05D8     		bhi	.L46
 475:Drivers/STM32F4xx_HAL_Driver/Src/stm32f4xx_ll_usb.c **** 
 521              		.loc 1 475 0
 522 0012 0269     		ldr	r2, [r0, #16]
 523 0014 12F0200F 		tst	r2, #32
 524 0018 F7D1     		bne	.L45
 477:Drivers/STM32F4xx_HAL_Driver/Src/stm32f4xx_ll_usb.c **** }
 525              		.loc 1 477 0
 526 001a 0020     		movs	r0, #0
 527              	.LVL54:
 528 001c 7047     		bx	lr
 529              	.LVL55:
 530              	.L46:
 472:Drivers/STM32F4xx_HAL_Driver/Src/stm32f4xx_ll_usb.c ****     }
 531              		.loc 1 472 0
 532 001e 0320     		movs	r0, #3
 533              	.LVL56:
 478:Drivers/STM32F4xx_HAL_Driver/Src/stm32f4xx_ll_usb.c **** 
 534              		.loc 1 478 0
 535 0020 7047     		bx	lr
 536              	.L48:
 537 0022 00BF     		.align	2
 538              	.L47:
 539 0024 400D0300 		.word	200000
 540              		.cfi_endproc
 541              	.LFE136:
 543              		.section	.text.USB_FlushRxFifo,"ax",%progbits
 544              		.align	1
 545              		.global	USB_FlushRxFifo
 546              		.syntax unified
 547              		.thumb
 548              		.thumb_func
 549              		.fpu fpv4-sp-d16
 551              	USB_FlushRxFifo:
ARM GAS  /tmp/ccag9PFX.s 			page 35


 552              	.LFB137:
 486:Drivers/STM32F4xx_HAL_Driver/Src/stm32f4xx_ll_usb.c ****   uint32_t count = 0;
 553              		.loc 1 486 0
 554              		.cfi_startproc
 555              		@ args = 0, pretend = 0, frame = 0
 556              		@ frame_needed = 0, uses_anonymous_args = 0
 557              		@ link register save eliminated.
 558              	.LVL57:
 489:Drivers/STM32F4xx_HAL_Driver/Src/stm32f4xx_ll_usb.c **** 
 559              		.loc 1 489 0
 560 0000 1023     		movs	r3, #16
 561 0002 0361     		str	r3, [r0, #16]
 487:Drivers/STM32F4xx_HAL_Driver/Src/stm32f4xx_ll_usb.c **** 
 562              		.loc 1 487 0
 563 0004 0023     		movs	r3, #0
 564              	.LVL58:
 565              	.L51:
 493:Drivers/STM32F4xx_HAL_Driver/Src/stm32f4xx_ll_usb.c ****     {
 566              		.loc 1 493 0
 567 0006 0133     		adds	r3, r3, #1
 568              	.LVL59:
 569 0008 054A     		ldr	r2, .L53
 570 000a 9342     		cmp	r3, r2
 571 000c 05D8     		bhi	.L52
 498:Drivers/STM32F4xx_HAL_Driver/Src/stm32f4xx_ll_usb.c **** 
 572              		.loc 1 498 0
 573 000e 0269     		ldr	r2, [r0, #16]
 574 0010 12F0100F 		tst	r2, #16
 575 0014 F7D1     		bne	.L51
 500:Drivers/STM32F4xx_HAL_Driver/Src/stm32f4xx_ll_usb.c **** }
 576              		.loc 1 500 0
 577 0016 0020     		movs	r0, #0
 578              	.LVL60:
 579 0018 7047     		bx	lr
 580              	.LVL61:
 581              	.L52:
 495:Drivers/STM32F4xx_HAL_Driver/Src/stm32f4xx_ll_usb.c ****     }
 582              		.loc 1 495 0
 583 001a 0320     		movs	r0, #3
 584              	.LVL62:
 501:Drivers/STM32F4xx_HAL_Driver/Src/stm32f4xx_ll_usb.c **** 
 585              		.loc 1 501 0
 586 001c 7047     		bx	lr
 587              	.L54:
 588 001e 00BF     		.align	2
 589              	.L53:
 590 0020 400D0300 		.word	200000
 591              		.cfi_endproc
 592              	.LFE137:
 594              		.section	.text.USB_SetDevSpeed,"ax",%progbits
 595              		.align	1
 596              		.global	USB_SetDevSpeed
 597              		.syntax unified
 598              		.thumb
 599              		.thumb_func
 600              		.fpu fpv4-sp-d16
 602              	USB_SetDevSpeed:
ARM GAS  /tmp/ccag9PFX.s 			page 36


 603              	.LFB138:
 515:Drivers/STM32F4xx_HAL_Driver/Src/stm32f4xx_ll_usb.c ****   uint32_t USBx_BASE = (uint32_t)USBx;
 604              		.loc 1 515 0
 605              		.cfi_startproc
 606              		@ args = 0, pretend = 0, frame = 0
 607              		@ frame_needed = 0, uses_anonymous_args = 0
 608              		@ link register save eliminated.
 609              	.LVL63:
 518:Drivers/STM32F4xx_HAL_Driver/Src/stm32f4xx_ll_usb.c ****   return HAL_OK;
 610              		.loc 1 518 0
 611 0000 D0F80038 		ldr	r3, [r0, #2048]
 612 0004 1943     		orrs	r1, r1, r3
 613              	.LVL64:
 614 0006 C0F80018 		str	r1, [r0, #2048]
 520:Drivers/STM32F4xx_HAL_Driver/Src/stm32f4xx_ll_usb.c **** 
 615              		.loc 1 520 0
 616 000a 0020     		movs	r0, #0
 617              	.LVL65:
 618 000c 7047     		bx	lr
 619              		.cfi_endproc
 620              	.LFE138:
 622              		.section	.text.USB_DevInit,"ax",%progbits
 623              		.align	1
 624              		.global	USB_DevInit
 625              		.syntax unified
 626              		.thumb
 627              		.thumb_func
 628              		.fpu fpv4-sp-d16
 630              	USB_DevInit:
 631              	.LFB135:
 279:Drivers/STM32F4xx_HAL_Driver/Src/stm32f4xx_ll_usb.c ****   HAL_StatusTypeDef ret = HAL_OK;
 632              		.loc 1 279 0
 633              		.cfi_startproc
 634              		@ args = 56, pretend = 16, frame = 0
 635              		@ frame_needed = 0, uses_anonymous_args = 0
 636              	.LVL66:
 637 0000 84B0     		sub	sp, sp, #16
 638              	.LCFI6:
 639              		.cfi_def_cfa_offset 16
 640 0002 2DE9F041 		push	{r4, r5, r6, r7, r8, lr}
 641              	.LCFI7:
 642              		.cfi_def_cfa_offset 40
 643              		.cfi_offset 4, -40
 644              		.cfi_offset 5, -36
 645              		.cfi_offset 6, -32
 646              		.cfi_offset 7, -28
 647              		.cfi_offset 8, -24
 648              		.cfi_offset 14, -20
 649 0006 0446     		mov	r4, r0
 650 0008 07A8     		add	r0, sp, #28
 651              	.LVL67:
 652 000a 80E80E00 		stm	r0, {r1, r2, r3}
 653              	.LVL68:
 281:Drivers/STM32F4xx_HAL_Driver/Src/stm32f4xx_ll_usb.c ****   uint32_t i;
 654              		.loc 1 281 0
 655 000e 2546     		mov	r5, r4
 656              	.LVL69:
ARM GAS  /tmp/ccag9PFX.s 			page 37


 284:Drivers/STM32F4xx_HAL_Driver/Src/stm32f4xx_ll_usb.c ****   {
 657              		.loc 1 284 0
 658 0010 0023     		movs	r3, #0
 659 0012 06E0     		b	.L57
 660              	.LVL70:
 661              	.L58:
 286:Drivers/STM32F4xx_HAL_Driver/Src/stm32f4xx_ll_usb.c ****   }
 662              		.loc 1 286 0 discriminator 3
 663 0014 03F14002 		add	r2, r3, #64
 664 0018 04EB8202 		add	r2, r4, r2, lsl #2
 665 001c 0021     		movs	r1, #0
 666 001e 5160     		str	r1, [r2, #4]
 284:Drivers/STM32F4xx_HAL_Driver/Src/stm32f4xx_ll_usb.c ****   {
 667              		.loc 1 284 0 discriminator 3
 668 0020 0133     		adds	r3, r3, #1
 669              	.LVL71:
 670              	.L57:
 284:Drivers/STM32F4xx_HAL_Driver/Src/stm32f4xx_ll_usb.c ****   {
 671              		.loc 1 284 0 is_stmt 0 discriminator 1
 672 0022 0E2B     		cmp	r3, #14
 673 0024 F6D9     		bls	.L58
 307:Drivers/STM32F4xx_HAL_Driver/Src/stm32f4xx_ll_usb.c ****   {
 674              		.loc 1 307 0 is_stmt 1
 675 0026 119B     		ldr	r3, [sp, #68]
 676              	.LVL72:
 677 0028 F3B9     		cbnz	r3, .L59
 313:Drivers/STM32F4xx_HAL_Driver/Src/stm32f4xx_ll_usb.c ****     USBx->GCCFG &= ~USB_OTG_GCCFG_VBUSBSEN;
 678              		.loc 1 313 0
 679 002a A36B     		ldr	r3, [r4, #56]
 680 002c 43F40013 		orr	r3, r3, #2097152
 681 0030 A363     		str	r3, [r4, #56]
 314:Drivers/STM32F4xx_HAL_Driver/Src/stm32f4xx_ll_usb.c ****     USBx->GCCFG &= ~USB_OTG_GCCFG_VBUSASEN;
 682              		.loc 1 314 0
 683 0032 A36B     		ldr	r3, [r4, #56]
 684 0034 23F40023 		bic	r3, r3, #524288
 685 0038 A363     		str	r3, [r4, #56]
 315:Drivers/STM32F4xx_HAL_Driver/Src/stm32f4xx_ll_usb.c ****   }
 686              		.loc 1 315 0
 687 003a A36B     		ldr	r3, [r4, #56]
 688 003c 23F48023 		bic	r3, r3, #262144
 689 0040 A363     		str	r3, [r4, #56]
 690              	.L60:
 326:Drivers/STM32F4xx_HAL_Driver/Src/stm32f4xx_ll_usb.c **** 
 691              		.loc 1 326 0
 692 0042 0023     		movs	r3, #0
 693 0044 C4F8003E 		str	r3, [r4, #3584]
 329:Drivers/STM32F4xx_HAL_Driver/Src/stm32f4xx_ll_usb.c **** 
 694              		.loc 1 329 0
 695 0048 04F50066 		add	r6, r4, #2048
 696 004c D4F80038 		ldr	r3, [r4, #2048]
 697 0050 C4F80038 		str	r3, [r4, #2048]
 331:Drivers/STM32F4xx_HAL_Driver/Src/stm32f4xx_ll_usb.c ****   {
 698              		.loc 1 331 0
 699 0054 0C9B     		ldr	r3, [sp, #48]
 700 0056 012B     		cmp	r3, #1
 701 0058 14D1     		bne	.L61
 333:Drivers/STM32F4xx_HAL_Driver/Src/stm32f4xx_ll_usb.c ****     {
ARM GAS  /tmp/ccag9PFX.s 			page 38


 702              		.loc 1 333 0
 703 005a 099B     		ldr	r3, [sp, #36]
 704 005c 6BB9     		cbnz	r3, .L62
 336:Drivers/STM32F4xx_HAL_Driver/Src/stm32f4xx_ll_usb.c ****     }
 705              		.loc 1 336 0
 706 005e 0021     		movs	r1, #0
 707 0060 2046     		mov	r0, r4
 708 0062 FFF7FEFF 		bl	USB_SetDevSpeed
 709              	.LVL73:
 710 0066 11E0     		b	.L63
 711              	.L59:
 320:Drivers/STM32F4xx_HAL_Driver/Src/stm32f4xx_ll_usb.c ****     USBx->GCCFG |= USB_OTG_GCCFG_VBUSBSEN;
 712              		.loc 1 320 0
 713 0068 2368     		ldr	r3, [r4]
 714 006a 23F40013 		bic	r3, r3, #2097152
 715 006e 2360     		str	r3, [r4]
 321:Drivers/STM32F4xx_HAL_Driver/Src/stm32f4xx_ll_usb.c ****   }
 716              		.loc 1 321 0
 717 0070 A36B     		ldr	r3, [r4, #56]
 718 0072 43F40023 		orr	r3, r3, #524288
 719 0076 A363     		str	r3, [r4, #56]
 720 0078 E3E7     		b	.L60
 721              	.L62:
 341:Drivers/STM32F4xx_HAL_Driver/Src/stm32f4xx_ll_usb.c ****     }
 722              		.loc 1 341 0
 723 007a 0121     		movs	r1, #1
 724 007c 2046     		mov	r0, r4
 725 007e FFF7FEFF 		bl	USB_SetDevSpeed
 726              	.LVL74:
 727 0082 03E0     		b	.L63
 728              	.L61:
 347:Drivers/STM32F4xx_HAL_Driver/Src/stm32f4xx_ll_usb.c ****   }
 729              		.loc 1 347 0
 730 0084 0321     		movs	r1, #3
 731 0086 2046     		mov	r0, r4
 732 0088 FFF7FEFF 		bl	USB_SetDevSpeed
 733              	.LVL75:
 734              	.L63:
 351:Drivers/STM32F4xx_HAL_Driver/Src/stm32f4xx_ll_usb.c ****   {
 735              		.loc 1 351 0
 736 008c 1021     		movs	r1, #16
 737 008e 2046     		mov	r0, r4
 738 0090 FFF7FEFF 		bl	USB_FlushTxFifo
 739              	.LVL76:
 740 0094 8046     		mov	r8, r0
 741 0096 08B1     		cbz	r0, .L64
 353:Drivers/STM32F4xx_HAL_Driver/Src/stm32f4xx_ll_usb.c ****   }
 742              		.loc 1 353 0
 743 0098 4FF00108 		mov	r8, #1
 744              	.L64:
 745              	.LVL77:
 356:Drivers/STM32F4xx_HAL_Driver/Src/stm32f4xx_ll_usb.c ****   {
 746              		.loc 1 356 0
 747 009c 2046     		mov	r0, r4
 748 009e FFF7FEFF 		bl	USB_FlushRxFifo
 749              	.LVL78:
 750 00a2 08B1     		cbz	r0, .L65
ARM GAS  /tmp/ccag9PFX.s 			page 39


 358:Drivers/STM32F4xx_HAL_Driver/Src/stm32f4xx_ll_usb.c ****   }
 751              		.loc 1 358 0
 752 00a4 4FF00108 		mov	r8, #1
 753              	.LVL79:
 754              	.L65:
 362:Drivers/STM32F4xx_HAL_Driver/Src/stm32f4xx_ll_usb.c ****   USBx_DEVICE->DOEPMSK = 0U;
 755              		.loc 1 362 0
 756 00a8 0023     		movs	r3, #0
 757 00aa 3361     		str	r3, [r6, #16]
 363:Drivers/STM32F4xx_HAL_Driver/Src/stm32f4xx_ll_usb.c ****   USBx_DEVICE->DAINTMSK = 0U;
 758              		.loc 1 363 0
 759 00ac 7361     		str	r3, [r6, #20]
 364:Drivers/STM32F4xx_HAL_Driver/Src/stm32f4xx_ll_usb.c **** 
 760              		.loc 1 364 0
 761 00ae F361     		str	r3, [r6, #28]
 762              	.LVL80:
 366:Drivers/STM32F4xx_HAL_Driver/Src/stm32f4xx_ll_usb.c ****   {
 763              		.loc 1 366 0
 764 00b0 0AE0     		b	.L66
 765              	.LVL81:
 766              	.L84:
 370:Drivers/STM32F4xx_HAL_Driver/Src/stm32f4xx_ll_usb.c ****       {
 767              		.loc 1 370 0
 768 00b2 C3B9     		cbnz	r3, .L68
 372:Drivers/STM32F4xx_HAL_Driver/Src/stm32f4xx_ll_usb.c ****       }
 769              		.loc 1 372 0
 770 00b4 4FF00060 		mov	r0, #134217728
 771 00b8 C2F80009 		str	r0, [r2, #2304]
 772              	.L69:
 384:Drivers/STM32F4xx_HAL_Driver/Src/stm32f4xx_ll_usb.c ****     USBx_INEP(i)->DIEPINT  = 0xFB7FU;
 773              		.loc 1 384 0 discriminator 2
 774 00bc 0022     		movs	r2, #0
 775 00be 0A61     		str	r2, [r1, #16]
 385:Drivers/STM32F4xx_HAL_Driver/Src/stm32f4xx_ll_usb.c ****   }
 776              		.loc 1 385 0 discriminator 2
 777 00c0 4FF67F32 		movw	r2, #64383
 778 00c4 8A60     		str	r2, [r1, #8]
 366:Drivers/STM32F4xx_HAL_Driver/Src/stm32f4xx_ll_usb.c ****   {
 779              		.loc 1 366 0 discriminator 2
 780 00c6 0133     		adds	r3, r3, #1
 781              	.LVL82:
 782              	.L66:
 366:Drivers/STM32F4xx_HAL_Driver/Src/stm32f4xx_ll_usb.c ****   {
 783              		.loc 1 366 0 is_stmt 0 discriminator 1
 784 00c8 0799     		ldr	r1, [sp, #28]
 785 00ca 9942     		cmp	r1, r3
 786 00cc 10D9     		bls	.L83
 368:Drivers/STM32F4xx_HAL_Driver/Src/stm32f4xx_ll_usb.c ****     {
 787              		.loc 1 368 0 is_stmt 1
 788 00ce 05EB4312 		add	r2, r5, r3, lsl #5
 789 00d2 02F51061 		add	r1, r2, #2304
 790 00d6 D2F80009 		ldr	r0, [r2, #2304]
 791 00da 0028     		cmp	r0, #0
 792 00dc E9DB     		blt	.L84
 381:Drivers/STM32F4xx_HAL_Driver/Src/stm32f4xx_ll_usb.c ****     }
 793              		.loc 1 381 0
 794 00de 0020     		movs	r0, #0
ARM GAS  /tmp/ccag9PFX.s 			page 40


 795 00e0 C2F80009 		str	r0, [r2, #2304]
 796 00e4 EAE7     		b	.L69
 797              	.L68:
 376:Drivers/STM32F4xx_HAL_Driver/Src/stm32f4xx_ll_usb.c ****       }
 798              		.loc 1 376 0
 799 00e6 4FF09040 		mov	r0, #1207959552
 800 00ea C2F80009 		str	r0, [r2, #2304]
 801 00ee E5E7     		b	.L69
 802              	.L83:
 388:Drivers/STM32F4xx_HAL_Driver/Src/stm32f4xx_ll_usb.c ****   {
 803              		.loc 1 388 0
 804 00f0 0023     		movs	r3, #0
 805              	.LVL83:
 806 00f2 0AE0     		b	.L71
 807              	.LVL84:
 808              	.L87:
 392:Drivers/STM32F4xx_HAL_Driver/Src/stm32f4xx_ll_usb.c ****       {
 809              		.loc 1 392 0
 810 00f4 BBB1     		cbz	r3, .L85
 398:Drivers/STM32F4xx_HAL_Driver/Src/stm32f4xx_ll_usb.c ****       }
 811              		.loc 1 398 0
 812 00f6 4FF09047 		mov	r7, #1207959552
 813 00fa C2F8007B 		str	r7, [r2, #2816]
 814              	.L74:
 406:Drivers/STM32F4xx_HAL_Driver/Src/stm32f4xx_ll_usb.c ****     USBx_OUTEP(i)->DOEPINT  = 0xFB7FU;
 815              		.loc 1 406 0 discriminator 2
 816 00fe 0022     		movs	r2, #0
 817 0100 0261     		str	r2, [r0, #16]
 407:Drivers/STM32F4xx_HAL_Driver/Src/stm32f4xx_ll_usb.c ****   }
 818              		.loc 1 407 0 discriminator 2
 819 0102 4FF67F32 		movw	r2, #64383
 820 0106 8260     		str	r2, [r0, #8]
 388:Drivers/STM32F4xx_HAL_Driver/Src/stm32f4xx_ll_usb.c ****   {
 821              		.loc 1 388 0 discriminator 2
 822 0108 0133     		adds	r3, r3, #1
 823              	.LVL85:
 824              	.L71:
 388:Drivers/STM32F4xx_HAL_Driver/Src/stm32f4xx_ll_usb.c ****   {
 825              		.loc 1 388 0 is_stmt 0 discriminator 1
 826 010a 9942     		cmp	r1, r3
 827 010c 10D9     		bls	.L86
 390:Drivers/STM32F4xx_HAL_Driver/Src/stm32f4xx_ll_usb.c ****     {
 828              		.loc 1 390 0 is_stmt 1
 829 010e 05EB4312 		add	r2, r5, r3, lsl #5
 830 0112 02F53060 		add	r0, r2, #2816
 831 0116 D2F8007B 		ldr	r7, [r2, #2816]
 832 011a 002F     		cmp	r7, #0
 833 011c EADB     		blt	.L87
 403:Drivers/STM32F4xx_HAL_Driver/Src/stm32f4xx_ll_usb.c ****     }
 834              		.loc 1 403 0
 835 011e 0027     		movs	r7, #0
 836 0120 C2F8007B 		str	r7, [r2, #2816]
 837 0124 EBE7     		b	.L74
 838              	.L85:
 394:Drivers/STM32F4xx_HAL_Driver/Src/stm32f4xx_ll_usb.c ****       }
 839              		.loc 1 394 0
 840 0126 4FF00067 		mov	r7, #134217728
ARM GAS  /tmp/ccag9PFX.s 			page 41


 841 012a C2F8007B 		str	r7, [r2, #2816]
 842 012e E6E7     		b	.L74
 843              	.L86:
 410:Drivers/STM32F4xx_HAL_Driver/Src/stm32f4xx_ll_usb.c **** 
 844              		.loc 1 410 0
 845 0130 3369     		ldr	r3, [r6, #16]
 846              	.LVL86:
 847 0132 23F48073 		bic	r3, r3, #256
 848 0136 3361     		str	r3, [r6, #16]
 412:Drivers/STM32F4xx_HAL_Driver/Src/stm32f4xx_ll_usb.c ****   {
 849              		.loc 1 412 0
 850 0138 0A9B     		ldr	r3, [sp, #40]
 851 013a 012B     		cmp	r3, #1
 852 013c 1BD0     		beq	.L88
 853              	.L76:
 424:Drivers/STM32F4xx_HAL_Driver/Src/stm32f4xx_ll_usb.c **** 
 854              		.loc 1 424 0
 855 013e 0022     		movs	r2, #0
 856 0140 A261     		str	r2, [r4, #24]
 427:Drivers/STM32F4xx_HAL_Driver/Src/stm32f4xx_ll_usb.c **** 
 857              		.loc 1 427 0
 858 0142 6FF08042 		mvn	r2, #1073741824
 859 0146 6261     		str	r2, [r4, #20]
 430:Drivers/STM32F4xx_HAL_Driver/Src/stm32f4xx_ll_usb.c ****   {
 860              		.loc 1 430 0
 861 0148 1BB9     		cbnz	r3, .L77
 432:Drivers/STM32F4xx_HAL_Driver/Src/stm32f4xx_ll_usb.c ****   }
 862              		.loc 1 432 0
 863 014a A369     		ldr	r3, [r4, #24]
 864 014c 43F01003 		orr	r3, r3, #16
 865 0150 A361     		str	r3, [r4, #24]
 866              	.L77:
 436:Drivers/STM32F4xx_HAL_Driver/Src/stm32f4xx_ll_usb.c ****                    USB_OTG_GINTMSK_ENUMDNEM | USB_OTG_GINTMSK_IEPINT |
 867              		.loc 1 436 0
 868 0152 A269     		ldr	r2, [r4, #24]
 869 0154 104B     		ldr	r3, .L90
 870 0156 1343     		orrs	r3, r3, r2
 871 0158 A361     		str	r3, [r4, #24]
 441:Drivers/STM32F4xx_HAL_Driver/Src/stm32f4xx_ll_usb.c ****   {
 872              		.loc 1 441 0
 873 015a 0D9B     		ldr	r3, [sp, #52]
 874 015c 1BB1     		cbz	r3, .L78
 443:Drivers/STM32F4xx_HAL_Driver/Src/stm32f4xx_ll_usb.c ****   }
 875              		.loc 1 443 0
 876 015e A369     		ldr	r3, [r4, #24]
 877 0160 43F00803 		orr	r3, r3, #8
 878 0164 A361     		str	r3, [r4, #24]
 879              	.L78:
 446:Drivers/STM32F4xx_HAL_Driver/Src/stm32f4xx_ll_usb.c ****   {
 880              		.loc 1 446 0
 881 0166 119B     		ldr	r3, [sp, #68]
 882 0168 012B     		cmp	r3, #1
 883 016a 0DD0     		beq	.L89
 884              	.L79:
 452:Drivers/STM32F4xx_HAL_Driver/Src/stm32f4xx_ll_usb.c **** 
 885              		.loc 1 452 0
 886 016c 4046     		mov	r0, r8
ARM GAS  /tmp/ccag9PFX.s 			page 42


 887 016e BDE8F041 		pop	{r4, r5, r6, r7, r8, lr}
 888              	.LCFI8:
 889              		.cfi_remember_state
 890              		.cfi_restore 14
 891              		.cfi_restore 8
 892              		.cfi_restore 7
 893              		.cfi_restore 6
 894              		.cfi_restore 5
 895              		.cfi_restore 4
 896              		.cfi_def_cfa_offset 16
 897              	.LVL87:
 898 0172 04B0     		add	sp, sp, #16
 899              	.LCFI9:
 900              		.cfi_def_cfa_offset 0
 901 0174 7047     		bx	lr
 902              	.LVL88:
 903              	.L88:
 904              	.LCFI10:
 905              		.cfi_restore_state
 415:Drivers/STM32F4xx_HAL_Driver/Src/stm32f4xx_ll_usb.c ****                            USB_OTG_DTHRCTL_RXTHRLEN_6;
 906              		.loc 1 415 0
 907 0176 094A     		ldr	r2, .L90+4
 908 0178 3263     		str	r2, [r6, #48]
 418:Drivers/STM32F4xx_HAL_Driver/Src/stm32f4xx_ll_usb.c ****                             USB_OTG_DTHRCTL_ISOTHREN |
 909              		.loc 1 418 0
 910 017a 326B     		ldr	r2, [r6, #48]
 911 017c 42F48032 		orr	r2, r2, #65536
 912 0180 42F00302 		orr	r2, r2, #3
 913 0184 3263     		str	r2, [r6, #48]
 914 0186 DAE7     		b	.L76
 915              	.L89:
 448:Drivers/STM32F4xx_HAL_Driver/Src/stm32f4xx_ll_usb.c ****   }
 916              		.loc 1 448 0
 917 0188 A369     		ldr	r3, [r4, #24]
 918 018a 43F08043 		orr	r3, r3, #1073741824
 919 018e 43F00403 		orr	r3, r3, #4
 920 0192 A361     		str	r3, [r4, #24]
 921 0194 EAE7     		b	.L79
 922              	.L91:
 923 0196 00BF     		.align	2
 924              	.L90:
 925 0198 00383C80 		.word	-2143537152
 926 019c 00018000 		.word	8388864
 927              		.cfi_endproc
 928              	.LFE135:
 930              		.section	.text.USB_GetDevSpeed,"ax",%progbits
 931              		.align	1
 932              		.global	USB_GetDevSpeed
 933              		.syntax unified
 934              		.thumb
 935              		.thumb_func
 936              		.fpu fpv4-sp-d16
 938              	USB_GetDevSpeed:
 939              	.LFB139:
 531:Drivers/STM32F4xx_HAL_Driver/Src/stm32f4xx_ll_usb.c ****   uint32_t USBx_BASE = (uint32_t)USBx;
 940              		.loc 1 531 0
 941              		.cfi_startproc
ARM GAS  /tmp/ccag9PFX.s 			page 43


 942              		@ args = 0, pretend = 0, frame = 0
 943              		@ frame_needed = 0, uses_anonymous_args = 0
 944              		@ link register save eliminated.
 945              	.LVL89:
 534:Drivers/STM32F4xx_HAL_Driver/Src/stm32f4xx_ll_usb.c **** 
 946              		.loc 1 534 0
 947 0000 D0F80838 		ldr	r3, [r0, #2056]
 948              	.LVL90:
 536:Drivers/STM32F4xx_HAL_Driver/Src/stm32f4xx_ll_usb.c ****   {
 949              		.loc 1 536 0
 950 0004 13F00603 		ands	r3, r3, #6
 951              	.LVL91:
 952 0008 07D0     		beq	.L94
 540:Drivers/STM32F4xx_HAL_Driver/Src/stm32f4xx_ll_usb.c ****            (DevEnumSpeed == DSTS_ENUMSPD_FS_PHY_48MHZ))
 953              		.loc 1 540 0
 954 000a 022B     		cmp	r3, #2
 955 000c 07D0     		beq	.L95
 540:Drivers/STM32F4xx_HAL_Driver/Src/stm32f4xx_ll_usb.c ****            (DevEnumSpeed == DSTS_ENUMSPD_FS_PHY_48MHZ))
 956              		.loc 1 540 0 is_stmt 0 discriminator 1
 957 000e 062B     		cmp	r3, #6
 958 0010 01D0     		beq	.L97
 547:Drivers/STM32F4xx_HAL_Driver/Src/stm32f4xx_ll_usb.c ****   }
 959              		.loc 1 547 0 is_stmt 1
 960 0012 0F20     		movs	r0, #15
 961              	.LVL92:
 551:Drivers/STM32F4xx_HAL_Driver/Src/stm32f4xx_ll_usb.c **** 
 962              		.loc 1 551 0
 963 0014 7047     		bx	lr
 964              	.LVL93:
 965              	.L97:
 543:Drivers/STM32F4xx_HAL_Driver/Src/stm32f4xx_ll_usb.c ****   }
 966              		.loc 1 543 0
 967 0016 0220     		movs	r0, #2
 968              	.LVL94:
 969 0018 7047     		bx	lr
 970              	.LVL95:
 971              	.L94:
 538:Drivers/STM32F4xx_HAL_Driver/Src/stm32f4xx_ll_usb.c ****   }
 972              		.loc 1 538 0
 973 001a 0020     		movs	r0, #0
 974              	.LVL96:
 975 001c 7047     		bx	lr
 976              	.LVL97:
 977              	.L95:
 543:Drivers/STM32F4xx_HAL_Driver/Src/stm32f4xx_ll_usb.c ****   }
 978              		.loc 1 543 0
 979 001e 0220     		movs	r0, #2
 980              	.LVL98:
 981 0020 7047     		bx	lr
 982              		.cfi_endproc
 983              	.LFE139:
 985              		.section	.text.USB_ActivateEndpoint,"ax",%progbits
 986              		.align	1
 987              		.global	USB_ActivateEndpoint
 988              		.syntax unified
 989              		.thumb
 990              		.thumb_func
ARM GAS  /tmp/ccag9PFX.s 			page 44


 991              		.fpu fpv4-sp-d16
 993              	USB_ActivateEndpoint:
 994              	.LFB140:
 560:Drivers/STM32F4xx_HAL_Driver/Src/stm32f4xx_ll_usb.c ****   uint32_t USBx_BASE = (uint32_t)USBx;
 995              		.loc 1 560 0
 996              		.cfi_startproc
 997              		@ args = 0, pretend = 0, frame = 0
 998              		@ frame_needed = 0, uses_anonymous_args = 0
 999              		@ link register save eliminated.
 1000              	.LVL99:
 1001 0000 70B4     		push	{r4, r5, r6}
 1002              	.LCFI11:
 1003              		.cfi_def_cfa_offset 12
 1004              		.cfi_offset 4, -12
 1005              		.cfi_offset 5, -8
 1006              		.cfi_offset 6, -4
 1007              	.LVL100:
 562:Drivers/STM32F4xx_HAL_Driver/Src/stm32f4xx_ll_usb.c **** 
 1008              		.loc 1 562 0
 1009 0002 0B78     		ldrb	r3, [r1]	@ zero_extendqisi2
 1010              	.LVL101:
 564:Drivers/STM32F4xx_HAL_Driver/Src/stm32f4xx_ll_usb.c ****   {
 1011              		.loc 1 564 0
 1012 0004 4A78     		ldrb	r2, [r1, #1]	@ zero_extendqisi2
 1013 0006 012A     		cmp	r2, #1
 1014 0008 22D0     		beq	.L102
 578:Drivers/STM32F4xx_HAL_Driver/Src/stm32f4xx_ll_usb.c **** 
 1015              		.loc 1 578 0
 1016 000a D0F81C28 		ldr	r2, [r0, #2076]
 1017 000e 03F00F06 		and	r6, r3, #15
 1018 0012 0124     		movs	r4, #1
 1019 0014 B440     		lsls	r4, r4, r6
 1020 0016 42EA0442 		orr	r2, r2, r4, lsl #16
 1021 001a C0F81C28 		str	r2, [r0, #2076]
 580:Drivers/STM32F4xx_HAL_Driver/Src/stm32f4xx_ll_usb.c ****     {
 1022              		.loc 1 580 0
 1023 001e 00EB4310 		add	r0, r0, r3, lsl #5
 1024              	.LVL102:
 1025 0022 D0F8003B 		ldr	r3, [r0, #2816]
 1026              	.LVL103:
 1027 0026 13F4004F 		tst	r3, #32768
 1028 002a 0ED1     		bne	.L100
 582:Drivers/STM32F4xx_HAL_Driver/Src/stm32f4xx_ll_usb.c ****                                     ((uint32_t)ep->type << 18) |
 1029              		.loc 1 582 0
 1030 002c D0F8003B 		ldr	r3, [r0, #2816]
 1031 0030 8A68     		ldr	r2, [r1, #8]
 1032 0032 C2F30A02 		ubfx	r2, r2, #0, #11
 583:Drivers/STM32F4xx_HAL_Driver/Src/stm32f4xx_ll_usb.c ****                                     USB_OTG_DIEPCTL_SD0PID_SEVNFRM |
 1033              		.loc 1 583 0
 1034 0036 C978     		ldrb	r1, [r1, #3]	@ zero_extendqisi2
 1035              	.LVL104:
 582:Drivers/STM32F4xx_HAL_Driver/Src/stm32f4xx_ll_usb.c ****                                     ((uint32_t)ep->type << 18) |
 1036              		.loc 1 582 0
 1037 0038 42EA8142 		orr	r2, r2, r1, lsl #18
 1038 003c 1343     		orrs	r3, r3, r2
 1039 003e 43F08053 		orr	r3, r3, #268435456
 1040 0042 43F40043 		orr	r3, r3, #32768
ARM GAS  /tmp/ccag9PFX.s 			page 45


 1041 0046 C0F8003B 		str	r3, [r0, #2816]
 1042              	.L100:
 589:Drivers/STM32F4xx_HAL_Driver/Src/stm32f4xx_ll_usb.c **** 
 1043              		.loc 1 589 0
 1044 004a 0020     		movs	r0, #0
 1045 004c 70BC     		pop	{r4, r5, r6}
 1046              	.LCFI12:
 1047              		.cfi_remember_state
 1048              		.cfi_restore 6
 1049              		.cfi_restore 5
 1050              		.cfi_restore 4
 1051              		.cfi_def_cfa_offset 0
 1052 004e 7047     		bx	lr
 1053              	.LVL105:
 1054              	.L102:
 1055              	.LCFI13:
 1056              		.cfi_restore_state
 566:Drivers/STM32F4xx_HAL_Driver/Src/stm32f4xx_ll_usb.c **** 
 1057              		.loc 1 566 0
 1058 0050 D0F81C48 		ldr	r4, [r0, #2076]
 1059 0054 03F00F06 		and	r6, r3, #15
 1060 0058 B240     		lsls	r2, r2, r6
 1061 005a 92B2     		uxth	r2, r2
 1062 005c 2243     		orrs	r2, r2, r4
 1063 005e C0F81C28 		str	r2, [r0, #2076]
 568:Drivers/STM32F4xx_HAL_Driver/Src/stm32f4xx_ll_usb.c ****     {
 1064              		.loc 1 568 0
 1065 0062 00EB4310 		add	r0, r0, r3, lsl #5
 1066              	.LVL106:
 1067 0066 D0F80029 		ldr	r2, [r0, #2304]
 1068 006a 12F4004F 		tst	r2, #32768
 1069 006e ECD1     		bne	.L100
 570:Drivers/STM32F4xx_HAL_Driver/Src/stm32f4xx_ll_usb.c ****                                    ((uint32_t)ep->type << 18) | (epnum << 22) |
 1070              		.loc 1 570 0
 1071 0070 D0F80029 		ldr	r2, [r0, #2304]
 1072 0074 8C68     		ldr	r4, [r1, #8]
 1073 0076 C4F30A04 		ubfx	r4, r4, #0, #11
 571:Drivers/STM32F4xx_HAL_Driver/Src/stm32f4xx_ll_usb.c ****                                    USB_OTG_DIEPCTL_SD0PID_SEVNFRM |
 1074              		.loc 1 571 0
 1075 007a C978     		ldrb	r1, [r1, #3]	@ zero_extendqisi2
 1076              	.LVL107:
 570:Drivers/STM32F4xx_HAL_Driver/Src/stm32f4xx_ll_usb.c ****                                    ((uint32_t)ep->type << 18) | (epnum << 22) |
 1077              		.loc 1 570 0
 1078 007c 44EA8144 		orr	r4, r4, r1, lsl #18
 571:Drivers/STM32F4xx_HAL_Driver/Src/stm32f4xx_ll_usb.c ****                                    USB_OTG_DIEPCTL_SD0PID_SEVNFRM |
 1079              		.loc 1 571 0
 1080 0080 44EA8353 		orr	r3, r4, r3, lsl #22
 1081              	.LVL108:
 570:Drivers/STM32F4xx_HAL_Driver/Src/stm32f4xx_ll_usb.c ****                                    ((uint32_t)ep->type << 18) | (epnum << 22) |
 1082              		.loc 1 570 0
 1083 0084 1343     		orrs	r3, r3, r2
 1084 0086 43F08053 		orr	r3, r3, #268435456
 1085 008a 43F40043 		orr	r3, r3, #32768
 1086 008e C0F80039 		str	r3, [r0, #2304]
 1087 0092 DAE7     		b	.L100
 1088              		.cfi_endproc
 1089              	.LFE140:
ARM GAS  /tmp/ccag9PFX.s 			page 46


 1091              		.section	.text.USB_ActivateDedicatedEndpoint,"ax",%progbits
 1092              		.align	1
 1093              		.global	USB_ActivateDedicatedEndpoint
 1094              		.syntax unified
 1095              		.thumb
 1096              		.thumb_func
 1097              		.fpu fpv4-sp-d16
 1099              	USB_ActivateDedicatedEndpoint:
 1100              	.LFB141:
 598:Drivers/STM32F4xx_HAL_Driver/Src/stm32f4xx_ll_usb.c ****   uint32_t USBx_BASE = (uint32_t)USBx;
 1101              		.loc 1 598 0
 1102              		.cfi_startproc
 1103              		@ args = 0, pretend = 0, frame = 0
 1104              		@ frame_needed = 0, uses_anonymous_args = 0
 1105              		@ link register save eliminated.
 1106              	.LVL109:
 1107 0000 70B4     		push	{r4, r5, r6}
 1108              	.LCFI14:
 1109              		.cfi_def_cfa_offset 12
 1110              		.cfi_offset 4, -12
 1111              		.cfi_offset 5, -8
 1112              		.cfi_offset 6, -4
 1113              	.LVL110:
 600:Drivers/STM32F4xx_HAL_Driver/Src/stm32f4xx_ll_usb.c **** 
 1114              		.loc 1 600 0
 1115 0002 0A78     		ldrb	r2, [r1]	@ zero_extendqisi2
 1116              	.LVL111:
 603:Drivers/STM32F4xx_HAL_Driver/Src/stm32f4xx_ll_usb.c ****   {
 1117              		.loc 1 603 0
 1118 0004 4B78     		ldrb	r3, [r1, #1]	@ zero_extendqisi2
 1119 0006 012B     		cmp	r3, #1
 1120 0008 23D0     		beq	.L109
 617:Drivers/STM32F4xx_HAL_Driver/Src/stm32f4xx_ll_usb.c ****     {
 1121              		.loc 1 617 0
 1122 000a 00EB4214 		add	r4, r0, r2, lsl #5
 1123 000e D4F8003B 		ldr	r3, [r4, #2816]
 1124 0012 13F4004F 		tst	r3, #32768
 1125 0016 0ED1     		bne	.L107
 619:Drivers/STM32F4xx_HAL_Driver/Src/stm32f4xx_ll_usb.c ****                                     ((uint32_t)ep->type << 18) | (epnum << 22) |
 1126              		.loc 1 619 0
 1127 0018 D4F8005B 		ldr	r5, [r4, #2816]
 1128 001c 8B68     		ldr	r3, [r1, #8]
 1129 001e C3F30A03 		ubfx	r3, r3, #0, #11
 620:Drivers/STM32F4xx_HAL_Driver/Src/stm32f4xx_ll_usb.c ****                                     USB_OTG_DOEPCTL_USBAEP;
 1130              		.loc 1 620 0
 1131 0022 CE78     		ldrb	r6, [r1, #3]	@ zero_extendqisi2
 619:Drivers/STM32F4xx_HAL_Driver/Src/stm32f4xx_ll_usb.c ****                                     ((uint32_t)ep->type << 18) | (epnum << 22) |
 1132              		.loc 1 619 0
 1133 0024 43EA8643 		orr	r3, r3, r6, lsl #18
 620:Drivers/STM32F4xx_HAL_Driver/Src/stm32f4xx_ll_usb.c ****                                     USB_OTG_DOEPCTL_USBAEP;
 1134              		.loc 1 620 0
 1135 0028 43EA8253 		orr	r3, r3, r2, lsl #22
 619:Drivers/STM32F4xx_HAL_Driver/Src/stm32f4xx_ll_usb.c ****                                     ((uint32_t)ep->type << 18) | (epnum << 22) |
 1136              		.loc 1 619 0
 1137 002c 2B43     		orrs	r3, r3, r5
 1138 002e 43F40043 		orr	r3, r3, #32768
 1139 0032 C4F8003B 		str	r3, [r4, #2816]
ARM GAS  /tmp/ccag9PFX.s 			page 47


 1140              	.L107:
 624:Drivers/STM32F4xx_HAL_Driver/Src/stm32f4xx_ll_usb.c ****   }
 1141              		.loc 1 624 0
 1142 0036 D0F83C38 		ldr	r3, [r0, #2108]
 1143 003a 0A78     		ldrb	r2, [r1]	@ zero_extendqisi2
 1144              	.LVL112:
 1145 003c 02F00F01 		and	r1, r2, #15
 1146              	.LVL113:
 1147 0040 0122     		movs	r2, #1
 1148 0042 8A40     		lsls	r2, r2, r1
 1149 0044 43EA0243 		orr	r3, r3, r2, lsl #16
 1150 0048 C0F83C38 		str	r3, [r0, #2108]
 1151              	.L106:
 628:Drivers/STM32F4xx_HAL_Driver/Src/stm32f4xx_ll_usb.c **** 
 1152              		.loc 1 628 0
 1153 004c 0020     		movs	r0, #0
 1154              	.LVL114:
 1155 004e 70BC     		pop	{r4, r5, r6}
 1156              	.LCFI15:
 1157              		.cfi_remember_state
 1158              		.cfi_restore 6
 1159              		.cfi_restore 5
 1160              		.cfi_restore 4
 1161              		.cfi_def_cfa_offset 0
 1162 0050 7047     		bx	lr
 1163              	.LVL115:
 1164              	.L109:
 1165              	.LCFI16:
 1166              		.cfi_restore_state
 605:Drivers/STM32F4xx_HAL_Driver/Src/stm32f4xx_ll_usb.c ****     {
 1167              		.loc 1 605 0
 1168 0052 00EB4215 		add	r5, r0, r2, lsl #5
 1169 0056 D5F80039 		ldr	r3, [r5, #2304]
 1170 005a 13F4004F 		tst	r3, #32768
 1171 005e 10D1     		bne	.L105
 607:Drivers/STM32F4xx_HAL_Driver/Src/stm32f4xx_ll_usb.c ****                                    ((uint32_t)ep->type << 18) | (epnum << 22) |
 1172              		.loc 1 607 0
 1173 0060 D5F80039 		ldr	r3, [r5, #2304]
 1174 0064 8C68     		ldr	r4, [r1, #8]
 1175 0066 C4F30A04 		ubfx	r4, r4, #0, #11
 608:Drivers/STM32F4xx_HAL_Driver/Src/stm32f4xx_ll_usb.c ****                                    USB_OTG_DIEPCTL_SD0PID_SEVNFRM |
 1176              		.loc 1 608 0
 1177 006a CE78     		ldrb	r6, [r1, #3]	@ zero_extendqisi2
 607:Drivers/STM32F4xx_HAL_Driver/Src/stm32f4xx_ll_usb.c ****                                    ((uint32_t)ep->type << 18) | (epnum << 22) |
 1178              		.loc 1 607 0
 1179 006c 44EA8644 		orr	r4, r4, r6, lsl #18
 608:Drivers/STM32F4xx_HAL_Driver/Src/stm32f4xx_ll_usb.c ****                                    USB_OTG_DIEPCTL_SD0PID_SEVNFRM |
 1180              		.loc 1 608 0
 1181 0070 44EA8252 		orr	r2, r4, r2, lsl #22
 1182              	.LVL116:
 607:Drivers/STM32F4xx_HAL_Driver/Src/stm32f4xx_ll_usb.c ****                                    ((uint32_t)ep->type << 18) | (epnum << 22) |
 1183              		.loc 1 607 0
 1184 0074 1343     		orrs	r3, r3, r2
 1185 0076 43F08053 		orr	r3, r3, #268435456
 1186 007a 43F40043 		orr	r3, r3, #32768
 1187 007e C5F80039 		str	r3, [r5, #2304]
 1188              	.LVL117:
ARM GAS  /tmp/ccag9PFX.s 			page 48


 1189              	.L105:
 613:Drivers/STM32F4xx_HAL_Driver/Src/stm32f4xx_ll_usb.c ****   }
 1190              		.loc 1 613 0
 1191 0082 D0F83C28 		ldr	r2, [r0, #2108]
 1192 0086 0B78     		ldrb	r3, [r1]	@ zero_extendqisi2
 1193 0088 03F00F01 		and	r1, r3, #15
 1194              	.LVL118:
 1195 008c 0123     		movs	r3, #1
 1196 008e 8B40     		lsls	r3, r3, r1
 1197 0090 9BB2     		uxth	r3, r3
 1198 0092 1343     		orrs	r3, r3, r2
 1199 0094 C0F83C38 		str	r3, [r0, #2108]
 1200 0098 D8E7     		b	.L106
 1201              		.cfi_endproc
 1202              	.LFE141:
 1204              		.section	.text.USB_DeactivateEndpoint,"ax",%progbits
 1205              		.align	1
 1206              		.global	USB_DeactivateEndpoint
 1207              		.syntax unified
 1208              		.thumb
 1209              		.thumb_func
 1210              		.fpu fpv4-sp-d16
 1212              	USB_DeactivateEndpoint:
 1213              	.LFB142:
 637:Drivers/STM32F4xx_HAL_Driver/Src/stm32f4xx_ll_usb.c ****   uint32_t USBx_BASE = (uint32_t)USBx;
 1214              		.loc 1 637 0
 1215              		.cfi_startproc
 1216              		@ args = 0, pretend = 0, frame = 0
 1217              		@ frame_needed = 0, uses_anonymous_args = 0
 1218              		@ link register save eliminated.
 1219              	.LVL119:
 1220 0000 70B4     		push	{r4, r5, r6}
 1221              	.LCFI17:
 1222              		.cfi_def_cfa_offset 12
 1223              		.cfi_offset 4, -12
 1224              		.cfi_offset 5, -8
 1225              		.cfi_offset 6, -4
 1226              	.LVL120:
 639:Drivers/STM32F4xx_HAL_Driver/Src/stm32f4xx_ll_usb.c **** 
 1227              		.loc 1 639 0
 1228 0002 0B78     		ldrb	r3, [r1]	@ zero_extendqisi2
 1229              	.LVL121:
 642:Drivers/STM32F4xx_HAL_Driver/Src/stm32f4xx_ll_usb.c ****   {
 1230              		.loc 1 642 0
 1231 0004 4A78     		ldrb	r2, [r1, #1]	@ zero_extendqisi2
 1232 0006 012A     		cmp	r2, #1
 1233 0008 1FD0     		beq	.L114
 654:Drivers/STM32F4xx_HAL_Driver/Src/stm32f4xx_ll_usb.c ****     USBx_DEVICE->DAINTMSK &= ~(USB_OTG_DAINTMSK_OEPM & ((uint32_t)(1UL << (ep->num & EP_ADDR_MSK)) 
 1234              		.loc 1 654 0
 1235 000a D0F83C58 		ldr	r5, [r0, #2108]
 1236 000e 03F00F06 		and	r6, r3, #15
 1237 0012 0124     		movs	r4, #1
 1238 0014 04FA06F6 		lsl	r6, r4, r6
 1239 0018 25EA0645 		bic	r5, r5, r6, lsl #16
 1240 001c C0F83C58 		str	r5, [r0, #2108]
 655:Drivers/STM32F4xx_HAL_Driver/Src/stm32f4xx_ll_usb.c ****     USBx_OUTEP(epnum)->DOEPCTL &= ~(USB_OTG_DOEPCTL_USBAEP |
 1241              		.loc 1 655 0
ARM GAS  /tmp/ccag9PFX.s 			page 49


 1242 0020 D0F81C58 		ldr	r5, [r0, #2076]
 1243 0024 0978     		ldrb	r1, [r1]	@ zero_extendqisi2
 1244              	.LVL122:
 1245 0026 01F00F01 		and	r1, r1, #15
 1246 002a 8C40     		lsls	r4, r4, r1
 1247 002c 25EA0444 		bic	r4, r5, r4, lsl #16
 1248 0030 C0F81C48 		str	r4, [r0, #2076]
 656:Drivers/STM32F4xx_HAL_Driver/Src/stm32f4xx_ll_usb.c ****                                     USB_OTG_DOEPCTL_MPSIZ |
 1249              		.loc 1 656 0
 1250 0034 00EB4310 		add	r0, r0, r3, lsl #5
 1251              	.LVL123:
 1252 0038 D0F8002B 		ldr	r2, [r0, #2816]
 1253 003c 124B     		ldr	r3, .L115
 1254              	.LVL124:
 1255 003e 1340     		ands	r3, r3, r2
 1256 0040 C0F8003B 		str	r3, [r0, #2816]
 1257              	.L112:
 663:Drivers/STM32F4xx_HAL_Driver/Src/stm32f4xx_ll_usb.c **** 
 1258              		.loc 1 663 0
 1259 0044 0020     		movs	r0, #0
 1260 0046 70BC     		pop	{r4, r5, r6}
 1261              	.LCFI18:
 1262              		.cfi_remember_state
 1263              		.cfi_restore 6
 1264              		.cfi_restore 5
 1265              		.cfi_restore 4
 1266              		.cfi_def_cfa_offset 0
 1267 0048 7047     		bx	lr
 1268              	.LVL125:
 1269              	.L114:
 1270              	.LCFI19:
 1271              		.cfi_restore_state
 644:Drivers/STM32F4xx_HAL_Driver/Src/stm32f4xx_ll_usb.c ****     USBx_DEVICE->DAINTMSK &= ~(USB_OTG_DAINTMSK_IEPM & (uint32_t)(1UL << (ep->num & EP_ADDR_MSK)));
 1272              		.loc 1 644 0
 1273 004a D0F83C68 		ldr	r6, [r0, #2108]
 1274 004e 03F00F04 		and	r4, r3, #15
 1275 0052 02FA04F4 		lsl	r4, r2, r4
 1276 0056 A4B2     		uxth	r4, r4
 1277 0058 26EA0404 		bic	r4, r6, r4
 1278 005c C0F83C48 		str	r4, [r0, #2108]
 645:Drivers/STM32F4xx_HAL_Driver/Src/stm32f4xx_ll_usb.c ****     USBx_INEP(epnum)->DIEPCTL &= ~(USB_OTG_DIEPCTL_USBAEP |
 1279              		.loc 1 645 0
 1280 0060 D0F81C48 		ldr	r4, [r0, #2076]
 1281 0064 0978     		ldrb	r1, [r1]	@ zero_extendqisi2
 1282              	.LVL126:
 1283 0066 01F00F01 		and	r1, r1, #15
 1284 006a 8A40     		lsls	r2, r2, r1
 1285 006c 92B2     		uxth	r2, r2
 1286 006e 24EA0202 		bic	r2, r4, r2
 1287 0072 C0F81C28 		str	r2, [r0, #2076]
 646:Drivers/STM32F4xx_HAL_Driver/Src/stm32f4xx_ll_usb.c ****                                    USB_OTG_DIEPCTL_MPSIZ |
 1288              		.loc 1 646 0
 1289 0076 00EB4310 		add	r0, r0, r3, lsl #5
 1290              	.LVL127:
 1291 007a D0F80039 		ldr	r3, [r0, #2304]
 1292              	.LVL128:
 1293 007e 034A     		ldr	r2, .L115+4
ARM GAS  /tmp/ccag9PFX.s 			page 50


 1294 0080 1A40     		ands	r2, r2, r3
 1295 0082 C0F80029 		str	r2, [r0, #2304]
 1296 0086 DDE7     		b	.L112
 1297              	.L116:
 1298              		.align	2
 1299              	.L115:
 1300 0088 0078F3EF 		.word	-269256704
 1301 008c 007833EC 		.word	-332171264
 1302              		.cfi_endproc
 1303              	.LFE142:
 1305              		.section	.text.USB_DeactivateDedicatedEndpoint,"ax",%progbits
 1306              		.align	1
 1307              		.global	USB_DeactivateDedicatedEndpoint
 1308              		.syntax unified
 1309              		.thumb
 1310              		.thumb_func
 1311              		.fpu fpv4-sp-d16
 1313              	USB_DeactivateDedicatedEndpoint:
 1314              	.LFB143:
 672:Drivers/STM32F4xx_HAL_Driver/Src/stm32f4xx_ll_usb.c ****   uint32_t USBx_BASE = (uint32_t)USBx;
 1315              		.loc 1 672 0
 1316              		.cfi_startproc
 1317              		@ args = 0, pretend = 0, frame = 0
 1318              		@ frame_needed = 0, uses_anonymous_args = 0
 1319              		@ link register save eliminated.
 1320              	.LVL129:
 674:Drivers/STM32F4xx_HAL_Driver/Src/stm32f4xx_ll_usb.c **** 
 1321              		.loc 1 674 0
 1322 0000 0B78     		ldrb	r3, [r1]	@ zero_extendqisi2
 1323              	.LVL130:
 677:Drivers/STM32F4xx_HAL_Driver/Src/stm32f4xx_ll_usb.c ****   {
 1324              		.loc 1 677 0
 1325 0002 4A78     		ldrb	r2, [r1, #1]	@ zero_extendqisi2
 1326 0004 012A     		cmp	r2, #1
 1327 0006 14D0     		beq	.L120
 684:Drivers/STM32F4xx_HAL_Driver/Src/stm32f4xx_ll_usb.c ****     USBx_DEVICE->DAINTMSK &= ~(USB_OTG_DAINTMSK_OEPM & ((uint32_t)(1UL << (ep->num & EP_ADDR_MSK)) 
 1328              		.loc 1 684 0
 1329 0008 00EB4313 		add	r3, r0, r3, lsl #5
 1330              	.LVL131:
 1331 000c D3F8002B 		ldr	r2, [r3, #2816]
 1332 0010 22F40042 		bic	r2, r2, #32768
 1333 0014 C3F8002B 		str	r2, [r3, #2816]
 1334              	.LVL132:
 685:Drivers/STM32F4xx_HAL_Driver/Src/stm32f4xx_ll_usb.c ****   }
 1335              		.loc 1 685 0
 1336 0018 D0F81C38 		ldr	r3, [r0, #2076]
 1337 001c 0A78     		ldrb	r2, [r1]	@ zero_extendqisi2
 1338 001e 02F00F01 		and	r1, r2, #15
 1339              	.LVL133:
 1340 0022 0122     		movs	r2, #1
 1341 0024 8A40     		lsls	r2, r2, r1
 1342 0026 23EA0243 		bic	r3, r3, r2, lsl #16
 1343 002a C0F81C38 		str	r3, [r0, #2076]
 1344              	.L119:
 689:Drivers/STM32F4xx_HAL_Driver/Src/stm32f4xx_ll_usb.c **** 
 1345              		.loc 1 689 0
 1346 002e 0020     		movs	r0, #0
ARM GAS  /tmp/ccag9PFX.s 			page 51


 1347              	.LVL134:
 1348 0030 7047     		bx	lr
 1349              	.LVL135:
 1350              	.L120:
 679:Drivers/STM32F4xx_HAL_Driver/Src/stm32f4xx_ll_usb.c ****     USBx_DEVICE->DAINTMSK &= ~(USB_OTG_DAINTMSK_IEPM & (uint32_t)(1UL << (ep->num & EP_ADDR_MSK)));
 1351              		.loc 1 679 0
 1352 0032 00EB4313 		add	r3, r0, r3, lsl #5
 1353              	.LVL136:
 1354 0036 D3F80029 		ldr	r2, [r3, #2304]
 1355 003a 22F40042 		bic	r2, r2, #32768
 1356 003e C3F80029 		str	r2, [r3, #2304]
 1357              	.LVL137:
 680:Drivers/STM32F4xx_HAL_Driver/Src/stm32f4xx_ll_usb.c ****   }
 1358              		.loc 1 680 0
 1359 0042 D0F81C28 		ldr	r2, [r0, #2076]
 1360 0046 0B78     		ldrb	r3, [r1]	@ zero_extendqisi2
 1361 0048 03F00F01 		and	r1, r3, #15
 1362              	.LVL138:
 1363 004c 0123     		movs	r3, #1
 1364 004e 8B40     		lsls	r3, r3, r1
 1365 0050 9BB2     		uxth	r3, r3
 1366 0052 22EA0303 		bic	r3, r2, r3
 1367 0056 C0F81C38 		str	r3, [r0, #2076]
 1368 005a E8E7     		b	.L119
 1369              		.cfi_endproc
 1370              	.LFE143:
 1372              		.section	.text.USB_EP0StartXfer,"ax",%progbits
 1373              		.align	1
 1374              		.global	USB_EP0StartXfer
 1375              		.syntax unified
 1376              		.thumb
 1377              		.thumb_func
 1378              		.fpu fpv4-sp-d16
 1380              	USB_EP0StartXfer:
 1381              	.LFB145:
 844:Drivers/STM32F4xx_HAL_Driver/Src/stm32f4xx_ll_usb.c ****   uint32_t USBx_BASE = (uint32_t)USBx;
 1382              		.loc 1 844 0
 1383              		.cfi_startproc
 1384              		@ args = 0, pretend = 0, frame = 0
 1385              		@ frame_needed = 0, uses_anonymous_args = 0
 1386              		@ link register save eliminated.
 1387              	.LVL139:
 1388 0000 70B4     		push	{r4, r5, r6}
 1389              	.LCFI20:
 1390              		.cfi_def_cfa_offset 12
 1391              		.cfi_offset 4, -12
 1392              		.cfi_offset 5, -8
 1393              		.cfi_offset 6, -4
 1394              	.LVL140:
 846:Drivers/STM32F4xx_HAL_Driver/Src/stm32f4xx_ll_usb.c **** 
 1395              		.loc 1 846 0
 1396 0002 0B78     		ldrb	r3, [r1]	@ zero_extendqisi2
 1397              	.LVL141:
 849:Drivers/STM32F4xx_HAL_Driver/Src/stm32f4xx_ll_usb.c ****   {
 1398              		.loc 1 849 0
 1399 0004 4C78     		ldrb	r4, [r1, #1]	@ zero_extendqisi2
 1400 0006 012C     		cmp	r4, #1
ARM GAS  /tmp/ccag9PFX.s 			page 52


 1401 0008 26D0     		beq	.L132
 904:Drivers/STM32F4xx_HAL_Driver/Src/stm32f4xx_ll_usb.c ****     USBx_OUTEP(epnum)->DOEPTSIZ &= ~(USB_OTG_DOEPTSIZ_PKTCNT);
 1402              		.loc 1 904 0
 1403 000a 00EB4310 		add	r0, r0, r3, lsl #5
 1404              	.LVL142:
 1405 000e 00F53063 		add	r3, r0, #2816
 1406              	.LVL143:
 1407 0012 1C69     		ldr	r4, [r3, #16]
 1408 0014 E40C     		lsrs	r4, r4, #19
 1409 0016 E404     		lsls	r4, r4, #19
 1410 0018 1C61     		str	r4, [r3, #16]
 1411              	.LVL144:
 905:Drivers/STM32F4xx_HAL_Driver/Src/stm32f4xx_ll_usb.c **** 
 1412              		.loc 1 905 0
 1413 001a 1C69     		ldr	r4, [r3, #16]
 1414 001c 24F0FF54 		bic	r4, r4, #534773760
 1415 0020 24F4C014 		bic	r4, r4, #1572864
 1416 0024 1C61     		str	r4, [r3, #16]
 907:Drivers/STM32F4xx_HAL_Driver/Src/stm32f4xx_ll_usb.c ****     {
 1417              		.loc 1 907 0
 1418 0026 4C69     		ldr	r4, [r1, #20]
 1419 0028 0CB1     		cbz	r4, .L129
 909:Drivers/STM32F4xx_HAL_Driver/Src/stm32f4xx_ll_usb.c ****     }
 1420              		.loc 1 909 0
 1421 002a 8C68     		ldr	r4, [r1, #8]
 1422 002c 4C61     		str	r4, [r1, #20]
 1423              	.L129:
 912:Drivers/STM32F4xx_HAL_Driver/Src/stm32f4xx_ll_usb.c ****     USBx_OUTEP(epnum)->DOEPTSIZ |= (USB_OTG_DOEPTSIZ_XFRSIZ & (ep->maxpacket));
 1424              		.loc 1 912 0
 1425 002e 1C69     		ldr	r4, [r3, #16]
 1426 0030 44F40024 		orr	r4, r4, #524288
 1427 0034 1C61     		str	r4, [r3, #16]
 913:Drivers/STM32F4xx_HAL_Driver/Src/stm32f4xx_ll_usb.c **** 
 1428              		.loc 1 913 0
 1429 0036 1C69     		ldr	r4, [r3, #16]
 1430 0038 8D68     		ldr	r5, [r1, #8]
 1431 003a C5F31205 		ubfx	r5, r5, #0, #19
 1432 003e 2C43     		orrs	r4, r4, r5
 1433 0040 1C61     		str	r4, [r3, #16]
 915:Drivers/STM32F4xx_HAL_Driver/Src/stm32f4xx_ll_usb.c ****     {
 1434              		.loc 1 915 0
 1435 0042 012A     		cmp	r2, #1
 1436 0044 65D0     		beq	.L133
 1437              	.LVL145:
 1438              	.L130:
 924:Drivers/STM32F4xx_HAL_Driver/Src/stm32f4xx_ll_usb.c ****   }
 1439              		.loc 1 924 0
 1440 0046 D0F8003B 		ldr	r3, [r0, #2816]
 1441 004a 43F00443 		orr	r3, r3, #-2080374784
 1442 004e C0F8003B 		str	r3, [r0, #2816]
 1443              	.LVL146:
 1444              	.L128:
 928:Drivers/STM32F4xx_HAL_Driver/Src/stm32f4xx_ll_usb.c **** 
 1445              		.loc 1 928 0
 1446 0052 0020     		movs	r0, #0
 1447 0054 70BC     		pop	{r4, r5, r6}
 1448              	.LCFI21:
ARM GAS  /tmp/ccag9PFX.s 			page 53


 1449              		.cfi_remember_state
 1450              		.cfi_restore 6
 1451              		.cfi_restore 5
 1452              		.cfi_restore 4
 1453              		.cfi_def_cfa_offset 0
 1454 0056 7047     		bx	lr
 1455              	.LVL147:
 1456              	.L132:
 1457              	.LCFI22:
 1458              		.cfi_restore_state
 852:Drivers/STM32F4xx_HAL_Driver/Src/stm32f4xx_ll_usb.c ****     {
 1459              		.loc 1 852 0
 1460 0058 4C69     		ldr	r4, [r1, #20]
 1461 005a 6CBB     		cbnz	r4, .L123
 854:Drivers/STM32F4xx_HAL_Driver/Src/stm32f4xx_ll_usb.c ****       USBx_INEP(epnum)->DIEPTSIZ |= (USB_OTG_DIEPTSIZ_PKTCNT & (1U << 19));
 1462              		.loc 1 854 0
 1463 005c 00EB4314 		add	r4, r0, r3, lsl #5
 1464 0060 D4F81059 		ldr	r5, [r4, #2320]
 1465 0064 25F0FF55 		bic	r5, r5, #534773760
 1466 0068 25F4C015 		bic	r5, r5, #1572864
 1467 006c C4F81059 		str	r5, [r4, #2320]
 855:Drivers/STM32F4xx_HAL_Driver/Src/stm32f4xx_ll_usb.c ****       USBx_INEP(epnum)->DIEPTSIZ &= ~(USB_OTG_DIEPTSIZ_XFRSIZ);
 1468              		.loc 1 855 0
 1469 0070 D4F81059 		ldr	r5, [r4, #2320]
 1470 0074 45F40025 		orr	r5, r5, #524288
 1471 0078 C4F81059 		str	r5, [r4, #2320]
 856:Drivers/STM32F4xx_HAL_Driver/Src/stm32f4xx_ll_usb.c ****     }
 1472              		.loc 1 856 0
 1473 007c D4F81059 		ldr	r5, [r4, #2320]
 1474 0080 ED0C     		lsrs	r5, r5, #19
 1475 0082 ED04     		lsls	r5, r5, #19
 1476 0084 C4F81059 		str	r5, [r4, #2320]
 1477              	.L124:
 876:Drivers/STM32F4xx_HAL_Driver/Src/stm32f4xx_ll_usb.c ****     {
 1478              		.loc 1 876 0
 1479 0088 012A     		cmp	r2, #1
 1480 008a 33D0     		beq	.L134
 889:Drivers/STM32F4xx_HAL_Driver/Src/stm32f4xx_ll_usb.c **** 
 1481              		.loc 1 889 0
 1482 008c 00EB4313 		add	r3, r0, r3, lsl #5
 1483              	.LVL148:
 1484 0090 D3F80029 		ldr	r2, [r3, #2304]
 1485              	.LVL149:
 1486 0094 42F00442 		orr	r2, r2, #-2080374784
 1487 0098 C3F80029 		str	r2, [r3, #2304]
 892:Drivers/STM32F4xx_HAL_Driver/Src/stm32f4xx_ll_usb.c ****       {
 1488              		.loc 1 892 0
 1489 009c 4B69     		ldr	r3, [r1, #20]
 1490 009e 002B     		cmp	r3, #0
 1491 00a0 D7D0     		beq	.L128
 894:Drivers/STM32F4xx_HAL_Driver/Src/stm32f4xx_ll_usb.c ****       }
 1492              		.loc 1 894 0
 1493 00a2 D0F83428 		ldr	r2, [r0, #2100]
 1494 00a6 0978     		ldrb	r1, [r1]	@ zero_extendqisi2
 1495              	.LVL150:
 1496 00a8 01F00F04 		and	r4, r1, #15
 1497 00ac 0121     		movs	r1, #1
ARM GAS  /tmp/ccag9PFX.s 			page 54


 1498 00ae A140     		lsls	r1, r1, r4
 1499 00b0 0A43     		orrs	r2, r2, r1
 1500 00b2 C0F83428 		str	r2, [r0, #2100]
 1501 00b6 CCE7     		b	.L128
 1502              	.LVL151:
 1503              	.L123:
 865:Drivers/STM32F4xx_HAL_Driver/Src/stm32f4xx_ll_usb.c ****       USBx_INEP(epnum)->DIEPTSIZ &= ~(USB_OTG_DIEPTSIZ_PKTCNT);
 1504              		.loc 1 865 0
 1505 00b8 00EB4314 		add	r4, r0, r3, lsl #5
 1506 00bc 04F51064 		add	r4, r4, #2304
 1507 00c0 2569     		ldr	r5, [r4, #16]
 1508 00c2 ED0C     		lsrs	r5, r5, #19
 1509 00c4 ED04     		lsls	r5, r5, #19
 1510 00c6 2561     		str	r5, [r4, #16]
 866:Drivers/STM32F4xx_HAL_Driver/Src/stm32f4xx_ll_usb.c **** 
 1511              		.loc 1 866 0
 1512 00c8 2569     		ldr	r5, [r4, #16]
 1513 00ca 25F0FF55 		bic	r5, r5, #534773760
 1514 00ce 25F4C015 		bic	r5, r5, #1572864
 1515 00d2 2561     		str	r5, [r4, #16]
 868:Drivers/STM32F4xx_HAL_Driver/Src/stm32f4xx_ll_usb.c ****       {
 1516              		.loc 1 868 0
 1517 00d4 4E69     		ldr	r6, [r1, #20]
 1518 00d6 8D68     		ldr	r5, [r1, #8]
 1519 00d8 AE42     		cmp	r6, r5
 1520 00da 00D9     		bls	.L125
 870:Drivers/STM32F4xx_HAL_Driver/Src/stm32f4xx_ll_usb.c ****       }
 1521              		.loc 1 870 0
 1522 00dc 4D61     		str	r5, [r1, #20]
 1523              	.L125:
 872:Drivers/STM32F4xx_HAL_Driver/Src/stm32f4xx_ll_usb.c ****       USBx_INEP(epnum)->DIEPTSIZ |= (USB_OTG_DIEPTSIZ_XFRSIZ & ep->xfer_len);
 1524              		.loc 1 872 0
 1525 00de 2569     		ldr	r5, [r4, #16]
 1526 00e0 45F40025 		orr	r5, r5, #524288
 1527 00e4 2561     		str	r5, [r4, #16]
 873:Drivers/STM32F4xx_HAL_Driver/Src/stm32f4xx_ll_usb.c ****     }
 1528              		.loc 1 873 0
 1529 00e6 2569     		ldr	r5, [r4, #16]
 1530 00e8 4E69     		ldr	r6, [r1, #20]
 1531 00ea C6F31206 		ubfx	r6, r6, #0, #19
 1532 00ee 3543     		orrs	r5, r5, r6
 1533 00f0 2561     		str	r5, [r4, #16]
 1534 00f2 C9E7     		b	.L124
 1535              	.L134:
 878:Drivers/STM32F4xx_HAL_Driver/Src/stm32f4xx_ll_usb.c ****       {
 1536              		.loc 1 878 0
 1537 00f4 0A69     		ldr	r2, [r1, #16]
 1538              	.LVL152:
 1539 00f6 1AB1     		cbz	r2, .L127
 880:Drivers/STM32F4xx_HAL_Driver/Src/stm32f4xx_ll_usb.c ****       }
 1540              		.loc 1 880 0
 1541 00f8 00EB4311 		add	r1, r0, r3, lsl #5
 1542              	.LVL153:
 1543 00fc C1F81429 		str	r2, [r1, #2324]
 1544              	.L127:
 884:Drivers/STM32F4xx_HAL_Driver/Src/stm32f4xx_ll_usb.c ****     }
 1545              		.loc 1 884 0
ARM GAS  /tmp/ccag9PFX.s 			page 55


 1546 0100 00EB4310 		add	r0, r0, r3, lsl #5
 1547              	.LVL154:
 1548 0104 D0F80029 		ldr	r2, [r0, #2304]
 1549 0108 42F00442 		orr	r2, r2, #-2080374784
 1550 010c C0F80029 		str	r2, [r0, #2304]
 1551 0110 9FE7     		b	.L128
 1552              	.LVL155:
 1553              	.L133:
 917:Drivers/STM32F4xx_HAL_Driver/Src/stm32f4xx_ll_usb.c ****       {
 1554              		.loc 1 917 0
 1555 0112 CA68     		ldr	r2, [r1, #12]
 1556              	.LVL156:
 1557 0114 002A     		cmp	r2, #0
 1558 0116 96D0     		beq	.L130
 919:Drivers/STM32F4xx_HAL_Driver/Src/stm32f4xx_ll_usb.c ****       }
 1559              		.loc 1 919 0
 1560 0118 5A61     		str	r2, [r3, #20]
 1561 011a 94E7     		b	.L130
 1562              		.cfi_endproc
 1563              	.LFE145:
 1565              		.section	.text.USB_WritePacket,"ax",%progbits
 1566              		.align	1
 1567              		.global	USB_WritePacket
 1568              		.syntax unified
 1569              		.thumb
 1570              		.thumb_func
 1571              		.fpu fpv4-sp-d16
 1573              	USB_WritePacket:
 1574              	.LFB146:
 944:Drivers/STM32F4xx_HAL_Driver/Src/stm32f4xx_ll_usb.c ****   uint32_t USBx_BASE = (uint32_t)USBx;
 1575              		.loc 1 944 0
 1576              		.cfi_startproc
 1577              		@ args = 4, pretend = 0, frame = 0
 1578              		@ frame_needed = 0, uses_anonymous_args = 0
 1579              		@ link register save eliminated.
 1580              	.LVL157:
 1581 0000 70B4     		push	{r4, r5, r6}
 1582              	.LCFI23:
 1583              		.cfi_def_cfa_offset 12
 1584              		.cfi_offset 4, -12
 1585              		.cfi_offset 5, -8
 1586              		.cfi_offset 6, -4
 1587 0002 9DF80C40 		ldrb	r4, [sp, #12]	@ zero_extendqisi2
 1588              	.LVL158:
 949:Drivers/STM32F4xx_HAL_Driver/Src/stm32f4xx_ll_usb.c ****   {
 1589              		.loc 1 949 0
 1590 0006 64B9     		cbnz	r4, .L136
 951:Drivers/STM32F4xx_HAL_Driver/Src/stm32f4xx_ll_usb.c ****     for (i = 0U; i < count32b; i++)
 1591              		.loc 1 951 0
 1592 0008 0333     		adds	r3, r3, #3
 1593              	.LVL159:
 1594 000a 9D08     		lsrs	r5, r3, #2
 1595              	.LVL160:
 952:Drivers/STM32F4xx_HAL_Driver/Src/stm32f4xx_ll_usb.c ****     {
 1596              		.loc 1 952 0
 1597 000c 07E0     		b	.L137
 1598              	.LVL161:
ARM GAS  /tmp/ccag9PFX.s 			page 56


 1599              	.L138:
 954:Drivers/STM32F4xx_HAL_Driver/Src/stm32f4xx_ll_usb.c ****       pSrc++;
 1600              		.loc 1 954 0 discriminator 3
 1601 000e 00EB0233 		add	r3, r0, r2, lsl #12
 1602 0012 03F58053 		add	r3, r3, #4096
 1603 0016 51F8046B 		ldr	r6, [r1], #4	@ unaligned
 1604              	.LVL162:
 1605 001a 1E60     		str	r6, [r3]
 1606              	.LVL163:
 952:Drivers/STM32F4xx_HAL_Driver/Src/stm32f4xx_ll_usb.c ****     {
 1607              		.loc 1 952 0 discriminator 3
 1608 001c 0134     		adds	r4, r4, #1
 1609              	.LVL164:
 1610              	.L137:
 952:Drivers/STM32F4xx_HAL_Driver/Src/stm32f4xx_ll_usb.c ****     {
 1611              		.loc 1 952 0 is_stmt 0 discriminator 1
 1612 001e AC42     		cmp	r4, r5
 1613 0020 F5D3     		bcc	.L138
 1614              	.LVL165:
 1615              	.L136:
 960:Drivers/STM32F4xx_HAL_Driver/Src/stm32f4xx_ll_usb.c **** 
 1616              		.loc 1 960 0 is_stmt 1
 1617 0022 0020     		movs	r0, #0
 1618              	.LVL166:
 1619 0024 70BC     		pop	{r4, r5, r6}
 1620              	.LCFI24:
 1621              		.cfi_restore 6
 1622              		.cfi_restore 5
 1623              		.cfi_restore 4
 1624              		.cfi_def_cfa_offset 0
 1625              	.LVL167:
 1626 0026 7047     		bx	lr
 1627              		.cfi_endproc
 1628              	.LFE146:
 1630              		.section	.text.USB_EPStartXfer,"ax",%progbits
 1631              		.align	1
 1632              		.global	USB_EPStartXfer
 1633              		.syntax unified
 1634              		.thumb
 1635              		.thumb_func
 1636              		.fpu fpv4-sp-d16
 1638              	USB_EPStartXfer:
 1639              	.LFB144:
 702:Drivers/STM32F4xx_HAL_Driver/Src/stm32f4xx_ll_usb.c ****   uint32_t USBx_BASE = (uint32_t)USBx;
 1640              		.loc 1 702 0
 1641              		.cfi_startproc
 1642              		@ args = 0, pretend = 0, frame = 0
 1643              		@ frame_needed = 0, uses_anonymous_args = 0
 1644              	.LVL168:
 1645 0000 F0B5     		push	{r4, r5, r6, r7, lr}
 1646              	.LCFI25:
 1647              		.cfi_def_cfa_offset 20
 1648              		.cfi_offset 4, -20
 1649              		.cfi_offset 5, -16
 1650              		.cfi_offset 6, -12
 1651              		.cfi_offset 7, -8
 1652              		.cfi_offset 14, -4
ARM GAS  /tmp/ccag9PFX.s 			page 57


 1653 0002 83B0     		sub	sp, sp, #12
 1654              	.LCFI26:
 1655              		.cfi_def_cfa_offset 32
 1656              	.LVL169:
 704:Drivers/STM32F4xx_HAL_Driver/Src/stm32f4xx_ll_usb.c ****   uint16_t pktcnt;
 1657              		.loc 1 704 0
 1658 0004 0B78     		ldrb	r3, [r1]	@ zero_extendqisi2
 1659              	.LVL170:
 708:Drivers/STM32F4xx_HAL_Driver/Src/stm32f4xx_ll_usb.c ****   {
 1660              		.loc 1 708 0
 1661 0006 4C78     		ldrb	r4, [r1, #1]	@ zero_extendqisi2
 1662 0008 012C     		cmp	r4, #1
 1663 000a 2BD0     		beq	.L158
 792:Drivers/STM32F4xx_HAL_Driver/Src/stm32f4xx_ll_usb.c ****     USBx_OUTEP(epnum)->DOEPTSIZ &= ~(USB_OTG_DOEPTSIZ_PKTCNT);
 1664              		.loc 1 792 0
 1665 000c 00EB4313 		add	r3, r0, r3, lsl #5
 1666              	.LVL171:
 1667 0010 03F53064 		add	r4, r3, #2816
 1668 0014 2569     		ldr	r5, [r4, #16]
 1669 0016 ED0C     		lsrs	r5, r5, #19
 1670 0018 ED04     		lsls	r5, r5, #19
 1671 001a 2561     		str	r5, [r4, #16]
 1672              	.LVL172:
 793:Drivers/STM32F4xx_HAL_Driver/Src/stm32f4xx_ll_usb.c **** 
 1673              		.loc 1 793 0
 1674 001c 2569     		ldr	r5, [r4, #16]
 1675 001e 25F0FF55 		bic	r5, r5, #534773760
 1676 0022 25F4C015 		bic	r5, r5, #1572864
 1677 0026 2561     		str	r5, [r4, #16]
 795:Drivers/STM32F4xx_HAL_Driver/Src/stm32f4xx_ll_usb.c ****     {
 1678              		.loc 1 795 0
 1679 0028 4D69     		ldr	r5, [r1, #20]
 1680 002a 002D     		cmp	r5, #0
 1681 002c 40F0C580 		bne	.L152
 797:Drivers/STM32F4xx_HAL_Driver/Src/stm32f4xx_ll_usb.c ****       USBx_OUTEP(epnum)->DOEPTSIZ |= (USB_OTG_DOEPTSIZ_PKTCNT & (1U << 19));
 1682              		.loc 1 797 0
 1683 0030 2569     		ldr	r5, [r4, #16]
 1684 0032 8E68     		ldr	r6, [r1, #8]
 1685 0034 C6F31206 		ubfx	r6, r6, #0, #19
 1686 0038 3543     		orrs	r5, r5, r6
 1687 003a 2561     		str	r5, [r4, #16]
 798:Drivers/STM32F4xx_HAL_Driver/Src/stm32f4xx_ll_usb.c ****     }
 1688              		.loc 1 798 0
 1689 003c 2569     		ldr	r5, [r4, #16]
 1690 003e 45F40025 		orr	r5, r5, #524288
 1691 0042 2561     		str	r5, [r4, #16]
 1692              	.L153:
 807:Drivers/STM32F4xx_HAL_Driver/Src/stm32f4xx_ll_usb.c ****     {
 1693              		.loc 1 807 0
 1694 0044 012A     		cmp	r2, #1
 1695 0046 00F0CD80 		beq	.L159
 1696              	.LVL173:
 1697              	.L154:
 815:Drivers/STM32F4xx_HAL_Driver/Src/stm32f4xx_ll_usb.c ****     {
 1698              		.loc 1 815 0
 1699 004a CA78     		ldrb	r2, [r1, #3]	@ zero_extendqisi2
 1700 004c 012A     		cmp	r2, #1
ARM GAS  /tmp/ccag9PFX.s 			page 58


 1701 004e 00F0CF80 		beq	.L160
 1702              	.L155:
 827:Drivers/STM32F4xx_HAL_Driver/Src/stm32f4xx_ll_usb.c ****   }
 1703              		.loc 1 827 0
 1704 0052 D3F8002B 		ldr	r2, [r3, #2816]
 1705 0056 42F00442 		orr	r2, r2, #-2080374784
 1706 005a C3F8002B 		str	r2, [r3, #2816]
 1707              	.LVL174:
 1708              	.L148:
 831:Drivers/STM32F4xx_HAL_Driver/Src/stm32f4xx_ll_usb.c **** 
 1709              		.loc 1 831 0
 1710 005e 0020     		movs	r0, #0
 1711 0060 03B0     		add	sp, sp, #12
 1712              	.LCFI27:
 1713              		.cfi_remember_state
 1714              		.cfi_def_cfa_offset 20
 1715              		@ sp needed
 1716 0062 F0BD     		pop	{r4, r5, r6, r7, pc}
 1717              	.LVL175:
 1718              	.L158:
 1719              	.LCFI28:
 1720              		.cfi_restore_state
 711:Drivers/STM32F4xx_HAL_Driver/Src/stm32f4xx_ll_usb.c ****     {
 1721              		.loc 1 711 0
 1722 0064 4C69     		ldr	r4, [r1, #20]
 1723 0066 84BB     		cbnz	r4, .L142
 713:Drivers/STM32F4xx_HAL_Driver/Src/stm32f4xx_ll_usb.c ****       USBx_INEP(epnum)->DIEPTSIZ |= (USB_OTG_DIEPTSIZ_PKTCNT & (1U << 19));
 1724              		.loc 1 713 0
 1725 0068 00EB4314 		add	r4, r0, r3, lsl #5
 1726 006c D4F81059 		ldr	r5, [r4, #2320]
 1727 0070 25F0FF55 		bic	r5, r5, #534773760
 1728 0074 25F4C015 		bic	r5, r5, #1572864
 1729 0078 C4F81059 		str	r5, [r4, #2320]
 714:Drivers/STM32F4xx_HAL_Driver/Src/stm32f4xx_ll_usb.c ****       USBx_INEP(epnum)->DIEPTSIZ &= ~(USB_OTG_DIEPTSIZ_XFRSIZ);
 1730              		.loc 1 714 0
 1731 007c D4F81059 		ldr	r5, [r4, #2320]
 1732 0080 45F40025 		orr	r5, r5, #524288
 1733 0084 C4F81059 		str	r5, [r4, #2320]
 715:Drivers/STM32F4xx_HAL_Driver/Src/stm32f4xx_ll_usb.c ****     }
 1734              		.loc 1 715 0
 1735 0088 D4F81059 		ldr	r5, [r4, #2320]
 1736 008c ED0C     		lsrs	r5, r5, #19
 1737 008e ED04     		lsls	r5, r5, #19
 1738 0090 C4F81059 		str	r5, [r4, #2320]
 1739              	.L143:
 736:Drivers/STM32F4xx_HAL_Driver/Src/stm32f4xx_ll_usb.c ****     {
 1740              		.loc 1 736 0
 1741 0094 012A     		cmp	r2, #1
 1742 0096 4CD0     		beq	.L161
 761:Drivers/STM32F4xx_HAL_Driver/Src/stm32f4xx_ll_usb.c **** 
 1743              		.loc 1 761 0
 1744 0098 00EB4313 		add	r3, r0, r3, lsl #5
 1745              	.LVL176:
 1746 009c D3F80049 		ldr	r4, [r3, #2304]
 1747 00a0 44F00444 		orr	r4, r4, #-2080374784
 1748 00a4 C3F80049 		str	r4, [r3, #2304]
 763:Drivers/STM32F4xx_HAL_Driver/Src/stm32f4xx_ll_usb.c ****       {
ARM GAS  /tmp/ccag9PFX.s 			page 59


 1749              		.loc 1 763 0
 1750 00a8 CC78     		ldrb	r4, [r1, #3]	@ zero_extendqisi2
 1751 00aa 012C     		cmp	r4, #1
 1752 00ac 6AD0     		beq	.L149
 766:Drivers/STM32F4xx_HAL_Driver/Src/stm32f4xx_ll_usb.c ****         {
 1753              		.loc 1 766 0
 1754 00ae 4B69     		ldr	r3, [r1, #20]
 1755 00b0 002B     		cmp	r3, #0
 1756 00b2 D4D0     		beq	.L148
 768:Drivers/STM32F4xx_HAL_Driver/Src/stm32f4xx_ll_usb.c ****         }
 1757              		.loc 1 768 0
 1758 00b4 D0F83428 		ldr	r2, [r0, #2100]
 1759              	.LVL177:
 1760 00b8 0978     		ldrb	r1, [r1]	@ zero_extendqisi2
 1761              	.LVL178:
 1762 00ba 01F00F04 		and	r4, r1, #15
 1763 00be 0121     		movs	r1, #1
 1764 00c0 A140     		lsls	r1, r1, r4
 1765 00c2 0A43     		orrs	r2, r2, r1
 1766 00c4 C0F83428 		str	r2, [r0, #2100]
 1767 00c8 C9E7     		b	.L148
 1768              	.LVL179:
 1769              	.L142:
 724:Drivers/STM32F4xx_HAL_Driver/Src/stm32f4xx_ll_usb.c ****       USBx_INEP(epnum)->DIEPTSIZ &= ~(USB_OTG_DIEPTSIZ_PKTCNT);
 1770              		.loc 1 724 0
 1771 00ca 00EB4314 		add	r4, r0, r3, lsl #5
 1772 00ce D4F81059 		ldr	r5, [r4, #2320]
 1773 00d2 ED0C     		lsrs	r5, r5, #19
 1774 00d4 ED04     		lsls	r5, r5, #19
 1775 00d6 C4F81059 		str	r5, [r4, #2320]
 725:Drivers/STM32F4xx_HAL_Driver/Src/stm32f4xx_ll_usb.c ****       USBx_INEP(epnum)->DIEPTSIZ |= (USB_OTG_DIEPTSIZ_PKTCNT & (((ep->xfer_len + ep->maxpacket - 1U
 1776              		.loc 1 725 0
 1777 00da D4F81059 		ldr	r5, [r4, #2320]
 1778 00de 25F0FF55 		bic	r5, r5, #534773760
 1779 00e2 25F4C015 		bic	r5, r5, #1572864
 1780 00e6 C4F81059 		str	r5, [r4, #2320]
 726:Drivers/STM32F4xx_HAL_Driver/Src/stm32f4xx_ll_usb.c ****       USBx_INEP(epnum)->DIEPTSIZ |= (USB_OTG_DIEPTSIZ_XFRSIZ & ep->xfer_len);
 1781              		.loc 1 726 0
 1782 00ea D4F81069 		ldr	r6, [r4, #2320]
 1783 00ee 4D69     		ldr	r5, [r1, #20]
 1784 00f0 8F68     		ldr	r7, [r1, #8]
 1785 00f2 3D44     		add	r5, r5, r7
 1786 00f4 013D     		subs	r5, r5, #1
 1787 00f6 B5FBF7F5 		udiv	r5, r5, r7
 1788 00fa 474F     		ldr	r7, .L163
 1789 00fc 07EAC545 		and	r5, r7, r5, lsl #19
 1790 0100 3543     		orrs	r5, r5, r6
 1791 0102 C4F81059 		str	r5, [r4, #2320]
 727:Drivers/STM32F4xx_HAL_Driver/Src/stm32f4xx_ll_usb.c **** 
 1792              		.loc 1 727 0
 1793 0106 D4F81059 		ldr	r5, [r4, #2320]
 1794 010a 4E69     		ldr	r6, [r1, #20]
 1795 010c C6F31206 		ubfx	r6, r6, #0, #19
 1796 0110 3543     		orrs	r5, r5, r6
 1797 0112 C4F81059 		str	r5, [r4, #2320]
 724:Drivers/STM32F4xx_HAL_Driver/Src/stm32f4xx_ll_usb.c ****       USBx_INEP(epnum)->DIEPTSIZ &= ~(USB_OTG_DIEPTSIZ_PKTCNT);
 1798              		.loc 1 724 0
ARM GAS  /tmp/ccag9PFX.s 			page 60


 1799 0116 04F51064 		add	r4, r4, #2304
 729:Drivers/STM32F4xx_HAL_Driver/Src/stm32f4xx_ll_usb.c ****       {
 1800              		.loc 1 729 0
 1801 011a CD78     		ldrb	r5, [r1, #3]	@ zero_extendqisi2
 1802 011c 012D     		cmp	r5, #1
 1803 011e B9D1     		bne	.L143
 731:Drivers/STM32F4xx_HAL_Driver/Src/stm32f4xx_ll_usb.c ****         USBx_INEP(epnum)->DIEPTSIZ |= (USB_OTG_DIEPTSIZ_MULCNT & (1U << 29));
 1804              		.loc 1 731 0
 1805 0120 2569     		ldr	r5, [r4, #16]
 1806 0122 25F0C045 		bic	r5, r5, #1610612736
 1807 0126 2561     		str	r5, [r4, #16]
 732:Drivers/STM32F4xx_HAL_Driver/Src/stm32f4xx_ll_usb.c ****       }
 1808              		.loc 1 732 0
 1809 0128 2569     		ldr	r5, [r4, #16]
 1810 012a 45F00055 		orr	r5, r5, #536870912
 1811 012e 2561     		str	r5, [r4, #16]
 1812 0130 B0E7     		b	.L143
 1813              	.L161:
 738:Drivers/STM32F4xx_HAL_Driver/Src/stm32f4xx_ll_usb.c ****       {
 1814              		.loc 1 738 0
 1815 0132 0A69     		ldr	r2, [r1, #16]
 1816              	.LVL180:
 1817 0134 1AB1     		cbz	r2, .L145
 740:Drivers/STM32F4xx_HAL_Driver/Src/stm32f4xx_ll_usb.c ****       }
 1818              		.loc 1 740 0
 1819 0136 00EB4314 		add	r4, r0, r3, lsl #5
 1820 013a C4F81429 		str	r2, [r4, #2324]
 1821              	.L145:
 743:Drivers/STM32F4xx_HAL_Driver/Src/stm32f4xx_ll_usb.c ****       {
 1822              		.loc 1 743 0
 1823 013e CA78     		ldrb	r2, [r1, #3]	@ zero_extendqisi2
 1824 0140 012A     		cmp	r2, #1
 1825 0142 08D0     		beq	.L162
 1826              	.LVL181:
 1827              	.L146:
 756:Drivers/STM32F4xx_HAL_Driver/Src/stm32f4xx_ll_usb.c ****     }
 1828              		.loc 1 756 0
 1829 0144 00EB4313 		add	r3, r0, r3, lsl #5
 1830              	.LVL182:
 1831 0148 D3F80029 		ldr	r2, [r3, #2304]
 1832 014c 42F00442 		orr	r2, r2, #-2080374784
 1833 0150 C3F80029 		str	r2, [r3, #2304]
 1834 0154 83E7     		b	.L148
 1835              	.LVL183:
 1836              	.L162:
 745:Drivers/STM32F4xx_HAL_Driver/Src/stm32f4xx_ll_usb.c ****         {
 1837              		.loc 1 745 0
 1838 0156 D0F80828 		ldr	r2, [r0, #2056]
 1839 015a 12F4807F 		tst	r2, #256
 1840 015e 08D1     		bne	.L147
 747:Drivers/STM32F4xx_HAL_Driver/Src/stm32f4xx_ll_usb.c ****         }
 1841              		.loc 1 747 0
 1842 0160 00EB4311 		add	r1, r0, r3, lsl #5
 1843              	.LVL184:
 1844 0164 D1F80029 		ldr	r2, [r1, #2304]
 1845 0168 42F00052 		orr	r2, r2, #536870912
 1846 016c C1F80029 		str	r2, [r1, #2304]
ARM GAS  /tmp/ccag9PFX.s 			page 61


 1847 0170 E8E7     		b	.L146
 1848              	.LVL185:
 1849              	.L147:
 751:Drivers/STM32F4xx_HAL_Driver/Src/stm32f4xx_ll_usb.c ****         }
 1850              		.loc 1 751 0
 1851 0172 00EB4311 		add	r1, r0, r3, lsl #5
 1852              	.LVL186:
 1853 0176 D1F80029 		ldr	r2, [r1, #2304]
 1854 017a 42F08052 		orr	r2, r2, #268435456
 1855 017e C1F80029 		str	r2, [r1, #2304]
 1856 0182 DFE7     		b	.L146
 1857              	.LVL187:
 1858              	.L149:
 773:Drivers/STM32F4xx_HAL_Driver/Src/stm32f4xx_ll_usb.c ****         {
 1859              		.loc 1 773 0
 1860 0184 D0F80848 		ldr	r4, [r0, #2056]
 1861 0188 14F4807F 		tst	r4, #256
 1862 018c 0ED1     		bne	.L150
 775:Drivers/STM32F4xx_HAL_Driver/Src/stm32f4xx_ll_usb.c ****         }
 1863              		.loc 1 775 0
 1864 018e D3F80049 		ldr	r4, [r3, #2304]
 1865 0192 44F00054 		orr	r4, r4, #536870912
 1866 0196 C3F80049 		str	r4, [r3, #2304]
 1867              	.L151:
 1868 019a 1446     		mov	r4, r2
 1869 019c 0B46     		mov	r3, r1
 782:Drivers/STM32F4xx_HAL_Driver/Src/stm32f4xx_ll_usb.c ****       }
 1870              		.loc 1 782 0
 1871 019e C968     		ldr	r1, [r1, #12]
 1872              	.LVL188:
 1873 01a0 1A78     		ldrb	r2, [r3]	@ zero_extendqisi2
 1874              	.LVL189:
 1875 01a2 9B8A     		ldrh	r3, [r3, #20]
 1876              	.LVL190:
 1877 01a4 0094     		str	r4, [sp]
 1878 01a6 FFF7FEFF 		bl	USB_WritePacket
 1879              	.LVL191:
 1880 01aa 58E7     		b	.L148
 1881              	.LVL192:
 1882              	.L150:
 779:Drivers/STM32F4xx_HAL_Driver/Src/stm32f4xx_ll_usb.c ****         }
 1883              		.loc 1 779 0
 1884 01ac D3F80049 		ldr	r4, [r3, #2304]
 1885 01b0 44F08054 		orr	r4, r4, #268435456
 1886 01b4 C3F80049 		str	r4, [r3, #2304]
 1887 01b8 EFE7     		b	.L151
 1888              	.L152:
 802:Drivers/STM32F4xx_HAL_Driver/Src/stm32f4xx_ll_usb.c ****       USBx_OUTEP(epnum)->DOEPTSIZ |= USB_OTG_DOEPTSIZ_PKTCNT & ((uint32_t)pktcnt << 19);
 1889              		.loc 1 802 0
 1890 01ba 8E68     		ldr	r6, [r1, #8]
 1891 01bc 3544     		add	r5, r5, r6
 1892 01be 013D     		subs	r5, r5, #1
 1893 01c0 B5FBF6F5 		udiv	r5, r5, r6
 1894              	.LVL193:
 803:Drivers/STM32F4xx_HAL_Driver/Src/stm32f4xx_ll_usb.c ****       USBx_OUTEP(epnum)->DOEPTSIZ |= USB_OTG_DOEPTSIZ_XFRSIZ & (ep->maxpacket * pktcnt);
 1895              		.loc 1 803 0
 1896 01c4 2669     		ldr	r6, [r4, #16]
ARM GAS  /tmp/ccag9PFX.s 			page 62


 1897 01c6 144F     		ldr	r7, .L163
 1898 01c8 07EAC547 		and	r7, r7, r5, lsl #19
 1899 01cc 3E43     		orrs	r6, r6, r7
 1900 01ce 2661     		str	r6, [r4, #16]
 804:Drivers/STM32F4xx_HAL_Driver/Src/stm32f4xx_ll_usb.c ****     }
 1901              		.loc 1 804 0
 1902 01d0 2769     		ldr	r7, [r4, #16]
 1903 01d2 8E68     		ldr	r6, [r1, #8]
 1904 01d4 ADB2     		uxth	r5, r5
 1905 01d6 06FB05F5 		mul	r5, r6, r5
 1906              	.LVL194:
 1907 01da C5F31205 		ubfx	r5, r5, #0, #19
 1908 01de 3D43     		orrs	r5, r5, r7
 1909 01e0 2561     		str	r5, [r4, #16]
 1910 01e2 2FE7     		b	.L153
 1911              	.L159:
 809:Drivers/STM32F4xx_HAL_Driver/Src/stm32f4xx_ll_usb.c ****       {
 1912              		.loc 1 809 0
 1913 01e4 CA68     		ldr	r2, [r1, #12]
 1914              	.LVL195:
 1915 01e6 002A     		cmp	r2, #0
 1916 01e8 3FF42FAF 		beq	.L154
 811:Drivers/STM32F4xx_HAL_Driver/Src/stm32f4xx_ll_usb.c ****       }
 1917              		.loc 1 811 0
 1918 01ec 6261     		str	r2, [r4, #20]
 1919 01ee 2CE7     		b	.L154
 1920              	.L160:
 817:Drivers/STM32F4xx_HAL_Driver/Src/stm32f4xx_ll_usb.c ****       {
 1921              		.loc 1 817 0
 1922 01f0 D0F80828 		ldr	r2, [r0, #2056]
 1923 01f4 12F4807F 		tst	r2, #256
 1924 01f8 06D1     		bne	.L156
 819:Drivers/STM32F4xx_HAL_Driver/Src/stm32f4xx_ll_usb.c ****       }
 1925              		.loc 1 819 0
 1926 01fa D3F8002B 		ldr	r2, [r3, #2816]
 1927 01fe 42F00052 		orr	r2, r2, #536870912
 1928 0202 C3F8002B 		str	r2, [r3, #2816]
 1929 0206 24E7     		b	.L155
 1930              	.L156:
 823:Drivers/STM32F4xx_HAL_Driver/Src/stm32f4xx_ll_usb.c ****       }
 1931              		.loc 1 823 0
 1932 0208 D3F8002B 		ldr	r2, [r3, #2816]
 1933 020c 42F08052 		orr	r2, r2, #268435456
 1934 0210 C3F8002B 		str	r2, [r3, #2816]
 1935 0214 1DE7     		b	.L155
 1936              	.L164:
 1937 0216 00BF     		.align	2
 1938              	.L163:
 1939 0218 0000F81F 		.word	536346624
 1940              		.cfi_endproc
 1941              	.LFE144:
 1943              		.section	.text.USB_ReadPacket,"ax",%progbits
 1944              		.align	1
 1945              		.global	USB_ReadPacket
 1946              		.syntax unified
 1947              		.thumb
 1948              		.thumb_func
ARM GAS  /tmp/ccag9PFX.s 			page 63


 1949              		.fpu fpv4-sp-d16
 1951              	USB_ReadPacket:
 1952              	.LFB147:
 970:Drivers/STM32F4xx_HAL_Driver/Src/stm32f4xx_ll_usb.c ****   uint32_t USBx_BASE = (uint32_t)USBx;
 1953              		.loc 1 970 0
 1954              		.cfi_startproc
 1955              		@ args = 0, pretend = 0, frame = 0
 1956              		@ frame_needed = 0, uses_anonymous_args = 0
 1957              		@ link register save eliminated.
 1958              	.LVL196:
 974:Drivers/STM32F4xx_HAL_Driver/Src/stm32f4xx_ll_usb.c **** 
 1959              		.loc 1 974 0
 1960 0000 0332     		adds	r2, r2, #3
 1961              	.LVL197:
 1962 0002 9208     		lsrs	r2, r2, #2
 1963              	.LVL198:
 976:Drivers/STM32F4xx_HAL_Driver/Src/stm32f4xx_ll_usb.c ****   {
 1964              		.loc 1 976 0
 1965 0004 0023     		movs	r3, #0
 1966              	.LVL199:
 1967 0006 9342     		cmp	r3, r2
 1968 0008 0CD2     		bcs	.L172
 970:Drivers/STM32F4xx_HAL_Driver/Src/stm32f4xx_ll_usb.c ****   uint32_t USBx_BASE = (uint32_t)USBx;
 1969              		.loc 1 970 0
 1970 000a 10B4     		push	{r4}
 1971              	.LCFI29:
 1972              		.cfi_def_cfa_offset 4
 1973              		.cfi_offset 4, -4
 1974              	.LVL200:
 1975              	.L167:
 978:Drivers/STM32F4xx_HAL_Driver/Src/stm32f4xx_ll_usb.c ****     pDest++;
 1976              		.loc 1 978 0 discriminator 3
 1977 000c 00F58054 		add	r4, r0, #4096
 1978 0010 2468     		ldr	r4, [r4]
 1979 0012 41F8044B 		str	r4, [r1], #4	@ unaligned
 1980              	.LVL201:
 976:Drivers/STM32F4xx_HAL_Driver/Src/stm32f4xx_ll_usb.c ****   {
 1981              		.loc 1 976 0 discriminator 3
 1982 0016 0133     		adds	r3, r3, #1
 1983              	.LVL202:
 1984 0018 9342     		cmp	r3, r2
 1985 001a F7D3     		bcc	.L167
 983:Drivers/STM32F4xx_HAL_Driver/Src/stm32f4xx_ll_usb.c **** 
 1986              		.loc 1 983 0
 1987 001c 0846     		mov	r0, r1
 1988              	.LVL203:
 1989 001e 5DF8044B 		ldr	r4, [sp], #4
 1990              	.LCFI30:
 1991              		.cfi_restore 4
 1992              		.cfi_def_cfa_offset 0
 1993 0022 7047     		bx	lr
 1994              	.LVL204:
 1995              	.L172:
 1996 0024 0846     		mov	r0, r1
 1997              	.LVL205:
 1998 0026 7047     		bx	lr
 1999              		.cfi_endproc
ARM GAS  /tmp/ccag9PFX.s 			page 64


 2000              	.LFE147:
 2002              		.section	.text.USB_EPSetStall,"ax",%progbits
 2003              		.align	1
 2004              		.global	USB_EPSetStall
 2005              		.syntax unified
 2006              		.thumb
 2007              		.thumb_func
 2008              		.fpu fpv4-sp-d16
 2010              	USB_EPSetStall:
 2011              	.LFB148:
 992:Drivers/STM32F4xx_HAL_Driver/Src/stm32f4xx_ll_usb.c ****   uint32_t USBx_BASE = (uint32_t)USBx;
 2012              		.loc 1 992 0
 2013              		.cfi_startproc
 2014              		@ args = 0, pretend = 0, frame = 0
 2015              		@ frame_needed = 0, uses_anonymous_args = 0
 2016              		@ link register save eliminated.
 2017              	.LVL206:
 994:Drivers/STM32F4xx_HAL_Driver/Src/stm32f4xx_ll_usb.c **** 
 2018              		.loc 1 994 0
 2019 0000 0B78     		ldrb	r3, [r1]	@ zero_extendqisi2
 2020              	.LVL207:
 996:Drivers/STM32F4xx_HAL_Driver/Src/stm32f4xx_ll_usb.c ****   {
 2021              		.loc 1 996 0
 2022 0002 4A78     		ldrb	r2, [r1, #1]	@ zero_extendqisi2
 2023 0004 012A     		cmp	r2, #1
 2024 0006 14D0     		beq	.L178
1006:Drivers/STM32F4xx_HAL_Driver/Src/stm32f4xx_ll_usb.c ****     {
 2025              		.loc 1 1006 0
 2026 0008 00EB4310 		add	r0, r0, r3, lsl #5
 2027              	.LVL208:
 2028 000c D0F8002B 		ldr	r2, [r0, #2816]
 2029 0010 002A     		cmp	r2, #0
 2030 0012 06DB     		blt	.L177
1006:Drivers/STM32F4xx_HAL_Driver/Src/stm32f4xx_ll_usb.c ****     {
 2031              		.loc 1 1006 0 is_stmt 0 discriminator 1
 2032 0014 2BB1     		cbz	r3, .L177
1008:Drivers/STM32F4xx_HAL_Driver/Src/stm32f4xx_ll_usb.c ****     }
 2033              		.loc 1 1008 0 is_stmt 1
 2034 0016 D0F8003B 		ldr	r3, [r0, #2816]
 2035              	.LVL209:
 2036 001a 23F08043 		bic	r3, r3, #1073741824
 2037 001e C0F8003B 		str	r3, [r0, #2816]
 2038              	.LVL210:
 2039              	.L177:
1010:Drivers/STM32F4xx_HAL_Driver/Src/stm32f4xx_ll_usb.c ****   }
 2040              		.loc 1 1010 0
 2041 0022 D0F8003B 		ldr	r3, [r0, #2816]
 2042 0026 43F40013 		orr	r3, r3, #2097152
 2043 002a C0F8003B 		str	r3, [r0, #2816]
 2044              	.L176:
1014:Drivers/STM32F4xx_HAL_Driver/Src/stm32f4xx_ll_usb.c **** 
 2045              		.loc 1 1014 0
 2046 002e 0020     		movs	r0, #0
 2047 0030 7047     		bx	lr
 2048              	.LVL211:
 2049              	.L178:
 998:Drivers/STM32F4xx_HAL_Driver/Src/stm32f4xx_ll_usb.c ****     {
ARM GAS  /tmp/ccag9PFX.s 			page 65


 2050              		.loc 1 998 0
 2051 0032 00EB4310 		add	r0, r0, r3, lsl #5
 2052              	.LVL212:
 2053 0036 D0F80029 		ldr	r2, [r0, #2304]
 2054 003a 002A     		cmp	r2, #0
 2055 003c 06DB     		blt	.L175
 998:Drivers/STM32F4xx_HAL_Driver/Src/stm32f4xx_ll_usb.c ****     {
 2056              		.loc 1 998 0 is_stmt 0 discriminator 1
 2057 003e 2BB1     		cbz	r3, .L175
1000:Drivers/STM32F4xx_HAL_Driver/Src/stm32f4xx_ll_usb.c ****     }
 2058              		.loc 1 1000 0 is_stmt 1
 2059 0040 D0F80039 		ldr	r3, [r0, #2304]
 2060              	.LVL213:
 2061 0044 23F08043 		bic	r3, r3, #1073741824
 2062 0048 C0F80039 		str	r3, [r0, #2304]
 2063              	.LVL214:
 2064              	.L175:
1002:Drivers/STM32F4xx_HAL_Driver/Src/stm32f4xx_ll_usb.c ****   }
 2065              		.loc 1 1002 0
 2066 004c D0F80039 		ldr	r3, [r0, #2304]
 2067 0050 43F40013 		orr	r3, r3, #2097152
 2068 0054 C0F80039 		str	r3, [r0, #2304]
 2069 0058 E9E7     		b	.L176
 2070              		.cfi_endproc
 2071              	.LFE148:
 2073              		.section	.text.USB_EPClearStall,"ax",%progbits
 2074              		.align	1
 2075              		.global	USB_EPClearStall
 2076              		.syntax unified
 2077              		.thumb
 2078              		.thumb_func
 2079              		.fpu fpv4-sp-d16
 2081              	USB_EPClearStall:
 2082              	.LFB149:
1023:Drivers/STM32F4xx_HAL_Driver/Src/stm32f4xx_ll_usb.c ****   uint32_t USBx_BASE = (uint32_t)USBx;
 2083              		.loc 1 1023 0
 2084              		.cfi_startproc
 2085              		@ args = 0, pretend = 0, frame = 0
 2086              		@ frame_needed = 0, uses_anonymous_args = 0
 2087              		@ link register save eliminated.
 2088              	.LVL215:
1025:Drivers/STM32F4xx_HAL_Driver/Src/stm32f4xx_ll_usb.c **** 
 2089              		.loc 1 1025 0
 2090 0000 0B78     		ldrb	r3, [r1]	@ zero_extendqisi2
 2091              	.LVL216:
1027:Drivers/STM32F4xx_HAL_Driver/Src/stm32f4xx_ll_usb.c ****   {
 2092              		.loc 1 1027 0
 2093 0002 4A78     		ldrb	r2, [r1, #1]	@ zero_extendqisi2
 2094 0004 012A     		cmp	r2, #1
 2095 0006 0ED0     		beq	.L182
1037:Drivers/STM32F4xx_HAL_Driver/Src/stm32f4xx_ll_usb.c ****     if ((ep->type == EP_TYPE_INTR) || (ep->type == EP_TYPE_BULK))
 2096              		.loc 1 1037 0
 2097 0008 00EB4310 		add	r0, r0, r3, lsl #5
 2098              	.LVL217:
 2099 000c D0F8003B 		ldr	r3, [r0, #2816]
 2100              	.LVL218:
 2101 0010 23F40013 		bic	r3, r3, #2097152
ARM GAS  /tmp/ccag9PFX.s 			page 66


 2102 0014 C0F8003B 		str	r3, [r0, #2816]
 2103              	.LVL219:
1038:Drivers/STM32F4xx_HAL_Driver/Src/stm32f4xx_ll_usb.c ****     {
 2104              		.loc 1 1038 0
 2105 0018 CB78     		ldrb	r3, [r1, #3]	@ zero_extendqisi2
 2106 001a 023B     		subs	r3, r3, #2
 2107 001c DBB2     		uxtb	r3, r3
 2108 001e 012B     		cmp	r3, #1
 2109 0020 15D9     		bls	.L183
 2110              	.L181:
1044:Drivers/STM32F4xx_HAL_Driver/Src/stm32f4xx_ll_usb.c **** 
 2111              		.loc 1 1044 0
 2112 0022 0020     		movs	r0, #0
 2113 0024 7047     		bx	lr
 2114              	.LVL220:
 2115              	.L182:
1029:Drivers/STM32F4xx_HAL_Driver/Src/stm32f4xx_ll_usb.c ****     if ((ep->type == EP_TYPE_INTR) || (ep->type == EP_TYPE_BULK))
 2116              		.loc 1 1029 0
 2117 0026 00EB4310 		add	r0, r0, r3, lsl #5
 2118              	.LVL221:
 2119 002a D0F80039 		ldr	r3, [r0, #2304]
 2120              	.LVL222:
 2121 002e 23F40013 		bic	r3, r3, #2097152
 2122 0032 C0F80039 		str	r3, [r0, #2304]
 2123              	.LVL223:
1030:Drivers/STM32F4xx_HAL_Driver/Src/stm32f4xx_ll_usb.c ****     {
 2124              		.loc 1 1030 0
 2125 0036 CB78     		ldrb	r3, [r1, #3]	@ zero_extendqisi2
 2126 0038 023B     		subs	r3, r3, #2
 2127 003a DBB2     		uxtb	r3, r3
 2128 003c 012B     		cmp	r3, #1
 2129 003e F0D8     		bhi	.L181
1032:Drivers/STM32F4xx_HAL_Driver/Src/stm32f4xx_ll_usb.c ****     }
 2130              		.loc 1 1032 0
 2131 0040 D0F80039 		ldr	r3, [r0, #2304]
 2132 0044 43F08053 		orr	r3, r3, #268435456
 2133 0048 C0F80039 		str	r3, [r0, #2304]
 2134 004c E9E7     		b	.L181
 2135              	.L183:
1040:Drivers/STM32F4xx_HAL_Driver/Src/stm32f4xx_ll_usb.c ****     }
 2136              		.loc 1 1040 0
 2137 004e D0F8003B 		ldr	r3, [r0, #2816]
 2138 0052 43F08053 		orr	r3, r3, #268435456
 2139 0056 C0F8003B 		str	r3, [r0, #2816]
 2140 005a E2E7     		b	.L181
 2141              		.cfi_endproc
 2142              	.LFE149:
 2144              		.section	.text.USB_StopDevice,"ax",%progbits
 2145              		.align	1
 2146              		.global	USB_StopDevice
 2147              		.syntax unified
 2148              		.thumb
 2149              		.thumb_func
 2150              		.fpu fpv4-sp-d16
 2152              	USB_StopDevice:
 2153              	.LFB150:
1052:Drivers/STM32F4xx_HAL_Driver/Src/stm32f4xx_ll_usb.c ****   HAL_StatusTypeDef ret;
ARM GAS  /tmp/ccag9PFX.s 			page 67


 2154              		.loc 1 1052 0
 2155              		.cfi_startproc
 2156              		@ args = 0, pretend = 0, frame = 0
 2157              		@ frame_needed = 0, uses_anonymous_args = 0
 2158              	.LVL224:
 2159 0000 38B5     		push	{r3, r4, r5, lr}
 2160              	.LCFI31:
 2161              		.cfi_def_cfa_offset 16
 2162              		.cfi_offset 3, -16
 2163              		.cfi_offset 4, -12
 2164              		.cfi_offset 5, -8
 2165              		.cfi_offset 14, -4
 2166 0002 0546     		mov	r5, r0
1054:Drivers/STM32F4xx_HAL_Driver/Src/stm32f4xx_ll_usb.c ****   uint32_t i;
 2167              		.loc 1 1054 0
 2168 0004 0446     		mov	r4, r0
 2169              	.LVL225:
1058:Drivers/STM32F4xx_HAL_Driver/Src/stm32f4xx_ll_usb.c ****   {
 2170              		.loc 1 1058 0
 2171 0006 0022     		movs	r2, #0
 2172 0008 08E0     		b	.L185
 2173              	.LVL226:
 2174              	.L186:
1060:Drivers/STM32F4xx_HAL_Driver/Src/stm32f4xx_ll_usb.c ****     USBx_OUTEP(i)->DOEPINT = 0xFB7FU;
 2175              		.loc 1 1060 0 discriminator 3
 2176 000a 04EB4213 		add	r3, r4, r2, lsl #5
 2177 000e 4FF67F31 		movw	r1, #64383
 2178 0012 C3F80819 		str	r1, [r3, #2312]
1061:Drivers/STM32F4xx_HAL_Driver/Src/stm32f4xx_ll_usb.c ****   }
 2179              		.loc 1 1061 0 discriminator 3
 2180 0016 C3F8081B 		str	r1, [r3, #2824]
1058:Drivers/STM32F4xx_HAL_Driver/Src/stm32f4xx_ll_usb.c ****   {
 2181              		.loc 1 1058 0 discriminator 3
 2182 001a 0132     		adds	r2, r2, #1
 2183              	.LVL227:
 2184              	.L185:
1058:Drivers/STM32F4xx_HAL_Driver/Src/stm32f4xx_ll_usb.c ****   {
 2185              		.loc 1 1058 0 is_stmt 0 discriminator 1
 2186 001c 0E2A     		cmp	r2, #14
 2187 001e F4D9     		bls	.L186
1065:Drivers/STM32F4xx_HAL_Driver/Src/stm32f4xx_ll_usb.c ****   USBx_DEVICE->DOEPMSK  = 0U;
 2188              		.loc 1 1065 0 is_stmt 1
 2189 0020 0022     		movs	r2, #0
 2190              	.LVL228:
 2191 0022 C5F81028 		str	r2, [r5, #2064]
1066:Drivers/STM32F4xx_HAL_Driver/Src/stm32f4xx_ll_usb.c ****   USBx_DEVICE->DAINTMSK = 0U;
 2192              		.loc 1 1066 0
 2193 0026 C5F81428 		str	r2, [r5, #2068]
1067:Drivers/STM32F4xx_HAL_Driver/Src/stm32f4xx_ll_usb.c **** 
 2194              		.loc 1 1067 0
 2195 002a C5F81C28 		str	r2, [r5, #2076]
1070:Drivers/STM32F4xx_HAL_Driver/Src/stm32f4xx_ll_usb.c ****   if (ret != HAL_OK)
 2196              		.loc 1 1070 0
 2197 002e 2846     		mov	r0, r5
 2198              	.LVL229:
 2199 0030 FFF7FEFF 		bl	USB_FlushRxFifo
 2200              	.LVL230:
ARM GAS  /tmp/ccag9PFX.s 			page 68


1071:Drivers/STM32F4xx_HAL_Driver/Src/stm32f4xx_ll_usb.c ****   {
 2201              		.loc 1 1071 0
 2202 0034 0346     		mov	r3, r0
 2203 0036 08B1     		cbz	r0, .L189
 2204              	.LVL231:
 2205              	.L187:
1083:Drivers/STM32F4xx_HAL_Driver/Src/stm32f4xx_ll_usb.c **** 
 2206              		.loc 1 1083 0
 2207 0038 1846     		mov	r0, r3
 2208 003a 38BD     		pop	{r3, r4, r5, pc}
 2209              	.LVL232:
 2210              	.L189:
1076:Drivers/STM32F4xx_HAL_Driver/Src/stm32f4xx_ll_usb.c ****   if (ret != HAL_OK)
 2211              		.loc 1 1076 0
 2212 003c 1021     		movs	r1, #16
 2213 003e 2846     		mov	r0, r5
 2214              	.LVL233:
 2215 0040 FFF7FEFF 		bl	USB_FlushTxFifo
 2216              	.LVL234:
 2217 0044 0346     		mov	r3, r0
 2218              	.LVL235:
 2219 0046 F7E7     		b	.L187
 2220              		.cfi_endproc
 2221              	.LFE150:
 2223              		.section	.text.USB_SetDevAddress,"ax",%progbits
 2224              		.align	1
 2225              		.global	USB_SetDevAddress
 2226              		.syntax unified
 2227              		.thumb
 2228              		.thumb_func
 2229              		.fpu fpv4-sp-d16
 2231              	USB_SetDevAddress:
 2232              	.LFB151:
1093:Drivers/STM32F4xx_HAL_Driver/Src/stm32f4xx_ll_usb.c ****   uint32_t USBx_BASE = (uint32_t)USBx;
 2233              		.loc 1 1093 0
 2234              		.cfi_startproc
 2235              		@ args = 0, pretend = 0, frame = 0
 2236              		@ frame_needed = 0, uses_anonymous_args = 0
 2237              		@ link register save eliminated.
 2238              	.LVL236:
1096:Drivers/STM32F4xx_HAL_Driver/Src/stm32f4xx_ll_usb.c ****   USBx_DEVICE->DCFG |= ((uint32_t)address << 4) & USB_OTG_DCFG_DAD;
 2239              		.loc 1 1096 0
 2240 0000 D0F80038 		ldr	r3, [r0, #2048]
 2241 0004 23F4FE63 		bic	r3, r3, #2032
 2242 0008 C0F80038 		str	r3, [r0, #2048]
1097:Drivers/STM32F4xx_HAL_Driver/Src/stm32f4xx_ll_usb.c **** 
 2243              		.loc 1 1097 0
 2244 000c D0F80038 		ldr	r3, [r0, #2048]
 2245 0010 0901     		lsls	r1, r1, #4
 2246              	.LVL237:
 2247 0012 01F4FE61 		and	r1, r1, #2032
 2248 0016 0B43     		orrs	r3, r3, r1
 2249 0018 C0F80038 		str	r3, [r0, #2048]
1100:Drivers/STM32F4xx_HAL_Driver/Src/stm32f4xx_ll_usb.c **** 
 2250              		.loc 1 1100 0
 2251 001c 0020     		movs	r0, #0
 2252              	.LVL238:
ARM GAS  /tmp/ccag9PFX.s 			page 69


 2253 001e 7047     		bx	lr
 2254              		.cfi_endproc
 2255              	.LFE151:
 2257              		.section	.text.USB_DevConnect,"ax",%progbits
 2258              		.align	1
 2259              		.global	USB_DevConnect
 2260              		.syntax unified
 2261              		.thumb
 2262              		.thumb_func
 2263              		.fpu fpv4-sp-d16
 2265              	USB_DevConnect:
 2266              	.LFB152:
1108:Drivers/STM32F4xx_HAL_Driver/Src/stm32f4xx_ll_usb.c ****   uint32_t USBx_BASE = (uint32_t)USBx;
 2267              		.loc 1 1108 0
 2268              		.cfi_startproc
 2269              		@ args = 0, pretend = 0, frame = 0
 2270              		@ frame_needed = 0, uses_anonymous_args = 0
 2271              	.LVL239:
 2272 0000 08B5     		push	{r3, lr}
 2273              	.LCFI32:
 2274              		.cfi_def_cfa_offset 8
 2275              		.cfi_offset 3, -8
 2276              		.cfi_offset 14, -4
 2277              	.LVL240:
1111:Drivers/STM32F4xx_HAL_Driver/Src/stm32f4xx_ll_usb.c ****   HAL_Delay(3U);
 2278              		.loc 1 1111 0
 2279 0002 D0F80438 		ldr	r3, [r0, #2052]
 2280 0006 23F00203 		bic	r3, r3, #2
 2281 000a C0F80438 		str	r3, [r0, #2052]
1112:Drivers/STM32F4xx_HAL_Driver/Src/stm32f4xx_ll_usb.c **** 
 2282              		.loc 1 1112 0
 2283 000e 0320     		movs	r0, #3
 2284              	.LVL241:
 2285 0010 FFF7FEFF 		bl	HAL_Delay
 2286              	.LVL242:
1115:Drivers/STM32F4xx_HAL_Driver/Src/stm32f4xx_ll_usb.c **** 
 2287              		.loc 1 1115 0
 2288 0014 0020     		movs	r0, #0
 2289 0016 08BD     		pop	{r3, pc}
 2290              		.cfi_endproc
 2291              	.LFE152:
 2293              		.section	.text.USB_DevDisconnect,"ax",%progbits
 2294              		.align	1
 2295              		.global	USB_DevDisconnect
 2296              		.syntax unified
 2297              		.thumb
 2298              		.thumb_func
 2299              		.fpu fpv4-sp-d16
 2301              	USB_DevDisconnect:
 2302              	.LFB153:
1123:Drivers/STM32F4xx_HAL_Driver/Src/stm32f4xx_ll_usb.c ****   uint32_t USBx_BASE = (uint32_t)USBx;
 2303              		.loc 1 1123 0
 2304              		.cfi_startproc
 2305              		@ args = 0, pretend = 0, frame = 0
 2306              		@ frame_needed = 0, uses_anonymous_args = 0
 2307              	.LVL243:
 2308 0000 08B5     		push	{r3, lr}
ARM GAS  /tmp/ccag9PFX.s 			page 70


 2309              	.LCFI33:
 2310              		.cfi_def_cfa_offset 8
 2311              		.cfi_offset 3, -8
 2312              		.cfi_offset 14, -4
 2313              	.LVL244:
1126:Drivers/STM32F4xx_HAL_Driver/Src/stm32f4xx_ll_usb.c ****   HAL_Delay(3U);
 2314              		.loc 1 1126 0
 2315 0002 D0F80438 		ldr	r3, [r0, #2052]
 2316 0006 43F00203 		orr	r3, r3, #2
 2317 000a C0F80438 		str	r3, [r0, #2052]
1127:Drivers/STM32F4xx_HAL_Driver/Src/stm32f4xx_ll_usb.c **** 
 2318              		.loc 1 1127 0
 2319 000e 0320     		movs	r0, #3
 2320              	.LVL245:
 2321 0010 FFF7FEFF 		bl	HAL_Delay
 2322              	.LVL246:
1130:Drivers/STM32F4xx_HAL_Driver/Src/stm32f4xx_ll_usb.c **** 
 2323              		.loc 1 1130 0
 2324 0014 0020     		movs	r0, #0
 2325 0016 08BD     		pop	{r3, pc}
 2326              		.cfi_endproc
 2327              	.LFE153:
 2329              		.section	.text.USB_ReadInterrupts,"ax",%progbits
 2330              		.align	1
 2331              		.global	USB_ReadInterrupts
 2332              		.syntax unified
 2333              		.thumb
 2334              		.thumb_func
 2335              		.fpu fpv4-sp-d16
 2337              	USB_ReadInterrupts:
 2338              	.LFB154:
1138:Drivers/STM32F4xx_HAL_Driver/Src/stm32f4xx_ll_usb.c ****   uint32_t tmpreg;
 2339              		.loc 1 1138 0
 2340              		.cfi_startproc
 2341              		@ args = 0, pretend = 0, frame = 0
 2342              		@ frame_needed = 0, uses_anonymous_args = 0
 2343              		@ link register save eliminated.
 2344              	.LVL247:
1141:Drivers/STM32F4xx_HAL_Driver/Src/stm32f4xx_ll_usb.c ****   tmpreg &= USBx->GINTMSK;
 2345              		.loc 1 1141 0
 2346 0000 4269     		ldr	r2, [r0, #20]
 2347              	.LVL248:
1142:Drivers/STM32F4xx_HAL_Driver/Src/stm32f4xx_ll_usb.c **** 
 2348              		.loc 1 1142 0
 2349 0002 8069     		ldr	r0, [r0, #24]
 2350              	.LVL249:
1145:Drivers/STM32F4xx_HAL_Driver/Src/stm32f4xx_ll_usb.c **** 
 2351              		.loc 1 1145 0
 2352 0004 1040     		ands	r0, r0, r2
 2353              	.LVL250:
 2354 0006 7047     		bx	lr
 2355              		.cfi_endproc
 2356              	.LFE154:
 2358              		.section	.text.USB_ReadDevAllOutEpInterrupt,"ax",%progbits
 2359              		.align	1
 2360              		.global	USB_ReadDevAllOutEpInterrupt
 2361              		.syntax unified
ARM GAS  /tmp/ccag9PFX.s 			page 71


 2362              		.thumb
 2363              		.thumb_func
 2364              		.fpu fpv4-sp-d16
 2366              	USB_ReadDevAllOutEpInterrupt:
 2367              	.LFB155:
1153:Drivers/STM32F4xx_HAL_Driver/Src/stm32f4xx_ll_usb.c ****   uint32_t USBx_BASE = (uint32_t)USBx;
 2368              		.loc 1 1153 0
 2369              		.cfi_startproc
 2370              		@ args = 0, pretend = 0, frame = 0
 2371              		@ frame_needed = 0, uses_anonymous_args = 0
 2372              		@ link register save eliminated.
 2373              	.LVL251:
1157:Drivers/STM32F4xx_HAL_Driver/Src/stm32f4xx_ll_usb.c ****   tmpreg &= USBx_DEVICE->DAINTMSK;
 2374              		.loc 1 1157 0
 2375 0000 D0F81838 		ldr	r3, [r0, #2072]
 2376 0004 00F50060 		add	r0, r0, #2048
 2377              	.LVL252:
1158:Drivers/STM32F4xx_HAL_Driver/Src/stm32f4xx_ll_usb.c **** 
 2378              		.loc 1 1158 0
 2379 0008 C069     		ldr	r0, [r0, #28]
 2380              	.LVL253:
 2381 000a 1840     		ands	r0, r0, r3
 2382              	.LVL254:
1161:Drivers/STM32F4xx_HAL_Driver/Src/stm32f4xx_ll_usb.c **** 
 2383              		.loc 1 1161 0
 2384 000c 000C     		lsrs	r0, r0, #16
 2385              	.LVL255:
 2386 000e 7047     		bx	lr
 2387              		.cfi_endproc
 2388              	.LFE155:
 2390              		.section	.text.USB_ReadDevAllInEpInterrupt,"ax",%progbits
 2391              		.align	1
 2392              		.global	USB_ReadDevAllInEpInterrupt
 2393              		.syntax unified
 2394              		.thumb
 2395              		.thumb_func
 2396              		.fpu fpv4-sp-d16
 2398              	USB_ReadDevAllInEpInterrupt:
 2399              	.LFB156:
1169:Drivers/STM32F4xx_HAL_Driver/Src/stm32f4xx_ll_usb.c ****   uint32_t USBx_BASE = (uint32_t)USBx;
 2400              		.loc 1 1169 0
 2401              		.cfi_startproc
 2402              		@ args = 0, pretend = 0, frame = 0
 2403              		@ frame_needed = 0, uses_anonymous_args = 0
 2404              		@ link register save eliminated.
 2405              	.LVL256:
1173:Drivers/STM32F4xx_HAL_Driver/Src/stm32f4xx_ll_usb.c ****   tmpreg &= USBx_DEVICE->DAINTMSK;
 2406              		.loc 1 1173 0
 2407 0000 D0F81838 		ldr	r3, [r0, #2072]
 2408 0004 00F50060 		add	r0, r0, #2048
 2409              	.LVL257:
1174:Drivers/STM32F4xx_HAL_Driver/Src/stm32f4xx_ll_usb.c **** 
 2410              		.loc 1 1174 0
 2411 0008 C069     		ldr	r0, [r0, #28]
 2412              	.LVL258:
 2413 000a 1840     		ands	r0, r0, r3
 2414              	.LVL259:
ARM GAS  /tmp/ccag9PFX.s 			page 72


1177:Drivers/STM32F4xx_HAL_Driver/Src/stm32f4xx_ll_usb.c **** 
 2415              		.loc 1 1177 0
 2416 000c 80B2     		uxth	r0, r0
 2417              	.LVL260:
 2418 000e 7047     		bx	lr
 2419              		.cfi_endproc
 2420              	.LFE156:
 2422              		.section	.text.USB_ReadDevOutEPInterrupt,"ax",%progbits
 2423              		.align	1
 2424              		.global	USB_ReadDevOutEPInterrupt
 2425              		.syntax unified
 2426              		.thumb
 2427              		.thumb_func
 2428              		.fpu fpv4-sp-d16
 2430              	USB_ReadDevOutEPInterrupt:
 2431              	.LFB157:
1187:Drivers/STM32F4xx_HAL_Driver/Src/stm32f4xx_ll_usb.c ****   uint32_t USBx_BASE = (uint32_t)USBx;
 2432              		.loc 1 1187 0
 2433              		.cfi_startproc
 2434              		@ args = 0, pretend = 0, frame = 0
 2435              		@ frame_needed = 0, uses_anonymous_args = 0
 2436              		@ link register save eliminated.
 2437              	.LVL261:
1191:Drivers/STM32F4xx_HAL_Driver/Src/stm32f4xx_ll_usb.c ****   tmpreg &= USBx_DEVICE->DOEPMSK;
 2438              		.loc 1 1191 0
 2439 0000 00EB4111 		add	r1, r0, r1, lsl #5
 2440              	.LVL262:
 2441 0004 D1F8082B 		ldr	r2, [r1, #2824]
 2442              	.LVL263:
1192:Drivers/STM32F4xx_HAL_Driver/Src/stm32f4xx_ll_usb.c **** 
 2443              		.loc 1 1192 0
 2444 0008 00F50060 		add	r0, r0, #2048
 2445              	.LVL264:
 2446 000c 4069     		ldr	r0, [r0, #20]
 2447              	.LVL265:
1195:Drivers/STM32F4xx_HAL_Driver/Src/stm32f4xx_ll_usb.c **** 
 2448              		.loc 1 1195 0
 2449 000e 1040     		ands	r0, r0, r2
 2450              	.LVL266:
 2451 0010 7047     		bx	lr
 2452              		.cfi_endproc
 2453              	.LFE157:
 2455              		.section	.text.USB_ReadDevInEPInterrupt,"ax",%progbits
 2456              		.align	1
 2457              		.global	USB_ReadDevInEPInterrupt
 2458              		.syntax unified
 2459              		.thumb
 2460              		.thumb_func
 2461              		.fpu fpv4-sp-d16
 2463              	USB_ReadDevInEPInterrupt:
 2464              	.LFB158:
1205:Drivers/STM32F4xx_HAL_Driver/Src/stm32f4xx_ll_usb.c ****   uint32_t USBx_BASE = (uint32_t)USBx;
 2465              		.loc 1 1205 0
 2466              		.cfi_startproc
 2467              		@ args = 0, pretend = 0, frame = 0
 2468              		@ frame_needed = 0, uses_anonymous_args = 0
 2469              		@ link register save eliminated.
ARM GAS  /tmp/ccag9PFX.s 			page 73


 2470              	.LVL267:
 2471 0000 10B4     		push	{r4}
 2472              	.LCFI34:
 2473              		.cfi_def_cfa_offset 4
 2474              		.cfi_offset 4, -4
 2475              	.LVL268:
1209:Drivers/STM32F4xx_HAL_Driver/Src/stm32f4xx_ll_usb.c ****   emp = USBx_DEVICE->DIEPEMPMSK;
 2476              		.loc 1 1209 0
 2477 0002 D0F81048 		ldr	r4, [r0, #2064]
 2478              	.LVL269:
1210:Drivers/STM32F4xx_HAL_Driver/Src/stm32f4xx_ll_usb.c ****   msk |= ((emp >> (epnum & EP_ADDR_MSK)) & 0x1U) << 7;
 2479              		.loc 1 1210 0
 2480 0006 D0F83438 		ldr	r3, [r0, #2100]
 2481              	.LVL270:
1211:Drivers/STM32F4xx_HAL_Driver/Src/stm32f4xx_ll_usb.c ****   tmpreg = USBx_INEP((uint32_t)epnum)->DIEPINT & msk;
 2482              		.loc 1 1211 0
 2483 000a 01F00F02 		and	r2, r1, #15
 2484 000e D340     		lsrs	r3, r3, r2
 2485              	.LVL271:
 2486 0010 DB01     		lsls	r3, r3, #7
 2487 0012 DBB2     		uxtb	r3, r3
 2488 0014 2343     		orrs	r3, r3, r4
 2489              	.LVL272:
1212:Drivers/STM32F4xx_HAL_Driver/Src/stm32f4xx_ll_usb.c **** 
 2490              		.loc 1 1212 0
 2491 0016 00EB4110 		add	r0, r0, r1, lsl #5
 2492              	.LVL273:
 2493 001a 00F51060 		add	r0, r0, #2304
 2494 001e 8068     		ldr	r0, [r0, #8]
 2495              	.LVL274:
1215:Drivers/STM32F4xx_HAL_Driver/Src/stm32f4xx_ll_usb.c **** 
 2496              		.loc 1 1215 0
 2497 0020 1840     		ands	r0, r0, r3
 2498              	.LVL275:
 2499 0022 5DF8044B 		ldr	r4, [sp], #4
 2500              	.LCFI35:
 2501              		.cfi_restore 4
 2502              		.cfi_def_cfa_offset 0
 2503 0026 7047     		bx	lr
 2504              		.cfi_endproc
 2505              	.LFE158:
 2507              		.section	.text.USB_ClearInterrupts,"ax",%progbits
 2508              		.align	1
 2509              		.global	USB_ClearInterrupts
 2510              		.syntax unified
 2511              		.thumb
 2512              		.thumb_func
 2513              		.fpu fpv4-sp-d16
 2515              	USB_ClearInterrupts:
 2516              	.LFB159:
1224:Drivers/STM32F4xx_HAL_Driver/Src/stm32f4xx_ll_usb.c ****   USBx->GINTSTS |= interrupt;
 2517              		.loc 1 1224 0
 2518              		.cfi_startproc
 2519              		@ args = 0, pretend = 0, frame = 0
 2520              		@ frame_needed = 0, uses_anonymous_args = 0
 2521              		@ link register save eliminated.
 2522              	.LVL276:
ARM GAS  /tmp/ccag9PFX.s 			page 74


1225:Drivers/STM32F4xx_HAL_Driver/Src/stm32f4xx_ll_usb.c **** }
 2523              		.loc 1 1225 0
 2524 0000 4369     		ldr	r3, [r0, #20]
 2525 0002 1943     		orrs	r1, r1, r3
 2526              	.LVL277:
 2527 0004 4161     		str	r1, [r0, #20]
1226:Drivers/STM32F4xx_HAL_Driver/Src/stm32f4xx_ll_usb.c **** 
 2528              		.loc 1 1226 0
 2529 0006 7047     		bx	lr
 2530              		.cfi_endproc
 2531              	.LFE159:
 2533              		.section	.text.USB_GetMode,"ax",%progbits
 2534              		.align	1
 2535              		.global	USB_GetMode
 2536              		.syntax unified
 2537              		.thumb
 2538              		.thumb_func
 2539              		.fpu fpv4-sp-d16
 2541              	USB_GetMode:
 2542              	.LFB160:
1237:Drivers/STM32F4xx_HAL_Driver/Src/stm32f4xx_ll_usb.c ****   return ((USBx->GINTSTS) & 0x1U);
 2543              		.loc 1 1237 0
 2544              		.cfi_startproc
 2545              		@ args = 0, pretend = 0, frame = 0
 2546              		@ frame_needed = 0, uses_anonymous_args = 0
 2547              		@ link register save eliminated.
 2548              	.LVL278:
1238:Drivers/STM32F4xx_HAL_Driver/Src/stm32f4xx_ll_usb.c **** }
 2549              		.loc 1 1238 0
 2550 0000 4069     		ldr	r0, [r0, #20]
 2551              	.LVL279:
1239:Drivers/STM32F4xx_HAL_Driver/Src/stm32f4xx_ll_usb.c **** 
 2552              		.loc 1 1239 0
 2553 0002 00F00100 		and	r0, r0, #1
 2554 0006 7047     		bx	lr
 2555              		.cfi_endproc
 2556              	.LFE160:
 2558              		.section	.text.USB_ActivateSetup,"ax",%progbits
 2559              		.align	1
 2560              		.global	USB_ActivateSetup
 2561              		.syntax unified
 2562              		.thumb
 2563              		.thumb_func
 2564              		.fpu fpv4-sp-d16
 2566              	USB_ActivateSetup:
 2567              	.LFB161:
1247:Drivers/STM32F4xx_HAL_Driver/Src/stm32f4xx_ll_usb.c ****   uint32_t USBx_BASE = (uint32_t)USBx;
 2568              		.loc 1 1247 0
 2569              		.cfi_startproc
 2570              		@ args = 0, pretend = 0, frame = 0
 2571              		@ frame_needed = 0, uses_anonymous_args = 0
 2572              		@ link register save eliminated.
 2573              	.LVL280:
1251:Drivers/STM32F4xx_HAL_Driver/Src/stm32f4xx_ll_usb.c **** 
 2574              		.loc 1 1251 0
 2575 0000 D0F80039 		ldr	r3, [r0, #2304]
 2576 0004 23F4FF63 		bic	r3, r3, #2040
ARM GAS  /tmp/ccag9PFX.s 			page 75


 2577 0008 23F00703 		bic	r3, r3, #7
 2578 000c C0F80039 		str	r3, [r0, #2304]
1253:Drivers/STM32F4xx_HAL_Driver/Src/stm32f4xx_ll_usb.c ****   {
 2579              		.loc 1 1253 0
 2580 0010 00F50063 		add	r3, r0, #2048
 2581 0014 9A68     		ldr	r2, [r3, #8]
 2582 0016 02F00602 		and	r2, r2, #6
 2583 001a 042A     		cmp	r2, #4
 2584 001c 05D0     		beq	.L205
 2585              	.L204:
1257:Drivers/STM32F4xx_HAL_Driver/Src/stm32f4xx_ll_usb.c **** 
 2586              		.loc 1 1257 0
 2587 001e 5A68     		ldr	r2, [r3, #4]
 2588 0020 42F48072 		orr	r2, r2, #256
 2589 0024 5A60     		str	r2, [r3, #4]
1260:Drivers/STM32F4xx_HAL_Driver/Src/stm32f4xx_ll_usb.c **** 
 2590              		.loc 1 1260 0
 2591 0026 0020     		movs	r0, #0
 2592              	.LVL281:
 2593 0028 7047     		bx	lr
 2594              	.LVL282:
 2595              	.L205:
1255:Drivers/STM32F4xx_HAL_Driver/Src/stm32f4xx_ll_usb.c ****   }
 2596              		.loc 1 1255 0
 2597 002a D0F80029 		ldr	r2, [r0, #2304]
 2598 002e 42F00302 		orr	r2, r2, #3
 2599 0032 C0F80029 		str	r2, [r0, #2304]
 2600 0036 F2E7     		b	.L204
 2601              		.cfi_endproc
 2602              	.LFE161:
 2604              		.section	.text.USB_EP0_OutStart,"ax",%progbits
 2605              		.align	1
 2606              		.global	USB_EP0_OutStart
 2607              		.syntax unified
 2608              		.thumb
 2609              		.thumb_func
 2610              		.fpu fpv4-sp-d16
 2612              	USB_EP0_OutStart:
 2613              	.LFB162:
1273:Drivers/STM32F4xx_HAL_Driver/Src/stm32f4xx_ll_usb.c ****   uint32_t USBx_BASE = (uint32_t)USBx;
 2614              		.loc 1 1273 0
 2615              		.cfi_startproc
 2616              		@ args = 0, pretend = 0, frame = 0
 2617              		@ frame_needed = 0, uses_anonymous_args = 0
 2618              		@ link register save eliminated.
 2619              	.LVL283:
 2620 0000 10B4     		push	{r4}
 2621              	.LCFI36:
 2622              		.cfi_def_cfa_offset 4
 2623              		.cfi_offset 4, -4
 2624              	.LVL284:
1275:Drivers/STM32F4xx_HAL_Driver/Src/stm32f4xx_ll_usb.c **** 
 2625              		.loc 1 1275 0
 2626 0002 046C     		ldr	r4, [r0, #64]
 2627              	.LVL285:
1277:Drivers/STM32F4xx_HAL_Driver/Src/stm32f4xx_ll_usb.c ****   {
 2628              		.loc 1 1277 0
ARM GAS  /tmp/ccag9PFX.s 			page 76


 2629 0004 154B     		ldr	r3, .L211
 2630 0006 9C42     		cmp	r4, r3
 2631 0008 03D9     		bls	.L207
1279:Drivers/STM32F4xx_HAL_Driver/Src/stm32f4xx_ll_usb.c ****     {
 2632              		.loc 1 1279 0
 2633 000a D0F8003B 		ldr	r3, [r0, #2816]
 2634 000e 002B     		cmp	r3, #0
 2635 0010 16DB     		blt	.L208
 2636              	.L207:
1285:Drivers/STM32F4xx_HAL_Driver/Src/stm32f4xx_ll_usb.c ****   USBx_OUTEP(0U)->DOEPTSIZ |= (USB_OTG_DOEPTSIZ_PKTCNT & (1U << 19));
 2637              		.loc 1 1285 0
 2638 0012 0024     		movs	r4, #0
 2639              	.LVL286:
 2640 0014 C0F8104B 		str	r4, [r0, #2832]
1286:Drivers/STM32F4xx_HAL_Driver/Src/stm32f4xx_ll_usb.c ****   USBx_OUTEP(0U)->DOEPTSIZ |= (3U * 8U);
 2641              		.loc 1 1286 0
 2642 0018 D0F8104B 		ldr	r4, [r0, #2832]
 2643 001c 44F40024 		orr	r4, r4, #524288
 2644 0020 C0F8104B 		str	r4, [r0, #2832]
1287:Drivers/STM32F4xx_HAL_Driver/Src/stm32f4xx_ll_usb.c ****   USBx_OUTEP(0U)->DOEPTSIZ |=  USB_OTG_DOEPTSIZ_STUPCNT;
 2645              		.loc 1 1287 0
 2646 0024 D0F8104B 		ldr	r4, [r0, #2832]
 2647 0028 44F01804 		orr	r4, r4, #24
 2648 002c C0F8104B 		str	r4, [r0, #2832]
1288:Drivers/STM32F4xx_HAL_Driver/Src/stm32f4xx_ll_usb.c **** 
 2649              		.loc 1 1288 0
 2650 0030 D0F8104B 		ldr	r4, [r0, #2832]
 2651 0034 44F0C044 		orr	r4, r4, #1610612736
 2652 0038 C0F8104B 		str	r4, [r0, #2832]
1290:Drivers/STM32F4xx_HAL_Driver/Src/stm32f4xx_ll_usb.c ****   {
 2653              		.loc 1 1290 0
 2654 003c 0129     		cmp	r1, #1
 2655 003e 03D0     		beq	.L210
 2656              	.L208:
1298:Drivers/STM32F4xx_HAL_Driver/Src/stm32f4xx_ll_usb.c **** 
 2657              		.loc 1 1298 0
 2658 0040 0020     		movs	r0, #0
 2659              	.LVL287:
 2660 0042 5DF8044B 		ldr	r4, [sp], #4
 2661              	.LCFI37:
 2662              		.cfi_remember_state
 2663              		.cfi_restore 4
 2664              		.cfi_def_cfa_offset 0
 2665 0046 7047     		bx	lr
 2666              	.LVL288:
 2667              	.L210:
 2668              	.LCFI38:
 2669              		.cfi_restore_state
1292:Drivers/STM32F4xx_HAL_Driver/Src/stm32f4xx_ll_usb.c ****     /* EP enable */
 2670              		.loc 1 1292 0
 2671 0048 C0F8142B 		str	r2, [r0, #2836]
1294:Drivers/STM32F4xx_HAL_Driver/Src/stm32f4xx_ll_usb.c ****   }
 2672              		.loc 1 1294 0
 2673 004c D0F8003B 		ldr	r3, [r0, #2816]
 2674 0050 43F08023 		orr	r3, r3, #-2147450880
 2675 0054 C0F8003B 		str	r3, [r0, #2816]
 2676 0058 F2E7     		b	.L208
ARM GAS  /tmp/ccag9PFX.s 			page 77


 2677              	.L212:
 2678 005a 00BF     		.align	2
 2679              	.L211:
 2680 005c 0A30544F 		.word	1330917386
 2681              		.cfi_endproc
 2682              	.LFE162:
 2684              		.section	.text.USB_InitFSLSPClkSel,"ax",%progbits
 2685              		.align	1
 2686              		.global	USB_InitFSLSPClkSel
 2687              		.syntax unified
 2688              		.thumb
 2689              		.thumb_func
 2690              		.fpu fpv4-sp-d16
 2692              	USB_InitFSLSPClkSel:
 2693              	.LFB165:
1334:Drivers/STM32F4xx_HAL_Driver/Src/stm32f4xx_ll_usb.c **** 
1335:Drivers/STM32F4xx_HAL_Driver/Src/stm32f4xx_ll_usb.c **** /**
1336:Drivers/STM32F4xx_HAL_Driver/Src/stm32f4xx_ll_usb.c ****   * @brief  USB_HostInit : Initializes the USB OTG controller registers
1337:Drivers/STM32F4xx_HAL_Driver/Src/stm32f4xx_ll_usb.c ****   *         for Host mode
1338:Drivers/STM32F4xx_HAL_Driver/Src/stm32f4xx_ll_usb.c ****   * @param  USBx  Selected device
1339:Drivers/STM32F4xx_HAL_Driver/Src/stm32f4xx_ll_usb.c ****   * @param  cfg   pointer to a USB_OTG_CfgTypeDef structure that contains
1340:Drivers/STM32F4xx_HAL_Driver/Src/stm32f4xx_ll_usb.c ****   *         the configuration information for the specified USBx peripheral.
1341:Drivers/STM32F4xx_HAL_Driver/Src/stm32f4xx_ll_usb.c ****   * @retval HAL status
1342:Drivers/STM32F4xx_HAL_Driver/Src/stm32f4xx_ll_usb.c ****   */
1343:Drivers/STM32F4xx_HAL_Driver/Src/stm32f4xx_ll_usb.c **** HAL_StatusTypeDef USB_HostInit(USB_OTG_GlobalTypeDef *USBx, USB_OTG_CfgTypeDef cfg)
1344:Drivers/STM32F4xx_HAL_Driver/Src/stm32f4xx_ll_usb.c **** {
1345:Drivers/STM32F4xx_HAL_Driver/Src/stm32f4xx_ll_usb.c ****   uint32_t USBx_BASE = (uint32_t)USBx;
1346:Drivers/STM32F4xx_HAL_Driver/Src/stm32f4xx_ll_usb.c ****   uint32_t i;
1347:Drivers/STM32F4xx_HAL_Driver/Src/stm32f4xx_ll_usb.c **** 
1348:Drivers/STM32F4xx_HAL_Driver/Src/stm32f4xx_ll_usb.c ****   /* Restart the Phy Clock */
1349:Drivers/STM32F4xx_HAL_Driver/Src/stm32f4xx_ll_usb.c ****   USBx_PCGCCTL = 0U;
1350:Drivers/STM32F4xx_HAL_Driver/Src/stm32f4xx_ll_usb.c **** 
1351:Drivers/STM32F4xx_HAL_Driver/Src/stm32f4xx_ll_usb.c **** #if defined(STM32F446xx) || defined(STM32F469xx) || defined(STM32F479xx) || defined(STM32F412Zx) ||
1352:Drivers/STM32F4xx_HAL_Driver/Src/stm32f4xx_ll_usb.c ****   /* Disable HW VBUS sensing */
1353:Drivers/STM32F4xx_HAL_Driver/Src/stm32f4xx_ll_usb.c ****   USBx->GCCFG &= ~(USB_OTG_GCCFG_VBDEN);
1354:Drivers/STM32F4xx_HAL_Driver/Src/stm32f4xx_ll_usb.c **** #else
1355:Drivers/STM32F4xx_HAL_Driver/Src/stm32f4xx_ll_usb.c ****   /*
1356:Drivers/STM32F4xx_HAL_Driver/Src/stm32f4xx_ll_usb.c ****   * Disable HW VBUS sensing. VBUS is internally considered to be always
1357:Drivers/STM32F4xx_HAL_Driver/Src/stm32f4xx_ll_usb.c ****   * at VBUS-Valid level (5V).
1358:Drivers/STM32F4xx_HAL_Driver/Src/stm32f4xx_ll_usb.c ****   */
1359:Drivers/STM32F4xx_HAL_Driver/Src/stm32f4xx_ll_usb.c ****   USBx->GCCFG |= USB_OTG_GCCFG_NOVBUSSENS;
1360:Drivers/STM32F4xx_HAL_Driver/Src/stm32f4xx_ll_usb.c ****   USBx->GCCFG &= ~USB_OTG_GCCFG_VBUSBSEN;
1361:Drivers/STM32F4xx_HAL_Driver/Src/stm32f4xx_ll_usb.c ****   USBx->GCCFG &= ~USB_OTG_GCCFG_VBUSASEN;
1362:Drivers/STM32F4xx_HAL_Driver/Src/stm32f4xx_ll_usb.c **** #endif /* defined(STM32F446xx) || defined(STM32F469xx) || defined(STM32F479xx) || defined(STM32F412
1363:Drivers/STM32F4xx_HAL_Driver/Src/stm32f4xx_ll_usb.c **** #if defined(STM32F412Zx) || defined(STM32F412Vx) || defined(STM32F412Rx) || defined(STM32F412Cx) ||
1364:Drivers/STM32F4xx_HAL_Driver/Src/stm32f4xx_ll_usb.c ****   /* Disable Battery chargin detector */
1365:Drivers/STM32F4xx_HAL_Driver/Src/stm32f4xx_ll_usb.c ****   USBx->GCCFG &= ~(USB_OTG_GCCFG_BCDEN);
1366:Drivers/STM32F4xx_HAL_Driver/Src/stm32f4xx_ll_usb.c **** #endif /* defined(STM32F412Zx) || defined(STM32F412Vx) || defined(STM32F412Rx) || defined(STM32F412
1367:Drivers/STM32F4xx_HAL_Driver/Src/stm32f4xx_ll_usb.c **** 
1368:Drivers/STM32F4xx_HAL_Driver/Src/stm32f4xx_ll_usb.c ****   if ((USBx->CID & (0x1U << 8)) != 0U)
1369:Drivers/STM32F4xx_HAL_Driver/Src/stm32f4xx_ll_usb.c ****   {
1370:Drivers/STM32F4xx_HAL_Driver/Src/stm32f4xx_ll_usb.c ****     if (cfg.speed == USB_OTG_SPEED_FULL)
1371:Drivers/STM32F4xx_HAL_Driver/Src/stm32f4xx_ll_usb.c ****     {
1372:Drivers/STM32F4xx_HAL_Driver/Src/stm32f4xx_ll_usb.c ****       /* Force Device Enumeration to FS/LS mode only */
1373:Drivers/STM32F4xx_HAL_Driver/Src/stm32f4xx_ll_usb.c ****       USBx_HOST->HCFG |= USB_OTG_HCFG_FSLSS;
1374:Drivers/STM32F4xx_HAL_Driver/Src/stm32f4xx_ll_usb.c ****     }
1375:Drivers/STM32F4xx_HAL_Driver/Src/stm32f4xx_ll_usb.c ****     else
ARM GAS  /tmp/ccag9PFX.s 			page 78


1376:Drivers/STM32F4xx_HAL_Driver/Src/stm32f4xx_ll_usb.c ****     {
1377:Drivers/STM32F4xx_HAL_Driver/Src/stm32f4xx_ll_usb.c ****       /* Set default Max speed support */
1378:Drivers/STM32F4xx_HAL_Driver/Src/stm32f4xx_ll_usb.c ****       USBx_HOST->HCFG &= ~(USB_OTG_HCFG_FSLSS);
1379:Drivers/STM32F4xx_HAL_Driver/Src/stm32f4xx_ll_usb.c ****     }
1380:Drivers/STM32F4xx_HAL_Driver/Src/stm32f4xx_ll_usb.c ****   }
1381:Drivers/STM32F4xx_HAL_Driver/Src/stm32f4xx_ll_usb.c ****   else
1382:Drivers/STM32F4xx_HAL_Driver/Src/stm32f4xx_ll_usb.c ****   {
1383:Drivers/STM32F4xx_HAL_Driver/Src/stm32f4xx_ll_usb.c ****     /* Set default Max speed support */
1384:Drivers/STM32F4xx_HAL_Driver/Src/stm32f4xx_ll_usb.c ****     USBx_HOST->HCFG &= ~(USB_OTG_HCFG_FSLSS);
1385:Drivers/STM32F4xx_HAL_Driver/Src/stm32f4xx_ll_usb.c ****   }
1386:Drivers/STM32F4xx_HAL_Driver/Src/stm32f4xx_ll_usb.c **** 
1387:Drivers/STM32F4xx_HAL_Driver/Src/stm32f4xx_ll_usb.c ****   /* Make sure the FIFOs are flushed. */
1388:Drivers/STM32F4xx_HAL_Driver/Src/stm32f4xx_ll_usb.c ****   (void)USB_FlushTxFifo(USBx, 0x10U); /* all Tx FIFOs */
1389:Drivers/STM32F4xx_HAL_Driver/Src/stm32f4xx_ll_usb.c ****   (void)USB_FlushRxFifo(USBx);
1390:Drivers/STM32F4xx_HAL_Driver/Src/stm32f4xx_ll_usb.c **** 
1391:Drivers/STM32F4xx_HAL_Driver/Src/stm32f4xx_ll_usb.c ****   /* Clear all pending HC Interrupts */
1392:Drivers/STM32F4xx_HAL_Driver/Src/stm32f4xx_ll_usb.c ****   for (i = 0U; i < cfg.Host_channels; i++)
1393:Drivers/STM32F4xx_HAL_Driver/Src/stm32f4xx_ll_usb.c ****   {
1394:Drivers/STM32F4xx_HAL_Driver/Src/stm32f4xx_ll_usb.c ****     USBx_HC(i)->HCINT = 0xFFFFFFFFU;
1395:Drivers/STM32F4xx_HAL_Driver/Src/stm32f4xx_ll_usb.c ****     USBx_HC(i)->HCINTMSK = 0U;
1396:Drivers/STM32F4xx_HAL_Driver/Src/stm32f4xx_ll_usb.c ****   }
1397:Drivers/STM32F4xx_HAL_Driver/Src/stm32f4xx_ll_usb.c **** 
1398:Drivers/STM32F4xx_HAL_Driver/Src/stm32f4xx_ll_usb.c ****   /* Enable VBUS driving */
1399:Drivers/STM32F4xx_HAL_Driver/Src/stm32f4xx_ll_usb.c ****   (void)USB_DriveVbus(USBx, 1U);
1400:Drivers/STM32F4xx_HAL_Driver/Src/stm32f4xx_ll_usb.c **** 
1401:Drivers/STM32F4xx_HAL_Driver/Src/stm32f4xx_ll_usb.c ****   HAL_Delay(200U);
1402:Drivers/STM32F4xx_HAL_Driver/Src/stm32f4xx_ll_usb.c **** 
1403:Drivers/STM32F4xx_HAL_Driver/Src/stm32f4xx_ll_usb.c ****   /* Disable all interrupts. */
1404:Drivers/STM32F4xx_HAL_Driver/Src/stm32f4xx_ll_usb.c ****   USBx->GINTMSK = 0U;
1405:Drivers/STM32F4xx_HAL_Driver/Src/stm32f4xx_ll_usb.c **** 
1406:Drivers/STM32F4xx_HAL_Driver/Src/stm32f4xx_ll_usb.c ****   /* Clear any pending interrupts */
1407:Drivers/STM32F4xx_HAL_Driver/Src/stm32f4xx_ll_usb.c ****   USBx->GINTSTS = 0xFFFFFFFFU;
1408:Drivers/STM32F4xx_HAL_Driver/Src/stm32f4xx_ll_usb.c **** 
1409:Drivers/STM32F4xx_HAL_Driver/Src/stm32f4xx_ll_usb.c ****   if ((USBx->CID & (0x1U << 8)) != 0U)
1410:Drivers/STM32F4xx_HAL_Driver/Src/stm32f4xx_ll_usb.c ****   {
1411:Drivers/STM32F4xx_HAL_Driver/Src/stm32f4xx_ll_usb.c ****     /* set Rx FIFO size */
1412:Drivers/STM32F4xx_HAL_Driver/Src/stm32f4xx_ll_usb.c ****     USBx->GRXFSIZ  = 0x200U;
1413:Drivers/STM32F4xx_HAL_Driver/Src/stm32f4xx_ll_usb.c ****     USBx->DIEPTXF0_HNPTXFSIZ = (uint32_t)(((0x100U << 16) & USB_OTG_NPTXFD) | 0x200U);
1414:Drivers/STM32F4xx_HAL_Driver/Src/stm32f4xx_ll_usb.c ****     USBx->HPTXFSIZ = (uint32_t)(((0xE0U << 16) & USB_OTG_HPTXFSIZ_PTXFD) | 0x300U);
1415:Drivers/STM32F4xx_HAL_Driver/Src/stm32f4xx_ll_usb.c ****   }
1416:Drivers/STM32F4xx_HAL_Driver/Src/stm32f4xx_ll_usb.c ****   else
1417:Drivers/STM32F4xx_HAL_Driver/Src/stm32f4xx_ll_usb.c ****   {
1418:Drivers/STM32F4xx_HAL_Driver/Src/stm32f4xx_ll_usb.c ****     /* set Rx FIFO size */
1419:Drivers/STM32F4xx_HAL_Driver/Src/stm32f4xx_ll_usb.c ****     USBx->GRXFSIZ  = 0x80U;
1420:Drivers/STM32F4xx_HAL_Driver/Src/stm32f4xx_ll_usb.c ****     USBx->DIEPTXF0_HNPTXFSIZ = (uint32_t)(((0x60U << 16) & USB_OTG_NPTXFD) | 0x80U);
1421:Drivers/STM32F4xx_HAL_Driver/Src/stm32f4xx_ll_usb.c ****     USBx->HPTXFSIZ = (uint32_t)(((0x40U << 16)& USB_OTG_HPTXFSIZ_PTXFD) | 0xE0U);
1422:Drivers/STM32F4xx_HAL_Driver/Src/stm32f4xx_ll_usb.c ****   }
1423:Drivers/STM32F4xx_HAL_Driver/Src/stm32f4xx_ll_usb.c **** 
1424:Drivers/STM32F4xx_HAL_Driver/Src/stm32f4xx_ll_usb.c ****   /* Enable the common interrupts */
1425:Drivers/STM32F4xx_HAL_Driver/Src/stm32f4xx_ll_usb.c ****   if (cfg.dma_enable == 0U)
1426:Drivers/STM32F4xx_HAL_Driver/Src/stm32f4xx_ll_usb.c ****   {
1427:Drivers/STM32F4xx_HAL_Driver/Src/stm32f4xx_ll_usb.c ****     USBx->GINTMSK |= USB_OTG_GINTMSK_RXFLVLM;
1428:Drivers/STM32F4xx_HAL_Driver/Src/stm32f4xx_ll_usb.c ****   }
1429:Drivers/STM32F4xx_HAL_Driver/Src/stm32f4xx_ll_usb.c **** 
1430:Drivers/STM32F4xx_HAL_Driver/Src/stm32f4xx_ll_usb.c ****   /* Enable interrupts matching to the Host mode ONLY */
1431:Drivers/STM32F4xx_HAL_Driver/Src/stm32f4xx_ll_usb.c ****   USBx->GINTMSK |= (USB_OTG_GINTMSK_PRTIM            | USB_OTG_GINTMSK_HCIM | \
1432:Drivers/STM32F4xx_HAL_Driver/Src/stm32f4xx_ll_usb.c ****                     USB_OTG_GINTMSK_SOFM             | USB_OTG_GINTSTS_DISCINT | \
ARM GAS  /tmp/ccag9PFX.s 			page 79


1433:Drivers/STM32F4xx_HAL_Driver/Src/stm32f4xx_ll_usb.c ****                     USB_OTG_GINTMSK_PXFRM_IISOOXFRM  | USB_OTG_GINTMSK_WUIM);
1434:Drivers/STM32F4xx_HAL_Driver/Src/stm32f4xx_ll_usb.c **** 
1435:Drivers/STM32F4xx_HAL_Driver/Src/stm32f4xx_ll_usb.c ****   return HAL_OK;
1436:Drivers/STM32F4xx_HAL_Driver/Src/stm32f4xx_ll_usb.c **** }
1437:Drivers/STM32F4xx_HAL_Driver/Src/stm32f4xx_ll_usb.c **** 
1438:Drivers/STM32F4xx_HAL_Driver/Src/stm32f4xx_ll_usb.c **** /**
1439:Drivers/STM32F4xx_HAL_Driver/Src/stm32f4xx_ll_usb.c ****   * @brief  USB_InitFSLSPClkSel : Initializes the FSLSPClkSel field of the
1440:Drivers/STM32F4xx_HAL_Driver/Src/stm32f4xx_ll_usb.c ****   *         HCFG register on the PHY type and set the right frame interval
1441:Drivers/STM32F4xx_HAL_Driver/Src/stm32f4xx_ll_usb.c ****   * @param  USBx  Selected device
1442:Drivers/STM32F4xx_HAL_Driver/Src/stm32f4xx_ll_usb.c ****   * @param  freq  clock frequency
1443:Drivers/STM32F4xx_HAL_Driver/Src/stm32f4xx_ll_usb.c ****   *          This parameter can be one of these values:
1444:Drivers/STM32F4xx_HAL_Driver/Src/stm32f4xx_ll_usb.c ****   *           HCFG_48_MHZ : Full Speed 48 MHz Clock
1445:Drivers/STM32F4xx_HAL_Driver/Src/stm32f4xx_ll_usb.c ****   *           HCFG_6_MHZ : Low Speed 6 MHz Clock
1446:Drivers/STM32F4xx_HAL_Driver/Src/stm32f4xx_ll_usb.c ****   * @retval HAL status
1447:Drivers/STM32F4xx_HAL_Driver/Src/stm32f4xx_ll_usb.c ****   */
1448:Drivers/STM32F4xx_HAL_Driver/Src/stm32f4xx_ll_usb.c **** HAL_StatusTypeDef USB_InitFSLSPClkSel(USB_OTG_GlobalTypeDef *USBx, uint8_t freq)
1449:Drivers/STM32F4xx_HAL_Driver/Src/stm32f4xx_ll_usb.c **** {
 2694              		.loc 1 1449 0
 2695              		.cfi_startproc
 2696              		@ args = 0, pretend = 0, frame = 0
 2697              		@ frame_needed = 0, uses_anonymous_args = 0
 2698              		@ link register save eliminated.
 2699              	.LVL289:
 2700 0000 10B4     		push	{r4}
 2701              	.LCFI39:
 2702              		.cfi_def_cfa_offset 4
 2703              		.cfi_offset 4, -4
 2704              	.LVL290:
1450:Drivers/STM32F4xx_HAL_Driver/Src/stm32f4xx_ll_usb.c ****   uint32_t USBx_BASE = (uint32_t)USBx;
1451:Drivers/STM32F4xx_HAL_Driver/Src/stm32f4xx_ll_usb.c **** 
1452:Drivers/STM32F4xx_HAL_Driver/Src/stm32f4xx_ll_usb.c ****   USBx_HOST->HCFG &= ~(USB_OTG_HCFG_FSLSPCS);
 2705              		.loc 1 1452 0
 2706 0002 00F58064 		add	r4, r0, #1024
 2707 0006 D0F80034 		ldr	r3, [r0, #1024]
 2708 000a 23F00303 		bic	r3, r3, #3
 2709 000e C0F80034 		str	r3, [r0, #1024]
1453:Drivers/STM32F4xx_HAL_Driver/Src/stm32f4xx_ll_usb.c ****   USBx_HOST->HCFG |= (uint32_t)freq & USB_OTG_HCFG_FSLSPCS;
 2710              		.loc 1 1453 0
 2711 0012 D0F80034 		ldr	r3, [r0, #1024]
 2712 0016 01F00302 		and	r2, r1, #3
 2713 001a 1343     		orrs	r3, r3, r2
 2714 001c C0F80034 		str	r3, [r0, #1024]
1454:Drivers/STM32F4xx_HAL_Driver/Src/stm32f4xx_ll_usb.c **** 
1455:Drivers/STM32F4xx_HAL_Driver/Src/stm32f4xx_ll_usb.c ****   if (freq == HCFG_48_MHZ)
 2715              		.loc 1 1455 0
 2716 0020 0129     		cmp	r1, #1
 2717 0022 05D0     		beq	.L217
1456:Drivers/STM32F4xx_HAL_Driver/Src/stm32f4xx_ll_usb.c ****   {
1457:Drivers/STM32F4xx_HAL_Driver/Src/stm32f4xx_ll_usb.c ****     USBx_HOST->HFIR = 48000U;
1458:Drivers/STM32F4xx_HAL_Driver/Src/stm32f4xx_ll_usb.c ****   }
1459:Drivers/STM32F4xx_HAL_Driver/Src/stm32f4xx_ll_usb.c ****   else if (freq == HCFG_6_MHZ)
 2718              		.loc 1 1459 0
 2719 0024 0229     		cmp	r1, #2
 2720 0026 07D0     		beq	.L218
 2721              	.L215:
1460:Drivers/STM32F4xx_HAL_Driver/Src/stm32f4xx_ll_usb.c ****   {
1461:Drivers/STM32F4xx_HAL_Driver/Src/stm32f4xx_ll_usb.c ****     USBx_HOST->HFIR = 6000U;
ARM GAS  /tmp/ccag9PFX.s 			page 80


1462:Drivers/STM32F4xx_HAL_Driver/Src/stm32f4xx_ll_usb.c ****   }
1463:Drivers/STM32F4xx_HAL_Driver/Src/stm32f4xx_ll_usb.c ****   else
1464:Drivers/STM32F4xx_HAL_Driver/Src/stm32f4xx_ll_usb.c ****   {
1465:Drivers/STM32F4xx_HAL_Driver/Src/stm32f4xx_ll_usb.c ****     /* ... */
1466:Drivers/STM32F4xx_HAL_Driver/Src/stm32f4xx_ll_usb.c ****   }
1467:Drivers/STM32F4xx_HAL_Driver/Src/stm32f4xx_ll_usb.c **** 
1468:Drivers/STM32F4xx_HAL_Driver/Src/stm32f4xx_ll_usb.c ****   return HAL_OK;
1469:Drivers/STM32F4xx_HAL_Driver/Src/stm32f4xx_ll_usb.c **** }
 2722              		.loc 1 1469 0
 2723 0028 0020     		movs	r0, #0
 2724              	.LVL291:
 2725 002a 5DF8044B 		ldr	r4, [sp], #4
 2726              	.LCFI40:
 2727              		.cfi_remember_state
 2728              		.cfi_restore 4
 2729              		.cfi_def_cfa_offset 0
 2730              	.LVL292:
 2731 002e 7047     		bx	lr
 2732              	.LVL293:
 2733              	.L217:
 2734              	.LCFI41:
 2735              		.cfi_restore_state
1457:Drivers/STM32F4xx_HAL_Driver/Src/stm32f4xx_ll_usb.c ****   }
 2736              		.loc 1 1457 0
 2737 0030 4BF68033 		movw	r3, #48000
 2738 0034 6360     		str	r3, [r4, #4]
 2739 0036 F7E7     		b	.L215
 2740              	.L218:
1461:Drivers/STM32F4xx_HAL_Driver/Src/stm32f4xx_ll_usb.c ****   }
 2741              		.loc 1 1461 0
 2742 0038 41F27073 		movw	r3, #6000
 2743 003c 6360     		str	r3, [r4, #4]
 2744 003e F3E7     		b	.L215
 2745              		.cfi_endproc
 2746              	.LFE165:
 2748              		.section	.text.USB_ResetPort,"ax",%progbits
 2749              		.align	1
 2750              		.global	USB_ResetPort
 2751              		.syntax unified
 2752              		.thumb
 2753              		.thumb_func
 2754              		.fpu fpv4-sp-d16
 2756              	USB_ResetPort:
 2757              	.LFB166:
1470:Drivers/STM32F4xx_HAL_Driver/Src/stm32f4xx_ll_usb.c **** 
1471:Drivers/STM32F4xx_HAL_Driver/Src/stm32f4xx_ll_usb.c **** /**
1472:Drivers/STM32F4xx_HAL_Driver/Src/stm32f4xx_ll_usb.c **** * @brief  USB_OTG_ResetPort : Reset Host Port
1473:Drivers/STM32F4xx_HAL_Driver/Src/stm32f4xx_ll_usb.c ****   * @param  USBx  Selected device
1474:Drivers/STM32F4xx_HAL_Driver/Src/stm32f4xx_ll_usb.c ****   * @retval HAL status
1475:Drivers/STM32F4xx_HAL_Driver/Src/stm32f4xx_ll_usb.c ****   * @note (1)The application must wait at least 10 ms
1476:Drivers/STM32F4xx_HAL_Driver/Src/stm32f4xx_ll_usb.c ****   *   before clearing the reset bit.
1477:Drivers/STM32F4xx_HAL_Driver/Src/stm32f4xx_ll_usb.c ****   */
1478:Drivers/STM32F4xx_HAL_Driver/Src/stm32f4xx_ll_usb.c **** HAL_StatusTypeDef USB_ResetPort(USB_OTG_GlobalTypeDef *USBx)
1479:Drivers/STM32F4xx_HAL_Driver/Src/stm32f4xx_ll_usb.c **** {
 2758              		.loc 1 1479 0
 2759              		.cfi_startproc
 2760              		@ args = 0, pretend = 0, frame = 8
ARM GAS  /tmp/ccag9PFX.s 			page 81


 2761              		@ frame_needed = 0, uses_anonymous_args = 0
 2762              	.LVL294:
 2763 0000 30B5     		push	{r4, r5, lr}
 2764              	.LCFI42:
 2765              		.cfi_def_cfa_offset 12
 2766              		.cfi_offset 4, -12
 2767              		.cfi_offset 5, -8
 2768              		.cfi_offset 14, -4
 2769 0002 83B0     		sub	sp, sp, #12
 2770              	.LCFI43:
 2771              		.cfi_def_cfa_offset 24
 2772 0004 0446     		mov	r4, r0
 2773              	.LVL295:
1480:Drivers/STM32F4xx_HAL_Driver/Src/stm32f4xx_ll_usb.c ****   uint32_t USBx_BASE = (uint32_t)USBx;
1481:Drivers/STM32F4xx_HAL_Driver/Src/stm32f4xx_ll_usb.c **** 
1482:Drivers/STM32F4xx_HAL_Driver/Src/stm32f4xx_ll_usb.c ****   __IO uint32_t hprt0 = 0U;
 2774              		.loc 1 1482 0
 2775 0006 0025     		movs	r5, #0
 2776 0008 0195     		str	r5, [sp, #4]
1483:Drivers/STM32F4xx_HAL_Driver/Src/stm32f4xx_ll_usb.c **** 
1484:Drivers/STM32F4xx_HAL_Driver/Src/stm32f4xx_ll_usb.c ****   hprt0 = USBx_HPRT0;
 2777              		.loc 1 1484 0
 2778 000a D0F84034 		ldr	r3, [r0, #1088]
 2779 000e 0193     		str	r3, [sp, #4]
1485:Drivers/STM32F4xx_HAL_Driver/Src/stm32f4xx_ll_usb.c **** 
1486:Drivers/STM32F4xx_HAL_Driver/Src/stm32f4xx_ll_usb.c ****   hprt0 &= ~(USB_OTG_HPRT_PENA | USB_OTG_HPRT_PCDET |
 2780              		.loc 1 1486 0
 2781 0010 019B     		ldr	r3, [sp, #4]
 2782 0012 23F02E03 		bic	r3, r3, #46
 2783 0016 0193     		str	r3, [sp, #4]
1487:Drivers/STM32F4xx_HAL_Driver/Src/stm32f4xx_ll_usb.c ****              USB_OTG_HPRT_PENCHNG | USB_OTG_HPRT_POCCHNG);
1488:Drivers/STM32F4xx_HAL_Driver/Src/stm32f4xx_ll_usb.c **** 
1489:Drivers/STM32F4xx_HAL_Driver/Src/stm32f4xx_ll_usb.c ****   USBx_HPRT0 = (USB_OTG_HPRT_PRST | hprt0);
 2784              		.loc 1 1489 0
 2785 0018 019B     		ldr	r3, [sp, #4]
 2786 001a 43F48073 		orr	r3, r3, #256
 2787 001e C0F84034 		str	r3, [r0, #1088]
1490:Drivers/STM32F4xx_HAL_Driver/Src/stm32f4xx_ll_usb.c ****   HAL_Delay(100U);                                 /* See Note #1 */
 2788              		.loc 1 1490 0
 2789 0022 6420     		movs	r0, #100
 2790              	.LVL296:
 2791 0024 FFF7FEFF 		bl	HAL_Delay
 2792              	.LVL297:
1491:Drivers/STM32F4xx_HAL_Driver/Src/stm32f4xx_ll_usb.c ****   USBx_HPRT0 = ((~USB_OTG_HPRT_PRST) & hprt0);
 2793              		.loc 1 1491 0
 2794 0028 019B     		ldr	r3, [sp, #4]
 2795 002a 23F48073 		bic	r3, r3, #256
 2796 002e C4F84034 		str	r3, [r4, #1088]
1492:Drivers/STM32F4xx_HAL_Driver/Src/stm32f4xx_ll_usb.c ****   HAL_Delay(10U);
 2797              		.loc 1 1492 0
 2798 0032 0A20     		movs	r0, #10
 2799 0034 FFF7FEFF 		bl	HAL_Delay
 2800              	.LVL298:
1493:Drivers/STM32F4xx_HAL_Driver/Src/stm32f4xx_ll_usb.c **** 
1494:Drivers/STM32F4xx_HAL_Driver/Src/stm32f4xx_ll_usb.c ****   return HAL_OK;
1495:Drivers/STM32F4xx_HAL_Driver/Src/stm32f4xx_ll_usb.c **** }
 2801              		.loc 1 1495 0
ARM GAS  /tmp/ccag9PFX.s 			page 82


 2802 0038 2846     		mov	r0, r5
 2803 003a 03B0     		add	sp, sp, #12
 2804              	.LCFI44:
 2805              		.cfi_def_cfa_offset 12
 2806              		@ sp needed
 2807 003c 30BD     		pop	{r4, r5, pc}
 2808              		.cfi_endproc
 2809              	.LFE166:
 2811              		.section	.text.USB_DriveVbus,"ax",%progbits
 2812              		.align	1
 2813              		.global	USB_DriveVbus
 2814              		.syntax unified
 2815              		.thumb
 2816              		.thumb_func
 2817              		.fpu fpv4-sp-d16
 2819              	USB_DriveVbus:
 2820              	.LFB167:
1496:Drivers/STM32F4xx_HAL_Driver/Src/stm32f4xx_ll_usb.c **** 
1497:Drivers/STM32F4xx_HAL_Driver/Src/stm32f4xx_ll_usb.c **** /**
1498:Drivers/STM32F4xx_HAL_Driver/Src/stm32f4xx_ll_usb.c ****   * @brief  USB_DriveVbus : activate or de-activate vbus
1499:Drivers/STM32F4xx_HAL_Driver/Src/stm32f4xx_ll_usb.c ****   * @param  state  VBUS state
1500:Drivers/STM32F4xx_HAL_Driver/Src/stm32f4xx_ll_usb.c ****   *          This parameter can be one of these values:
1501:Drivers/STM32F4xx_HAL_Driver/Src/stm32f4xx_ll_usb.c ****   *           0 : VBUS Active
1502:Drivers/STM32F4xx_HAL_Driver/Src/stm32f4xx_ll_usb.c ****   *           1 : VBUS Inactive
1503:Drivers/STM32F4xx_HAL_Driver/Src/stm32f4xx_ll_usb.c ****   * @retval HAL status
1504:Drivers/STM32F4xx_HAL_Driver/Src/stm32f4xx_ll_usb.c **** */
1505:Drivers/STM32F4xx_HAL_Driver/Src/stm32f4xx_ll_usb.c **** HAL_StatusTypeDef USB_DriveVbus(USB_OTG_GlobalTypeDef *USBx, uint8_t state)
1506:Drivers/STM32F4xx_HAL_Driver/Src/stm32f4xx_ll_usb.c **** {
 2821              		.loc 1 1506 0
 2822              		.cfi_startproc
 2823              		@ args = 0, pretend = 0, frame = 8
 2824              		@ frame_needed = 0, uses_anonymous_args = 0
 2825              		@ link register save eliminated.
 2826              	.LVL299:
 2827 0000 82B0     		sub	sp, sp, #8
 2828              	.LCFI45:
 2829              		.cfi_def_cfa_offset 8
 2830              	.LVL300:
1507:Drivers/STM32F4xx_HAL_Driver/Src/stm32f4xx_ll_usb.c ****   uint32_t USBx_BASE = (uint32_t)USBx;
1508:Drivers/STM32F4xx_HAL_Driver/Src/stm32f4xx_ll_usb.c ****   __IO uint32_t hprt0 = 0U;
 2831              		.loc 1 1508 0
 2832 0002 0023     		movs	r3, #0
 2833 0004 0193     		str	r3, [sp, #4]
1509:Drivers/STM32F4xx_HAL_Driver/Src/stm32f4xx_ll_usb.c **** 
1510:Drivers/STM32F4xx_HAL_Driver/Src/stm32f4xx_ll_usb.c ****   hprt0 = USBx_HPRT0;
 2834              		.loc 1 1510 0
 2835 0006 D0F84034 		ldr	r3, [r0, #1088]
 2836 000a 0193     		str	r3, [sp, #4]
1511:Drivers/STM32F4xx_HAL_Driver/Src/stm32f4xx_ll_usb.c **** 
1512:Drivers/STM32F4xx_HAL_Driver/Src/stm32f4xx_ll_usb.c ****   hprt0 &= ~(USB_OTG_HPRT_PENA | USB_OTG_HPRT_PCDET |
 2837              		.loc 1 1512 0
 2838 000c 019B     		ldr	r3, [sp, #4]
 2839 000e 23F02E03 		bic	r3, r3, #46
 2840 0012 0193     		str	r3, [sp, #4]
1513:Drivers/STM32F4xx_HAL_Driver/Src/stm32f4xx_ll_usb.c ****              USB_OTG_HPRT_PENCHNG | USB_OTG_HPRT_POCCHNG);
1514:Drivers/STM32F4xx_HAL_Driver/Src/stm32f4xx_ll_usb.c **** 
1515:Drivers/STM32F4xx_HAL_Driver/Src/stm32f4xx_ll_usb.c ****   if (((hprt0 & USB_OTG_HPRT_PPWR) == 0U) && (state == 1U))
ARM GAS  /tmp/ccag9PFX.s 			page 83


 2841              		.loc 1 1515 0
 2842 0014 019B     		ldr	r3, [sp, #4]
 2843 0016 13F4805F 		tst	r3, #4096
 2844 001a 01D1     		bne	.L222
 2845              		.loc 1 1515 0 is_stmt 0 discriminator 1
 2846 001c 0129     		cmp	r1, #1
 2847 001e 0CD0     		beq	.L225
 2848              	.L222:
1516:Drivers/STM32F4xx_HAL_Driver/Src/stm32f4xx_ll_usb.c ****   {
1517:Drivers/STM32F4xx_HAL_Driver/Src/stm32f4xx_ll_usb.c ****     USBx_HPRT0 = (USB_OTG_HPRT_PPWR | hprt0);
1518:Drivers/STM32F4xx_HAL_Driver/Src/stm32f4xx_ll_usb.c ****   }
1519:Drivers/STM32F4xx_HAL_Driver/Src/stm32f4xx_ll_usb.c ****   if (((hprt0 & USB_OTG_HPRT_PPWR) == USB_OTG_HPRT_PPWR) && (state == 0U))
 2849              		.loc 1 1519 0 is_stmt 1
 2850 0020 019B     		ldr	r3, [sp, #4]
 2851 0022 13F4805F 		tst	r3, #4096
 2852 0026 05D0     		beq	.L223
 2853              		.loc 1 1519 0 is_stmt 0 discriminator 1
 2854 0028 21B9     		cbnz	r1, .L223
1520:Drivers/STM32F4xx_HAL_Driver/Src/stm32f4xx_ll_usb.c ****   {
1521:Drivers/STM32F4xx_HAL_Driver/Src/stm32f4xx_ll_usb.c ****     USBx_HPRT0 = ((~USB_OTG_HPRT_PPWR) & hprt0);
 2855              		.loc 1 1521 0 is_stmt 1
 2856 002a 019B     		ldr	r3, [sp, #4]
 2857 002c 23F48053 		bic	r3, r3, #4096
 2858 0030 C0F84034 		str	r3, [r0, #1088]
 2859              	.L223:
1522:Drivers/STM32F4xx_HAL_Driver/Src/stm32f4xx_ll_usb.c ****   }
1523:Drivers/STM32F4xx_HAL_Driver/Src/stm32f4xx_ll_usb.c ****   return HAL_OK;
1524:Drivers/STM32F4xx_HAL_Driver/Src/stm32f4xx_ll_usb.c **** }
 2860              		.loc 1 1524 0
 2861 0034 0020     		movs	r0, #0
 2862              	.LVL301:
 2863 0036 02B0     		add	sp, sp, #8
 2864              	.LCFI46:
 2865              		.cfi_remember_state
 2866              		.cfi_def_cfa_offset 0
 2867              		@ sp needed
 2868 0038 7047     		bx	lr
 2869              	.LVL302:
 2870              	.L225:
 2871              	.LCFI47:
 2872              		.cfi_restore_state
1517:Drivers/STM32F4xx_HAL_Driver/Src/stm32f4xx_ll_usb.c ****   }
 2873              		.loc 1 1517 0
 2874 003a 019B     		ldr	r3, [sp, #4]
 2875 003c 43F48053 		orr	r3, r3, #4096
 2876 0040 C0F84034 		str	r3, [r0, #1088]
 2877 0044 ECE7     		b	.L222
 2878              		.cfi_endproc
 2879              	.LFE167:
 2881              		.section	.text.USB_HostInit,"ax",%progbits
 2882              		.align	1
 2883              		.global	USB_HostInit
 2884              		.syntax unified
 2885              		.thumb
 2886              		.thumb_func
 2887              		.fpu fpv4-sp-d16
 2889              	USB_HostInit:
ARM GAS  /tmp/ccag9PFX.s 			page 84


 2890              	.LFB164:
1344:Drivers/STM32F4xx_HAL_Driver/Src/stm32f4xx_ll_usb.c ****   uint32_t USBx_BASE = (uint32_t)USBx;
 2891              		.loc 1 1344 0
 2892              		.cfi_startproc
 2893              		@ args = 56, pretend = 16, frame = 0
 2894              		@ frame_needed = 0, uses_anonymous_args = 0
 2895              	.LVL303:
 2896 0000 84B0     		sub	sp, sp, #16
 2897              	.LCFI48:
 2898              		.cfi_def_cfa_offset 16
 2899 0002 38B5     		push	{r3, r4, r5, lr}
 2900              	.LCFI49:
 2901              		.cfi_def_cfa_offset 32
 2902              		.cfi_offset 3, -32
 2903              		.cfi_offset 4, -28
 2904              		.cfi_offset 5, -24
 2905              		.cfi_offset 14, -20
 2906 0004 0446     		mov	r4, r0
 2907 0006 05A8     		add	r0, sp, #20
 2908              	.LVL304:
 2909 0008 80E80E00 		stm	r0, {r1, r2, r3}
1345:Drivers/STM32F4xx_HAL_Driver/Src/stm32f4xx_ll_usb.c ****   uint32_t i;
 2910              		.loc 1 1345 0
 2911 000c 2546     		mov	r5, r4
 2912              	.LVL305:
1349:Drivers/STM32F4xx_HAL_Driver/Src/stm32f4xx_ll_usb.c **** 
 2913              		.loc 1 1349 0
 2914 000e 0023     		movs	r3, #0
 2915 0010 C4F8003E 		str	r3, [r4, #3584]
1359:Drivers/STM32F4xx_HAL_Driver/Src/stm32f4xx_ll_usb.c ****   USBx->GCCFG &= ~USB_OTG_GCCFG_VBUSBSEN;
 2916              		.loc 1 1359 0
 2917 0014 A36B     		ldr	r3, [r4, #56]
 2918 0016 43F40013 		orr	r3, r3, #2097152
 2919 001a A363     		str	r3, [r4, #56]
1360:Drivers/STM32F4xx_HAL_Driver/Src/stm32f4xx_ll_usb.c ****   USBx->GCCFG &= ~USB_OTG_GCCFG_VBUSASEN;
 2920              		.loc 1 1360 0
 2921 001c A36B     		ldr	r3, [r4, #56]
 2922 001e 23F40023 		bic	r3, r3, #524288
 2923 0022 A363     		str	r3, [r4, #56]
1361:Drivers/STM32F4xx_HAL_Driver/Src/stm32f4xx_ll_usb.c **** #endif /* defined(STM32F446xx) || defined(STM32F469xx) || defined(STM32F479xx) || defined(STM32F412
 2924              		.loc 1 1361 0
 2925 0024 A36B     		ldr	r3, [r4, #56]
 2926 0026 23F48023 		bic	r3, r3, #262144
 2927 002a A363     		str	r3, [r4, #56]
1368:Drivers/STM32F4xx_HAL_Driver/Src/stm32f4xx_ll_usb.c ****   {
 2928              		.loc 1 1368 0
 2929 002c E36B     		ldr	r3, [r4, #60]
 2930 002e 13F4807F 		tst	r3, #256
 2931 0032 10D0     		beq	.L227
1370:Drivers/STM32F4xx_HAL_Driver/Src/stm32f4xx_ll_usb.c ****     {
 2932              		.loc 1 1370 0
 2933 0034 079B     		ldr	r3, [sp, #28]
 2934 0036 032B     		cmp	r3, #3
 2935 0038 06D0     		beq	.L236
1378:Drivers/STM32F4xx_HAL_Driver/Src/stm32f4xx_ll_usb.c ****     }
 2936              		.loc 1 1378 0
 2937 003a D4F80034 		ldr	r3, [r4, #1024]
ARM GAS  /tmp/ccag9PFX.s 			page 85


 2938 003e 23F00403 		bic	r3, r3, #4
 2939 0042 C4F80034 		str	r3, [r4, #1024]
 2940 0046 0CE0     		b	.L229
 2941              	.L236:
1373:Drivers/STM32F4xx_HAL_Driver/Src/stm32f4xx_ll_usb.c ****     }
 2942              		.loc 1 1373 0
 2943 0048 D4F80034 		ldr	r3, [r4, #1024]
 2944 004c 43F00403 		orr	r3, r3, #4
 2945 0050 C4F80034 		str	r3, [r4, #1024]
 2946 0054 05E0     		b	.L229
 2947              	.L227:
1384:Drivers/STM32F4xx_HAL_Driver/Src/stm32f4xx_ll_usb.c ****   }
 2948              		.loc 1 1384 0
 2949 0056 D4F80034 		ldr	r3, [r4, #1024]
 2950 005a 23F00403 		bic	r3, r3, #4
 2951 005e C4F80034 		str	r3, [r4, #1024]
 2952              	.L229:
1388:Drivers/STM32F4xx_HAL_Driver/Src/stm32f4xx_ll_usb.c ****   (void)USB_FlushRxFifo(USBx);
 2953              		.loc 1 1388 0
 2954 0062 1021     		movs	r1, #16
 2955 0064 2046     		mov	r0, r4
 2956 0066 FFF7FEFF 		bl	USB_FlushTxFifo
 2957              	.LVL306:
1389:Drivers/STM32F4xx_HAL_Driver/Src/stm32f4xx_ll_usb.c **** 
 2958              		.loc 1 1389 0
 2959 006a 2046     		mov	r0, r4
 2960 006c FFF7FEFF 		bl	USB_FlushRxFifo
 2961              	.LVL307:
1392:Drivers/STM32F4xx_HAL_Driver/Src/stm32f4xx_ll_usb.c ****   {
 2962              		.loc 1 1392 0
 2963 0070 0022     		movs	r2, #0
 2964 0072 09E0     		b	.L230
 2965              	.LVL308:
 2966              	.L231:
1394:Drivers/STM32F4xx_HAL_Driver/Src/stm32f4xx_ll_usb.c ****     USBx_HC(i)->HCINTMSK = 0U;
 2967              		.loc 1 1394 0 discriminator 3
 2968 0074 05EB4213 		add	r3, r5, r2, lsl #5
 2969 0078 4FF0FF31 		mov	r1, #-1
 2970 007c C3F80815 		str	r1, [r3, #1288]
1395:Drivers/STM32F4xx_HAL_Driver/Src/stm32f4xx_ll_usb.c ****   }
 2971              		.loc 1 1395 0 discriminator 3
 2972 0080 0021     		movs	r1, #0
 2973 0082 C3F80C15 		str	r1, [r3, #1292]
1392:Drivers/STM32F4xx_HAL_Driver/Src/stm32f4xx_ll_usb.c ****   {
 2974              		.loc 1 1392 0 discriminator 3
 2975 0086 0132     		adds	r2, r2, #1
 2976              	.LVL309:
 2977              	.L230:
1392:Drivers/STM32F4xx_HAL_Driver/Src/stm32f4xx_ll_usb.c ****   {
 2978              		.loc 1 1392 0 is_stmt 0 discriminator 1
 2979 0088 069B     		ldr	r3, [sp, #24]
 2980 008a 9342     		cmp	r3, r2
 2981 008c F2D8     		bhi	.L231
1399:Drivers/STM32F4xx_HAL_Driver/Src/stm32f4xx_ll_usb.c **** 
 2982              		.loc 1 1399 0 is_stmt 1
 2983 008e 0121     		movs	r1, #1
 2984 0090 2046     		mov	r0, r4
ARM GAS  /tmp/ccag9PFX.s 			page 86


 2985 0092 FFF7FEFF 		bl	USB_DriveVbus
 2986              	.LVL310:
1401:Drivers/STM32F4xx_HAL_Driver/Src/stm32f4xx_ll_usb.c **** 
 2987              		.loc 1 1401 0
 2988 0096 C820     		movs	r0, #200
 2989 0098 FFF7FEFF 		bl	HAL_Delay
 2990              	.LVL311:
1404:Drivers/STM32F4xx_HAL_Driver/Src/stm32f4xx_ll_usb.c **** 
 2991              		.loc 1 1404 0
 2992 009c 0023     		movs	r3, #0
 2993 009e A361     		str	r3, [r4, #24]
1407:Drivers/STM32F4xx_HAL_Driver/Src/stm32f4xx_ll_usb.c **** 
 2994              		.loc 1 1407 0
 2995 00a0 4FF0FF33 		mov	r3, #-1
 2996 00a4 6361     		str	r3, [r4, #20]
1409:Drivers/STM32F4xx_HAL_Driver/Src/stm32f4xx_ll_usb.c ****   {
 2997              		.loc 1 1409 0
 2998 00a6 E36B     		ldr	r3, [r4, #60]
 2999 00a8 13F4807F 		tst	r3, #256
 3000 00ac 17D0     		beq	.L232
1412:Drivers/STM32F4xx_HAL_Driver/Src/stm32f4xx_ll_usb.c ****     USBx->DIEPTXF0_HNPTXFSIZ = (uint32_t)(((0x100U << 16) & USB_OTG_NPTXFD) | 0x200U);
 3001              		.loc 1 1412 0
 3002 00ae 4FF40073 		mov	r3, #512
 3003 00b2 6362     		str	r3, [r4, #36]
1413:Drivers/STM32F4xx_HAL_Driver/Src/stm32f4xx_ll_usb.c ****     USBx->HPTXFSIZ = (uint32_t)(((0xE0U << 16) & USB_OTG_HPTXFSIZ_PTXFD) | 0x300U);
 3004              		.loc 1 1413 0
 3005 00b4 03F18073 		add	r3, r3, #16777216
 3006 00b8 A362     		str	r3, [r4, #40]
1414:Drivers/STM32F4xx_HAL_Driver/Src/stm32f4xx_ll_usb.c ****   }
 3007              		.loc 1 1414 0
 3008 00ba 0D4B     		ldr	r3, .L237
 3009 00bc C4F80031 		str	r3, [r4, #256]
 3010              	.L233:
1425:Drivers/STM32F4xx_HAL_Driver/Src/stm32f4xx_ll_usb.c ****   {
 3011              		.loc 1 1425 0
 3012 00c0 089B     		ldr	r3, [sp, #32]
 3013 00c2 1BB9     		cbnz	r3, .L234
1427:Drivers/STM32F4xx_HAL_Driver/Src/stm32f4xx_ll_usb.c ****   }
 3014              		.loc 1 1427 0
 3015 00c4 A369     		ldr	r3, [r4, #24]
 3016 00c6 43F01003 		orr	r3, r3, #16
 3017 00ca A361     		str	r3, [r4, #24]
 3018              	.L234:
1431:Drivers/STM32F4xx_HAL_Driver/Src/stm32f4xx_ll_usb.c ****                     USB_OTG_GINTMSK_SOFM             | USB_OTG_GINTSTS_DISCINT | \
 3019              		.loc 1 1431 0
 3020 00cc A269     		ldr	r2, [r4, #24]
 3021 00ce 094B     		ldr	r3, .L237+4
 3022 00d0 1343     		orrs	r3, r3, r2
 3023 00d2 A361     		str	r3, [r4, #24]
1436:Drivers/STM32F4xx_HAL_Driver/Src/stm32f4xx_ll_usb.c **** 
 3024              		.loc 1 1436 0
 3025 00d4 0020     		movs	r0, #0
 3026 00d6 BDE83840 		pop	{r3, r4, r5, lr}
 3027              	.LCFI50:
 3028              		.cfi_remember_state
 3029              		.cfi_restore 14
 3030              		.cfi_restore 5
ARM GAS  /tmp/ccag9PFX.s 			page 87


 3031              		.cfi_restore 4
 3032              		.cfi_restore 3
 3033              		.cfi_def_cfa_offset 16
 3034              	.LVL312:
 3035 00da 04B0     		add	sp, sp, #16
 3036              	.LCFI51:
 3037              		.cfi_def_cfa_offset 0
 3038 00dc 7047     		bx	lr
 3039              	.LVL313:
 3040              	.L232:
 3041              	.LCFI52:
 3042              		.cfi_restore_state
1419:Drivers/STM32F4xx_HAL_Driver/Src/stm32f4xx_ll_usb.c ****     USBx->DIEPTXF0_HNPTXFSIZ = (uint32_t)(((0x60U << 16) & USB_OTG_NPTXFD) | 0x80U);
 3043              		.loc 1 1419 0
 3044 00de 8023     		movs	r3, #128
 3045 00e0 6362     		str	r3, [r4, #36]
1420:Drivers/STM32F4xx_HAL_Driver/Src/stm32f4xx_ll_usb.c ****     USBx->HPTXFSIZ = (uint32_t)(((0x40U << 16)& USB_OTG_HPTXFSIZ_PTXFD) | 0xE0U);
 3046              		.loc 1 1420 0
 3047 00e2 03F5C003 		add	r3, r3, #6291456
 3048 00e6 A362     		str	r3, [r4, #40]
1421:Drivers/STM32F4xx_HAL_Driver/Src/stm32f4xx_ll_usb.c ****   }
 3049              		.loc 1 1421 0
 3050 00e8 034B     		ldr	r3, .L237+8
 3051 00ea C4F80031 		str	r3, [r4, #256]
 3052 00ee E7E7     		b	.L233
 3053              	.L238:
 3054              		.align	2
 3055              	.L237:
 3056 00f0 0003E000 		.word	14680832
 3057 00f4 080020A3 		.word	-1558183928
 3058 00f8 E0004000 		.word	4194528
 3059              		.cfi_endproc
 3060              	.LFE164:
 3062              		.section	.text.USB_GetHostSpeed,"ax",%progbits
 3063              		.align	1
 3064              		.global	USB_GetHostSpeed
 3065              		.syntax unified
 3066              		.thumb
 3067              		.thumb_func
 3068              		.fpu fpv4-sp-d16
 3070              	USB_GetHostSpeed:
 3071              	.LFB168:
1525:Drivers/STM32F4xx_HAL_Driver/Src/stm32f4xx_ll_usb.c **** 
1526:Drivers/STM32F4xx_HAL_Driver/Src/stm32f4xx_ll_usb.c **** /**
1527:Drivers/STM32F4xx_HAL_Driver/Src/stm32f4xx_ll_usb.c ****   * @brief  Return Host Core speed
1528:Drivers/STM32F4xx_HAL_Driver/Src/stm32f4xx_ll_usb.c ****   * @param  USBx  Selected device
1529:Drivers/STM32F4xx_HAL_Driver/Src/stm32f4xx_ll_usb.c ****   * @retval speed : Host speed
1530:Drivers/STM32F4xx_HAL_Driver/Src/stm32f4xx_ll_usb.c ****   *          This parameter can be one of these values:
1531:Drivers/STM32F4xx_HAL_Driver/Src/stm32f4xx_ll_usb.c ****   *            @arg HCD_SPEED_HIGH: High speed mode
1532:Drivers/STM32F4xx_HAL_Driver/Src/stm32f4xx_ll_usb.c ****   *            @arg HCD_SPEED_FULL: Full speed mode
1533:Drivers/STM32F4xx_HAL_Driver/Src/stm32f4xx_ll_usb.c ****   *            @arg HCD_SPEED_LOW: Low speed mode
1534:Drivers/STM32F4xx_HAL_Driver/Src/stm32f4xx_ll_usb.c ****   */
1535:Drivers/STM32F4xx_HAL_Driver/Src/stm32f4xx_ll_usb.c **** uint32_t USB_GetHostSpeed(USB_OTG_GlobalTypeDef *USBx)
1536:Drivers/STM32F4xx_HAL_Driver/Src/stm32f4xx_ll_usb.c **** {
 3072              		.loc 1 1536 0
 3073              		.cfi_startproc
 3074              		@ args = 0, pretend = 0, frame = 8
ARM GAS  /tmp/ccag9PFX.s 			page 88


 3075              		@ frame_needed = 0, uses_anonymous_args = 0
 3076              		@ link register save eliminated.
 3077              	.LVL314:
 3078 0000 82B0     		sub	sp, sp, #8
 3079              	.LCFI53:
 3080              		.cfi_def_cfa_offset 8
 3081              	.LVL315:
1537:Drivers/STM32F4xx_HAL_Driver/Src/stm32f4xx_ll_usb.c ****   uint32_t USBx_BASE = (uint32_t)USBx;
1538:Drivers/STM32F4xx_HAL_Driver/Src/stm32f4xx_ll_usb.c ****   __IO uint32_t hprt0 = 0U;
 3082              		.loc 1 1538 0
 3083 0002 0023     		movs	r3, #0
 3084 0004 0193     		str	r3, [sp, #4]
1539:Drivers/STM32F4xx_HAL_Driver/Src/stm32f4xx_ll_usb.c **** 
1540:Drivers/STM32F4xx_HAL_Driver/Src/stm32f4xx_ll_usb.c ****   hprt0 = USBx_HPRT0;
 3085              		.loc 1 1540 0
 3086 0006 D0F84034 		ldr	r3, [r0, #1088]
 3087 000a 0193     		str	r3, [sp, #4]
1541:Drivers/STM32F4xx_HAL_Driver/Src/stm32f4xx_ll_usb.c ****   return ((hprt0 & USB_OTG_HPRT_PSPD) >> 17);
 3088              		.loc 1 1541 0
 3089 000c 0198     		ldr	r0, [sp, #4]
 3090              	.LVL316:
1542:Drivers/STM32F4xx_HAL_Driver/Src/stm32f4xx_ll_usb.c **** }
 3091              		.loc 1 1542 0
 3092 000e C0F34140 		ubfx	r0, r0, #17, #2
 3093 0012 02B0     		add	sp, sp, #8
 3094              	.LCFI54:
 3095              		.cfi_def_cfa_offset 0
 3096              		@ sp needed
 3097 0014 7047     		bx	lr
 3098              		.cfi_endproc
 3099              	.LFE168:
 3101              		.section	.text.USB_GetCurrentFrame,"ax",%progbits
 3102              		.align	1
 3103              		.global	USB_GetCurrentFrame
 3104              		.syntax unified
 3105              		.thumb
 3106              		.thumb_func
 3107              		.fpu fpv4-sp-d16
 3109              	USB_GetCurrentFrame:
 3110              	.LFB169:
1543:Drivers/STM32F4xx_HAL_Driver/Src/stm32f4xx_ll_usb.c **** 
1544:Drivers/STM32F4xx_HAL_Driver/Src/stm32f4xx_ll_usb.c **** /**
1545:Drivers/STM32F4xx_HAL_Driver/Src/stm32f4xx_ll_usb.c ****   * @brief  Return Host Current Frame number
1546:Drivers/STM32F4xx_HAL_Driver/Src/stm32f4xx_ll_usb.c ****   * @param  USBx  Selected device
1547:Drivers/STM32F4xx_HAL_Driver/Src/stm32f4xx_ll_usb.c ****   * @retval current frame number
1548:Drivers/STM32F4xx_HAL_Driver/Src/stm32f4xx_ll_usb.c **** */
1549:Drivers/STM32F4xx_HAL_Driver/Src/stm32f4xx_ll_usb.c **** uint32_t USB_GetCurrentFrame(USB_OTG_GlobalTypeDef *USBx)
1550:Drivers/STM32F4xx_HAL_Driver/Src/stm32f4xx_ll_usb.c **** {
 3111              		.loc 1 1550 0
 3112              		.cfi_startproc
 3113              		@ args = 0, pretend = 0, frame = 0
 3114              		@ frame_needed = 0, uses_anonymous_args = 0
 3115              		@ link register save eliminated.
 3116              	.LVL317:
1551:Drivers/STM32F4xx_HAL_Driver/Src/stm32f4xx_ll_usb.c ****   uint32_t USBx_BASE = (uint32_t)USBx;
1552:Drivers/STM32F4xx_HAL_Driver/Src/stm32f4xx_ll_usb.c **** 
1553:Drivers/STM32F4xx_HAL_Driver/Src/stm32f4xx_ll_usb.c ****   return (USBx_HOST->HFNUM & USB_OTG_HFNUM_FRNUM);
ARM GAS  /tmp/ccag9PFX.s 			page 89


 3117              		.loc 1 1553 0
 3118 0000 00F58060 		add	r0, r0, #1024
 3119              	.LVL318:
 3120 0004 8068     		ldr	r0, [r0, #8]
 3121              	.LVL319:
1554:Drivers/STM32F4xx_HAL_Driver/Src/stm32f4xx_ll_usb.c **** }
 3122              		.loc 1 1554 0
 3123 0006 80B2     		uxth	r0, r0
 3124 0008 7047     		bx	lr
 3125              		.cfi_endproc
 3126              	.LFE169:
 3128              		.section	.text.USB_HC_Init,"ax",%progbits
 3129              		.align	1
 3130              		.global	USB_HC_Init
 3131              		.syntax unified
 3132              		.thumb
 3133              		.thumb_func
 3134              		.fpu fpv4-sp-d16
 3136              	USB_HC_Init:
 3137              	.LFB170:
1555:Drivers/STM32F4xx_HAL_Driver/Src/stm32f4xx_ll_usb.c **** 
1556:Drivers/STM32F4xx_HAL_Driver/Src/stm32f4xx_ll_usb.c **** /**
1557:Drivers/STM32F4xx_HAL_Driver/Src/stm32f4xx_ll_usb.c ****   * @brief  Initialize a host channel
1558:Drivers/STM32F4xx_HAL_Driver/Src/stm32f4xx_ll_usb.c ****   * @param  USBx  Selected device
1559:Drivers/STM32F4xx_HAL_Driver/Src/stm32f4xx_ll_usb.c ****   * @param  ch_num  Channel number
1560:Drivers/STM32F4xx_HAL_Driver/Src/stm32f4xx_ll_usb.c ****   *         This parameter can be a value from 1 to 15
1561:Drivers/STM32F4xx_HAL_Driver/Src/stm32f4xx_ll_usb.c ****   * @param  epnum  Endpoint number
1562:Drivers/STM32F4xx_HAL_Driver/Src/stm32f4xx_ll_usb.c ****   *          This parameter can be a value from 1 to 15
1563:Drivers/STM32F4xx_HAL_Driver/Src/stm32f4xx_ll_usb.c ****   * @param  dev_address  Current device address
1564:Drivers/STM32F4xx_HAL_Driver/Src/stm32f4xx_ll_usb.c ****   *          This parameter can be a value from 0 to 255
1565:Drivers/STM32F4xx_HAL_Driver/Src/stm32f4xx_ll_usb.c ****   * @param  speed  Current device speed
1566:Drivers/STM32F4xx_HAL_Driver/Src/stm32f4xx_ll_usb.c ****   *          This parameter can be one of these values:
1567:Drivers/STM32F4xx_HAL_Driver/Src/stm32f4xx_ll_usb.c ****   *            @arg USB_OTG_SPEED_HIGH: High speed mode
1568:Drivers/STM32F4xx_HAL_Driver/Src/stm32f4xx_ll_usb.c ****   *            @arg USB_OTG_SPEED_FULL: Full speed mode
1569:Drivers/STM32F4xx_HAL_Driver/Src/stm32f4xx_ll_usb.c ****   *            @arg USB_OTG_SPEED_LOW: Low speed mode
1570:Drivers/STM32F4xx_HAL_Driver/Src/stm32f4xx_ll_usb.c ****   * @param  ep_type  Endpoint Type
1571:Drivers/STM32F4xx_HAL_Driver/Src/stm32f4xx_ll_usb.c ****   *          This parameter can be one of these values:
1572:Drivers/STM32F4xx_HAL_Driver/Src/stm32f4xx_ll_usb.c ****   *            @arg EP_TYPE_CTRL: Control type
1573:Drivers/STM32F4xx_HAL_Driver/Src/stm32f4xx_ll_usb.c ****   *            @arg EP_TYPE_ISOC: Isochronous type
1574:Drivers/STM32F4xx_HAL_Driver/Src/stm32f4xx_ll_usb.c ****   *            @arg EP_TYPE_BULK: Bulk type
1575:Drivers/STM32F4xx_HAL_Driver/Src/stm32f4xx_ll_usb.c ****   *            @arg EP_TYPE_INTR: Interrupt type
1576:Drivers/STM32F4xx_HAL_Driver/Src/stm32f4xx_ll_usb.c ****   * @param  mps  Max Packet Size
1577:Drivers/STM32F4xx_HAL_Driver/Src/stm32f4xx_ll_usb.c ****   *          This parameter can be a value from 0 to32K
1578:Drivers/STM32F4xx_HAL_Driver/Src/stm32f4xx_ll_usb.c ****   * @retval HAL state
1579:Drivers/STM32F4xx_HAL_Driver/Src/stm32f4xx_ll_usb.c ****   */
1580:Drivers/STM32F4xx_HAL_Driver/Src/stm32f4xx_ll_usb.c **** HAL_StatusTypeDef USB_HC_Init(USB_OTG_GlobalTypeDef *USBx,
1581:Drivers/STM32F4xx_HAL_Driver/Src/stm32f4xx_ll_usb.c ****                               uint8_t ch_num,
1582:Drivers/STM32F4xx_HAL_Driver/Src/stm32f4xx_ll_usb.c ****                               uint8_t epnum,
1583:Drivers/STM32F4xx_HAL_Driver/Src/stm32f4xx_ll_usb.c ****                               uint8_t dev_address,
1584:Drivers/STM32F4xx_HAL_Driver/Src/stm32f4xx_ll_usb.c ****                               uint8_t speed,
1585:Drivers/STM32F4xx_HAL_Driver/Src/stm32f4xx_ll_usb.c ****                               uint8_t ep_type,
1586:Drivers/STM32F4xx_HAL_Driver/Src/stm32f4xx_ll_usb.c ****                               uint16_t mps)
1587:Drivers/STM32F4xx_HAL_Driver/Src/stm32f4xx_ll_usb.c **** {
 3138              		.loc 1 1587 0
 3139              		.cfi_startproc
 3140              		@ args = 12, pretend = 0, frame = 0
 3141              		@ frame_needed = 0, uses_anonymous_args = 0
ARM GAS  /tmp/ccag9PFX.s 			page 90


 3142              	.LVL320:
 3143 0000 F0B5     		push	{r4, r5, r6, r7, lr}
 3144              	.LCFI55:
 3145              		.cfi_def_cfa_offset 20
 3146              		.cfi_offset 4, -20
 3147              		.cfi_offset 5, -16
 3148              		.cfi_offset 6, -12
 3149              		.cfi_offset 7, -8
 3150              		.cfi_offset 14, -4
 3151 0002 0646     		mov	r6, r0
 3152 0004 9DF81840 		ldrb	r4, [sp, #24]	@ zero_extendqisi2
 3153              	.LVL321:
1588:Drivers/STM32F4xx_HAL_Driver/Src/stm32f4xx_ll_usb.c ****   HAL_StatusTypeDef ret = HAL_OK;
1589:Drivers/STM32F4xx_HAL_Driver/Src/stm32f4xx_ll_usb.c ****   uint32_t USBx_BASE = (uint32_t)USBx;
1590:Drivers/STM32F4xx_HAL_Driver/Src/stm32f4xx_ll_usb.c ****   uint32_t HCcharEpDir, HCcharLowSpeed;
1591:Drivers/STM32F4xx_HAL_Driver/Src/stm32f4xx_ll_usb.c **** 
1592:Drivers/STM32F4xx_HAL_Driver/Src/stm32f4xx_ll_usb.c ****   /* Clear old interrupt conditions for this host channel. */
1593:Drivers/STM32F4xx_HAL_Driver/Src/stm32f4xx_ll_usb.c ****   USBx_HC((uint32_t)ch_num)->HCINT = 0xFFFFFFFFU;
 3154              		.loc 1 1593 0
 3155 0008 00EB4115 		add	r5, r0, r1, lsl #5
 3156 000c 05F5A060 		add	r0, r5, #1280
 3157              	.LVL322:
 3158 0010 4FF0FF37 		mov	r7, #-1
 3159 0014 8760     		str	r7, [r0, #8]
1594:Drivers/STM32F4xx_HAL_Driver/Src/stm32f4xx_ll_usb.c **** 
1595:Drivers/STM32F4xx_HAL_Driver/Src/stm32f4xx_ll_usb.c ****   /* Enable channel interrupts required for this transfer. */
1596:Drivers/STM32F4xx_HAL_Driver/Src/stm32f4xx_ll_usb.c ****   switch (ep_type)
 3160              		.loc 1 1596 0
 3161 0016 032C     		cmp	r4, #3
 3162 0018 65D8     		bhi	.L252
 3163 001a DFE804F0 		tbb	[pc, r4]
 3164              	.L245:
 3165 001e 02       		.byte	(.L244-.L245)/2
 3166 001f 56       		.byte	(.L246-.L245)/2
 3167 0020 02       		.byte	(.L244-.L245)/2
 3168 0021 18       		.byte	(.L247-.L245)/2
 3169              		.p2align 1
 3170              	.L244:
1597:Drivers/STM32F4xx_HAL_Driver/Src/stm32f4xx_ll_usb.c ****   {
1598:Drivers/STM32F4xx_HAL_Driver/Src/stm32f4xx_ll_usb.c ****     case EP_TYPE_CTRL:
1599:Drivers/STM32F4xx_HAL_Driver/Src/stm32f4xx_ll_usb.c ****     case EP_TYPE_BULK:
1600:Drivers/STM32F4xx_HAL_Driver/Src/stm32f4xx_ll_usb.c ****       USBx_HC((uint32_t)ch_num)->HCINTMSK = USB_OTG_HCINTMSK_XFRCM  |
 3171              		.loc 1 1600 0
 3172 0022 40F29D47 		movw	r7, #1181
 3173 0026 C760     		str	r7, [r0, #12]
1601:Drivers/STM32F4xx_HAL_Driver/Src/stm32f4xx_ll_usb.c ****                                             USB_OTG_HCINTMSK_STALLM |
1602:Drivers/STM32F4xx_HAL_Driver/Src/stm32f4xx_ll_usb.c ****                                             USB_OTG_HCINTMSK_TXERRM |
1603:Drivers/STM32F4xx_HAL_Driver/Src/stm32f4xx_ll_usb.c ****                                             USB_OTG_HCINTMSK_DTERRM |
1604:Drivers/STM32F4xx_HAL_Driver/Src/stm32f4xx_ll_usb.c ****                                             USB_OTG_HCINTMSK_AHBERR |
1605:Drivers/STM32F4xx_HAL_Driver/Src/stm32f4xx_ll_usb.c ****                                             USB_OTG_HCINTMSK_NAKM;
1606:Drivers/STM32F4xx_HAL_Driver/Src/stm32f4xx_ll_usb.c **** 
1607:Drivers/STM32F4xx_HAL_Driver/Src/stm32f4xx_ll_usb.c ****       if ((epnum & 0x80U) == 0x80U)
 3174              		.loc 1 1607 0
 3175 0028 12F0800F 		tst	r2, #128
 3176 002c 09D1     		bne	.L259
1608:Drivers/STM32F4xx_HAL_Driver/Src/stm32f4xx_ll_usb.c ****       {
1609:Drivers/STM32F4xx_HAL_Driver/Src/stm32f4xx_ll_usb.c ****         USBx_HC((uint32_t)ch_num)->HCINTMSK |= USB_OTG_HCINTMSK_BBERRM;
ARM GAS  /tmp/ccag9PFX.s 			page 91


1610:Drivers/STM32F4xx_HAL_Driver/Src/stm32f4xx_ll_usb.c ****       }
1611:Drivers/STM32F4xx_HAL_Driver/Src/stm32f4xx_ll_usb.c ****       else
1612:Drivers/STM32F4xx_HAL_Driver/Src/stm32f4xx_ll_usb.c ****       {
1613:Drivers/STM32F4xx_HAL_Driver/Src/stm32f4xx_ll_usb.c ****         if ((USBx->CID & (0x1U << 8)) != 0U)
 3177              		.loc 1 1613 0
 3178 002e F76B     		ldr	r7, [r6, #60]
 3179 0030 17F4807F 		tst	r7, #256
 3180 0034 59D0     		beq	.L253
1614:Drivers/STM32F4xx_HAL_Driver/Src/stm32f4xx_ll_usb.c ****         {
1615:Drivers/STM32F4xx_HAL_Driver/Src/stm32f4xx_ll_usb.c ****           USBx_HC((uint32_t)ch_num)->HCINTMSK |= (USB_OTG_HCINTMSK_NYET | USB_OTG_HCINTMSK_ACKM);
 3181              		.loc 1 1615 0
 3182 0036 C768     		ldr	r7, [r0, #12]
 3183 0038 47F06007 		orr	r7, r7, #96
 3184 003c C760     		str	r7, [r0, #12]
1588:Drivers/STM32F4xx_HAL_Driver/Src/stm32f4xx_ll_usb.c ****   uint32_t USBx_BASE = (uint32_t)USBx;
 3185              		.loc 1 1588 0
 3186 003e 0020     		movs	r0, #0
 3187 0040 0CE0     		b	.L243
 3188              	.L259:
1609:Drivers/STM32F4xx_HAL_Driver/Src/stm32f4xx_ll_usb.c ****       }
 3189              		.loc 1 1609 0
 3190 0042 C768     		ldr	r7, [r0, #12]
 3191 0044 47F48077 		orr	r7, r7, #256
 3192 0048 C760     		str	r7, [r0, #12]
1588:Drivers/STM32F4xx_HAL_Driver/Src/stm32f4xx_ll_usb.c ****   uint32_t USBx_BASE = (uint32_t)USBx;
 3193              		.loc 1 1588 0
 3194 004a 0020     		movs	r0, #0
 3195 004c 06E0     		b	.L243
 3196              	.L247:
1616:Drivers/STM32F4xx_HAL_Driver/Src/stm32f4xx_ll_usb.c ****         }
1617:Drivers/STM32F4xx_HAL_Driver/Src/stm32f4xx_ll_usb.c ****       }
1618:Drivers/STM32F4xx_HAL_Driver/Src/stm32f4xx_ll_usb.c ****       break;
1619:Drivers/STM32F4xx_HAL_Driver/Src/stm32f4xx_ll_usb.c **** 
1620:Drivers/STM32F4xx_HAL_Driver/Src/stm32f4xx_ll_usb.c ****     case EP_TYPE_INTR:
1621:Drivers/STM32F4xx_HAL_Driver/Src/stm32f4xx_ll_usb.c ****       USBx_HC((uint32_t)ch_num)->HCINTMSK = USB_OTG_HCINTMSK_XFRCM  |
 3197              		.loc 1 1621 0
 3198 004e 40F29D67 		movw	r7, #1693
 3199 0052 C760     		str	r7, [r0, #12]
1622:Drivers/STM32F4xx_HAL_Driver/Src/stm32f4xx_ll_usb.c ****                                             USB_OTG_HCINTMSK_STALLM |
1623:Drivers/STM32F4xx_HAL_Driver/Src/stm32f4xx_ll_usb.c ****                                             USB_OTG_HCINTMSK_TXERRM |
1624:Drivers/STM32F4xx_HAL_Driver/Src/stm32f4xx_ll_usb.c ****                                             USB_OTG_HCINTMSK_DTERRM |
1625:Drivers/STM32F4xx_HAL_Driver/Src/stm32f4xx_ll_usb.c ****                                             USB_OTG_HCINTMSK_NAKM   |
1626:Drivers/STM32F4xx_HAL_Driver/Src/stm32f4xx_ll_usb.c ****                                             USB_OTG_HCINTMSK_AHBERR |
1627:Drivers/STM32F4xx_HAL_Driver/Src/stm32f4xx_ll_usb.c ****                                             USB_OTG_HCINTMSK_FRMORM;
1628:Drivers/STM32F4xx_HAL_Driver/Src/stm32f4xx_ll_usb.c **** 
1629:Drivers/STM32F4xx_HAL_Driver/Src/stm32f4xx_ll_usb.c ****       if ((epnum & 0x80U) == 0x80U)
 3200              		.loc 1 1629 0
 3201 0054 12F0800F 		tst	r2, #128
 3202 0058 31D1     		bne	.L260
1588:Drivers/STM32F4xx_HAL_Driver/Src/stm32f4xx_ll_usb.c ****   uint32_t USBx_BASE = (uint32_t)USBx;
 3203              		.loc 1 1588 0
 3204 005a 0020     		movs	r0, #0
 3205              	.L243:
 3206              	.LVL323:
1630:Drivers/STM32F4xx_HAL_Driver/Src/stm32f4xx_ll_usb.c ****       {
1631:Drivers/STM32F4xx_HAL_Driver/Src/stm32f4xx_ll_usb.c ****         USBx_HC((uint32_t)ch_num)->HCINTMSK |= USB_OTG_HCINTMSK_BBERRM;
1632:Drivers/STM32F4xx_HAL_Driver/Src/stm32f4xx_ll_usb.c ****       }
ARM GAS  /tmp/ccag9PFX.s 			page 92


1633:Drivers/STM32F4xx_HAL_Driver/Src/stm32f4xx_ll_usb.c **** 
1634:Drivers/STM32F4xx_HAL_Driver/Src/stm32f4xx_ll_usb.c ****       break;
1635:Drivers/STM32F4xx_HAL_Driver/Src/stm32f4xx_ll_usb.c **** 
1636:Drivers/STM32F4xx_HAL_Driver/Src/stm32f4xx_ll_usb.c ****     case EP_TYPE_ISOC:
1637:Drivers/STM32F4xx_HAL_Driver/Src/stm32f4xx_ll_usb.c ****       USBx_HC((uint32_t)ch_num)->HCINTMSK = USB_OTG_HCINTMSK_XFRCM  |
1638:Drivers/STM32F4xx_HAL_Driver/Src/stm32f4xx_ll_usb.c ****                                             USB_OTG_HCINTMSK_ACKM   |
1639:Drivers/STM32F4xx_HAL_Driver/Src/stm32f4xx_ll_usb.c ****                                             USB_OTG_HCINTMSK_AHBERR |
1640:Drivers/STM32F4xx_HAL_Driver/Src/stm32f4xx_ll_usb.c ****                                             USB_OTG_HCINTMSK_FRMORM;
1641:Drivers/STM32F4xx_HAL_Driver/Src/stm32f4xx_ll_usb.c **** 
1642:Drivers/STM32F4xx_HAL_Driver/Src/stm32f4xx_ll_usb.c ****       if ((epnum & 0x80U) == 0x80U)
1643:Drivers/STM32F4xx_HAL_Driver/Src/stm32f4xx_ll_usb.c ****       {
1644:Drivers/STM32F4xx_HAL_Driver/Src/stm32f4xx_ll_usb.c ****         USBx_HC((uint32_t)ch_num)->HCINTMSK |= (USB_OTG_HCINTMSK_TXERRM | USB_OTG_HCINTMSK_BBERRM);
1645:Drivers/STM32F4xx_HAL_Driver/Src/stm32f4xx_ll_usb.c ****       }
1646:Drivers/STM32F4xx_HAL_Driver/Src/stm32f4xx_ll_usb.c ****       break;
1647:Drivers/STM32F4xx_HAL_Driver/Src/stm32f4xx_ll_usb.c **** 
1648:Drivers/STM32F4xx_HAL_Driver/Src/stm32f4xx_ll_usb.c ****     default:
1649:Drivers/STM32F4xx_HAL_Driver/Src/stm32f4xx_ll_usb.c ****       ret = HAL_ERROR;
1650:Drivers/STM32F4xx_HAL_Driver/Src/stm32f4xx_ll_usb.c ****       break;
1651:Drivers/STM32F4xx_HAL_Driver/Src/stm32f4xx_ll_usb.c ****   }
1652:Drivers/STM32F4xx_HAL_Driver/Src/stm32f4xx_ll_usb.c **** 
1653:Drivers/STM32F4xx_HAL_Driver/Src/stm32f4xx_ll_usb.c ****   /* Enable the top level host channel interrupt. */
1654:Drivers/STM32F4xx_HAL_Driver/Src/stm32f4xx_ll_usb.c ****   USBx_HOST->HAINTMSK |= 1UL << (ch_num & 0xFU);
 3207              		.loc 1 1654 0
 3208 005c 06F5806E 		add	lr, r6, #1024
 3209 0060 D6F81874 		ldr	r7, [r6, #1048]
 3210 0064 01F00F01 		and	r1, r1, #15
 3211              	.LVL324:
 3212 0068 4FF0010C 		mov	ip, #1
 3213 006c 0CFA01F1 		lsl	r1, ip, r1
 3214 0070 3943     		orrs	r1, r1, r7
 3215 0072 C6F81814 		str	r1, [r6, #1048]
1655:Drivers/STM32F4xx_HAL_Driver/Src/stm32f4xx_ll_usb.c **** 
1656:Drivers/STM32F4xx_HAL_Driver/Src/stm32f4xx_ll_usb.c ****   /* Make sure host channel interrupts are enabled. */
1657:Drivers/STM32F4xx_HAL_Driver/Src/stm32f4xx_ll_usb.c ****   USBx->GINTMSK |= USB_OTG_GINTMSK_HCIM;
 3216              		.loc 1 1657 0
 3217 0076 B169     		ldr	r1, [r6, #24]
 3218 0078 41F00071 		orr	r1, r1, #33554432
 3219 007c B161     		str	r1, [r6, #24]
1658:Drivers/STM32F4xx_HAL_Driver/Src/stm32f4xx_ll_usb.c **** 
1659:Drivers/STM32F4xx_HAL_Driver/Src/stm32f4xx_ll_usb.c ****   /* Program the HCCHAR register */
1660:Drivers/STM32F4xx_HAL_Driver/Src/stm32f4xx_ll_usb.c ****   if ((epnum & 0x80U) == 0x80U)
 3220              		.loc 1 1660 0
 3221 007e 12F0800F 		tst	r2, #128
 3222 0082 34D1     		bne	.L261
1661:Drivers/STM32F4xx_HAL_Driver/Src/stm32f4xx_ll_usb.c ****   {
1662:Drivers/STM32F4xx_HAL_Driver/Src/stm32f4xx_ll_usb.c ****     HCcharEpDir = (0x1U << 15) & USB_OTG_HCCHAR_EPDIR;
1663:Drivers/STM32F4xx_HAL_Driver/Src/stm32f4xx_ll_usb.c ****   }
1664:Drivers/STM32F4xx_HAL_Driver/Src/stm32f4xx_ll_usb.c ****   else
1665:Drivers/STM32F4xx_HAL_Driver/Src/stm32f4xx_ll_usb.c ****   {
1666:Drivers/STM32F4xx_HAL_Driver/Src/stm32f4xx_ll_usb.c ****     HCcharEpDir = 0U;
 3223              		.loc 1 1666 0
 3224 0084 0026     		movs	r6, #0
 3225              	.LVL325:
 3226              	.L249:
1667:Drivers/STM32F4xx_HAL_Driver/Src/stm32f4xx_ll_usb.c ****   }
1668:Drivers/STM32F4xx_HAL_Driver/Src/stm32f4xx_ll_usb.c **** 
1669:Drivers/STM32F4xx_HAL_Driver/Src/stm32f4xx_ll_usb.c ****   if (speed == HPRT0_PRTSPD_LOW_SPEED)
ARM GAS  /tmp/ccag9PFX.s 			page 93


 3227              		.loc 1 1669 0
 3228 0086 9DF81410 		ldrb	r1, [sp, #20]	@ zero_extendqisi2
 3229 008a 0229     		cmp	r1, #2
 3230 008c 32D0     		beq	.L262
1670:Drivers/STM32F4xx_HAL_Driver/Src/stm32f4xx_ll_usb.c ****   {
1671:Drivers/STM32F4xx_HAL_Driver/Src/stm32f4xx_ll_usb.c ****     HCcharLowSpeed = (0x1U << 17) & USB_OTG_HCCHAR_LSDEV;
1672:Drivers/STM32F4xx_HAL_Driver/Src/stm32f4xx_ll_usb.c ****   }
1673:Drivers/STM32F4xx_HAL_Driver/Src/stm32f4xx_ll_usb.c ****   else
1674:Drivers/STM32F4xx_HAL_Driver/Src/stm32f4xx_ll_usb.c ****   {
1675:Drivers/STM32F4xx_HAL_Driver/Src/stm32f4xx_ll_usb.c ****     HCcharLowSpeed = 0U;
 3231              		.loc 1 1675 0
 3232 008e 0021     		movs	r1, #0
 3233              	.L250:
 3234              	.LVL326:
1676:Drivers/STM32F4xx_HAL_Driver/Src/stm32f4xx_ll_usb.c ****   }
1677:Drivers/STM32F4xx_HAL_Driver/Src/stm32f4xx_ll_usb.c **** 
1678:Drivers/STM32F4xx_HAL_Driver/Src/stm32f4xx_ll_usb.c ****   USBx_HC((uint32_t)ch_num)->HCCHAR = (((uint32_t)dev_address << 22) & USB_OTG_HCCHAR_DAD) |
 3235              		.loc 1 1678 0
 3236 0090 9B05     		lsls	r3, r3, #22
 3237              	.LVL327:
 3238 0092 03F0FE53 		and	r3, r3, #532676608
1679:Drivers/STM32F4xx_HAL_Driver/Src/stm32f4xx_ll_usb.c ****                                       ((((uint32_t)epnum & 0x7FU) << 11) & USB_OTG_HCCHAR_EPNUM) |
 3239              		.loc 1 1679 0
 3240 0096 D202     		lsls	r2, r2, #11
 3241              	.LVL328:
 3242 0098 02F4F042 		and	r2, r2, #30720
1678:Drivers/STM32F4xx_HAL_Driver/Src/stm32f4xx_ll_usb.c ****                                       ((((uint32_t)epnum & 0x7FU) << 11) & USB_OTG_HCCHAR_EPNUM) |
 3243              		.loc 1 1678 0
 3244 009c 1343     		orrs	r3, r3, r2
1680:Drivers/STM32F4xx_HAL_Driver/Src/stm32f4xx_ll_usb.c ****                                       (((uint32_t)ep_type << 18) & USB_OTG_HCCHAR_EPTYP) |
 3245              		.loc 1 1680 0
 3246 009e A204     		lsls	r2, r4, #18
 3247 00a0 02F44022 		and	r2, r2, #786432
1679:Drivers/STM32F4xx_HAL_Driver/Src/stm32f4xx_ll_usb.c ****                                       ((((uint32_t)epnum & 0x7FU) << 11) & USB_OTG_HCCHAR_EPNUM) |
 3248              		.loc 1 1679 0
 3249 00a4 1343     		orrs	r3, r3, r2
1681:Drivers/STM32F4xx_HAL_Driver/Src/stm32f4xx_ll_usb.c ****                                       ((uint32_t)mps & USB_OTG_HCCHAR_MPSIZ) | HCcharEpDir | HCchar
 3250              		.loc 1 1681 0
 3251 00a6 BDF81C20 		ldrh	r2, [sp, #28]
 3252 00aa C2F30A02 		ubfx	r2, r2, #0, #11
1680:Drivers/STM32F4xx_HAL_Driver/Src/stm32f4xx_ll_usb.c ****                                       (((uint32_t)ep_type << 18) & USB_OTG_HCCHAR_EPTYP) |
 3253              		.loc 1 1680 0
 3254 00ae 1343     		orrs	r3, r3, r2
 3255              		.loc 1 1681 0
 3256 00b0 3343     		orrs	r3, r3, r6
 3257 00b2 0B43     		orrs	r3, r3, r1
1678:Drivers/STM32F4xx_HAL_Driver/Src/stm32f4xx_ll_usb.c ****                                       ((((uint32_t)epnum & 0x7FU) << 11) & USB_OTG_HCCHAR_EPNUM) |
 3258              		.loc 1 1678 0
 3259 00b4 C5F80035 		str	r3, [r5, #1280]
1682:Drivers/STM32F4xx_HAL_Driver/Src/stm32f4xx_ll_usb.c **** 
1683:Drivers/STM32F4xx_HAL_Driver/Src/stm32f4xx_ll_usb.c ****   if (ep_type == EP_TYPE_INTR)
 3260              		.loc 1 1683 0
 3261 00b8 032C     		cmp	r4, #3
 3262 00ba 1ED0     		beq	.L263
 3263              	.L251:
1684:Drivers/STM32F4xx_HAL_Driver/Src/stm32f4xx_ll_usb.c ****   {
1685:Drivers/STM32F4xx_HAL_Driver/Src/stm32f4xx_ll_usb.c ****     USBx_HC((uint32_t)ch_num)->HCCHAR |= USB_OTG_HCCHAR_ODDFRM ;
ARM GAS  /tmp/ccag9PFX.s 			page 94


1686:Drivers/STM32F4xx_HAL_Driver/Src/stm32f4xx_ll_usb.c ****   }
1687:Drivers/STM32F4xx_HAL_Driver/Src/stm32f4xx_ll_usb.c **** 
1688:Drivers/STM32F4xx_HAL_Driver/Src/stm32f4xx_ll_usb.c ****   return ret;
1689:Drivers/STM32F4xx_HAL_Driver/Src/stm32f4xx_ll_usb.c **** }
 3264              		.loc 1 1689 0
 3265 00bc F0BD     		pop	{r4, r5, r6, r7, pc}
 3266              	.LVL329:
 3267              	.L260:
1631:Drivers/STM32F4xx_HAL_Driver/Src/stm32f4xx_ll_usb.c ****       }
 3268              		.loc 1 1631 0
 3269 00be C768     		ldr	r7, [r0, #12]
 3270 00c0 47F48077 		orr	r7, r7, #256
 3271 00c4 C760     		str	r7, [r0, #12]
1588:Drivers/STM32F4xx_HAL_Driver/Src/stm32f4xx_ll_usb.c ****   uint32_t USBx_BASE = (uint32_t)USBx;
 3272              		.loc 1 1588 0
 3273 00c6 0020     		movs	r0, #0
 3274 00c8 C8E7     		b	.L243
 3275              	.L246:
1637:Drivers/STM32F4xx_HAL_Driver/Src/stm32f4xx_ll_usb.c ****                                             USB_OTG_HCINTMSK_ACKM   |
 3276              		.loc 1 1637 0
 3277 00ca 40F22527 		movw	r7, #549
 3278 00ce C760     		str	r7, [r0, #12]
1642:Drivers/STM32F4xx_HAL_Driver/Src/stm32f4xx_ll_usb.c ****       {
 3279              		.loc 1 1642 0
 3280 00d0 12F0800F 		tst	r2, #128
 3281 00d4 01D1     		bne	.L264
1588:Drivers/STM32F4xx_HAL_Driver/Src/stm32f4xx_ll_usb.c ****   uint32_t USBx_BASE = (uint32_t)USBx;
 3282              		.loc 1 1588 0
 3283 00d6 0020     		movs	r0, #0
 3284 00d8 C0E7     		b	.L243
 3285              	.L264:
1644:Drivers/STM32F4xx_HAL_Driver/Src/stm32f4xx_ll_usb.c ****       }
 3286              		.loc 1 1644 0
 3287 00da C768     		ldr	r7, [r0, #12]
 3288 00dc 47F4C077 		orr	r7, r7, #384
 3289 00e0 C760     		str	r7, [r0, #12]
1588:Drivers/STM32F4xx_HAL_Driver/Src/stm32f4xx_ll_usb.c ****   uint32_t USBx_BASE = (uint32_t)USBx;
 3290              		.loc 1 1588 0
 3291 00e2 0020     		movs	r0, #0
 3292 00e4 BAE7     		b	.L243
 3293              	.L252:
1649:Drivers/STM32F4xx_HAL_Driver/Src/stm32f4xx_ll_usb.c ****       break;
 3294              		.loc 1 1649 0
 3295 00e6 0120     		movs	r0, #1
 3296 00e8 B8E7     		b	.L243
 3297              	.L253:
1588:Drivers/STM32F4xx_HAL_Driver/Src/stm32f4xx_ll_usb.c ****   uint32_t USBx_BASE = (uint32_t)USBx;
 3298              		.loc 1 1588 0
 3299 00ea 0020     		movs	r0, #0
 3300 00ec B6E7     		b	.L243
 3301              	.LVL330:
 3302              	.L261:
1662:Drivers/STM32F4xx_HAL_Driver/Src/stm32f4xx_ll_usb.c ****   }
 3303              		.loc 1 1662 0
 3304 00ee 4FF40046 		mov	r6, #32768
 3305              	.LVL331:
 3306 00f2 C8E7     		b	.L249
ARM GAS  /tmp/ccag9PFX.s 			page 95


 3307              	.LVL332:
 3308              	.L262:
1671:Drivers/STM32F4xx_HAL_Driver/Src/stm32f4xx_ll_usb.c ****   }
 3309              		.loc 1 1671 0
 3310 00f4 4FF40031 		mov	r1, #131072
 3311 00f8 CAE7     		b	.L250
 3312              	.LVL333:
 3313              	.L263:
1685:Drivers/STM32F4xx_HAL_Driver/Src/stm32f4xx_ll_usb.c ****   }
 3314              		.loc 1 1685 0
 3315 00fa D5F80035 		ldr	r3, [r5, #1280]
 3316 00fe 43F00053 		orr	r3, r3, #536870912
 3317 0102 C5F80035 		str	r3, [r5, #1280]
 3318 0106 D9E7     		b	.L251
 3319              		.cfi_endproc
 3320              	.LFE170:
 3322              		.section	.text.USB_HC_ReadInterrupt,"ax",%progbits
 3323              		.align	1
 3324              		.global	USB_HC_ReadInterrupt
 3325              		.syntax unified
 3326              		.thumb
 3327              		.thumb_func
 3328              		.fpu fpv4-sp-d16
 3330              	USB_HC_ReadInterrupt:
 3331              	.LFB172:
1690:Drivers/STM32F4xx_HAL_Driver/Src/stm32f4xx_ll_usb.c **** 
1691:Drivers/STM32F4xx_HAL_Driver/Src/stm32f4xx_ll_usb.c **** /**
1692:Drivers/STM32F4xx_HAL_Driver/Src/stm32f4xx_ll_usb.c ****   * @brief  Start a transfer over a host channel
1693:Drivers/STM32F4xx_HAL_Driver/Src/stm32f4xx_ll_usb.c ****   * @param  USBx  Selected device
1694:Drivers/STM32F4xx_HAL_Driver/Src/stm32f4xx_ll_usb.c ****   * @param  hc  pointer to host channel structure
1695:Drivers/STM32F4xx_HAL_Driver/Src/stm32f4xx_ll_usb.c ****   * @param  dma USB dma enabled or disabled
1696:Drivers/STM32F4xx_HAL_Driver/Src/stm32f4xx_ll_usb.c ****   *          This parameter can be one of these values:
1697:Drivers/STM32F4xx_HAL_Driver/Src/stm32f4xx_ll_usb.c ****   *           0 : DMA feature not used
1698:Drivers/STM32F4xx_HAL_Driver/Src/stm32f4xx_ll_usb.c ****   *           1 : DMA feature used
1699:Drivers/STM32F4xx_HAL_Driver/Src/stm32f4xx_ll_usb.c ****   * @retval HAL state
1700:Drivers/STM32F4xx_HAL_Driver/Src/stm32f4xx_ll_usb.c ****   */
1701:Drivers/STM32F4xx_HAL_Driver/Src/stm32f4xx_ll_usb.c **** HAL_StatusTypeDef USB_HC_StartXfer(USB_OTG_GlobalTypeDef *USBx, USB_OTG_HCTypeDef *hc, uint8_t dma)
1702:Drivers/STM32F4xx_HAL_Driver/Src/stm32f4xx_ll_usb.c **** {
1703:Drivers/STM32F4xx_HAL_Driver/Src/stm32f4xx_ll_usb.c ****   uint32_t USBx_BASE = (uint32_t)USBx;
1704:Drivers/STM32F4xx_HAL_Driver/Src/stm32f4xx_ll_usb.c ****   uint32_t ch_num = (uint32_t)hc->ch_num;
1705:Drivers/STM32F4xx_HAL_Driver/Src/stm32f4xx_ll_usb.c ****   static __IO uint32_t tmpreg = 0U;
1706:Drivers/STM32F4xx_HAL_Driver/Src/stm32f4xx_ll_usb.c ****   uint8_t  is_oddframe;
1707:Drivers/STM32F4xx_HAL_Driver/Src/stm32f4xx_ll_usb.c ****   uint16_t len_words;
1708:Drivers/STM32F4xx_HAL_Driver/Src/stm32f4xx_ll_usb.c ****   uint16_t num_packets;
1709:Drivers/STM32F4xx_HAL_Driver/Src/stm32f4xx_ll_usb.c ****   uint16_t max_hc_pkt_count = 256U;
1710:Drivers/STM32F4xx_HAL_Driver/Src/stm32f4xx_ll_usb.c **** 
1711:Drivers/STM32F4xx_HAL_Driver/Src/stm32f4xx_ll_usb.c ****   if (((USBx->CID & (0x1U << 8)) != 0U) && (hc->speed == USBH_HS_SPEED))
1712:Drivers/STM32F4xx_HAL_Driver/Src/stm32f4xx_ll_usb.c ****   {
1713:Drivers/STM32F4xx_HAL_Driver/Src/stm32f4xx_ll_usb.c ****     if ((dma == 0U) && (hc->do_ping == 1U))
1714:Drivers/STM32F4xx_HAL_Driver/Src/stm32f4xx_ll_usb.c ****     {
1715:Drivers/STM32F4xx_HAL_Driver/Src/stm32f4xx_ll_usb.c ****       (void)USB_DoPing(USBx, hc->ch_num);
1716:Drivers/STM32F4xx_HAL_Driver/Src/stm32f4xx_ll_usb.c ****       return HAL_OK;
1717:Drivers/STM32F4xx_HAL_Driver/Src/stm32f4xx_ll_usb.c ****     }
1718:Drivers/STM32F4xx_HAL_Driver/Src/stm32f4xx_ll_usb.c ****     else if (dma == 1U)
1719:Drivers/STM32F4xx_HAL_Driver/Src/stm32f4xx_ll_usb.c ****     {
1720:Drivers/STM32F4xx_HAL_Driver/Src/stm32f4xx_ll_usb.c ****       USBx_HC(ch_num)->HCINTMSK &= ~(USB_OTG_HCINTMSK_NYET | USB_OTG_HCINTMSK_ACKM);
1721:Drivers/STM32F4xx_HAL_Driver/Src/stm32f4xx_ll_usb.c ****       hc->do_ping = 0U;
ARM GAS  /tmp/ccag9PFX.s 			page 96


1722:Drivers/STM32F4xx_HAL_Driver/Src/stm32f4xx_ll_usb.c ****     }
1723:Drivers/STM32F4xx_HAL_Driver/Src/stm32f4xx_ll_usb.c ****     else
1724:Drivers/STM32F4xx_HAL_Driver/Src/stm32f4xx_ll_usb.c ****     {
1725:Drivers/STM32F4xx_HAL_Driver/Src/stm32f4xx_ll_usb.c ****       /* ... */
1726:Drivers/STM32F4xx_HAL_Driver/Src/stm32f4xx_ll_usb.c ****     }
1727:Drivers/STM32F4xx_HAL_Driver/Src/stm32f4xx_ll_usb.c ****   }
1728:Drivers/STM32F4xx_HAL_Driver/Src/stm32f4xx_ll_usb.c **** 
1729:Drivers/STM32F4xx_HAL_Driver/Src/stm32f4xx_ll_usb.c ****   /* Compute the expected number of packets associated to the transfer */
1730:Drivers/STM32F4xx_HAL_Driver/Src/stm32f4xx_ll_usb.c ****   if (hc->xfer_len > 0U)
1731:Drivers/STM32F4xx_HAL_Driver/Src/stm32f4xx_ll_usb.c ****   {
1732:Drivers/STM32F4xx_HAL_Driver/Src/stm32f4xx_ll_usb.c ****     num_packets = (uint16_t)((hc->xfer_len + hc->max_packet - 1U) / hc->max_packet);
1733:Drivers/STM32F4xx_HAL_Driver/Src/stm32f4xx_ll_usb.c **** 
1734:Drivers/STM32F4xx_HAL_Driver/Src/stm32f4xx_ll_usb.c ****     if (num_packets > max_hc_pkt_count)
1735:Drivers/STM32F4xx_HAL_Driver/Src/stm32f4xx_ll_usb.c ****     {
1736:Drivers/STM32F4xx_HAL_Driver/Src/stm32f4xx_ll_usb.c ****       num_packets = max_hc_pkt_count;
1737:Drivers/STM32F4xx_HAL_Driver/Src/stm32f4xx_ll_usb.c ****       hc->xfer_len = (uint32_t)num_packets * hc->max_packet;
1738:Drivers/STM32F4xx_HAL_Driver/Src/stm32f4xx_ll_usb.c ****     }
1739:Drivers/STM32F4xx_HAL_Driver/Src/stm32f4xx_ll_usb.c ****   }
1740:Drivers/STM32F4xx_HAL_Driver/Src/stm32f4xx_ll_usb.c ****   else
1741:Drivers/STM32F4xx_HAL_Driver/Src/stm32f4xx_ll_usb.c ****   {
1742:Drivers/STM32F4xx_HAL_Driver/Src/stm32f4xx_ll_usb.c ****     num_packets = 1U;
1743:Drivers/STM32F4xx_HAL_Driver/Src/stm32f4xx_ll_usb.c ****   }
1744:Drivers/STM32F4xx_HAL_Driver/Src/stm32f4xx_ll_usb.c ****   if (hc->ep_is_in != 0U)
1745:Drivers/STM32F4xx_HAL_Driver/Src/stm32f4xx_ll_usb.c ****   {
1746:Drivers/STM32F4xx_HAL_Driver/Src/stm32f4xx_ll_usb.c ****     hc->xfer_len = (uint32_t)num_packets * hc->max_packet;
1747:Drivers/STM32F4xx_HAL_Driver/Src/stm32f4xx_ll_usb.c ****   }
1748:Drivers/STM32F4xx_HAL_Driver/Src/stm32f4xx_ll_usb.c **** 
1749:Drivers/STM32F4xx_HAL_Driver/Src/stm32f4xx_ll_usb.c ****   /* Initialize the HCTSIZn register */
1750:Drivers/STM32F4xx_HAL_Driver/Src/stm32f4xx_ll_usb.c ****   USBx_HC(ch_num)->HCTSIZ = (hc->xfer_len & USB_OTG_HCTSIZ_XFRSIZ) |
1751:Drivers/STM32F4xx_HAL_Driver/Src/stm32f4xx_ll_usb.c ****                             (((uint32_t)num_packets << 19) & USB_OTG_HCTSIZ_PKTCNT) |
1752:Drivers/STM32F4xx_HAL_Driver/Src/stm32f4xx_ll_usb.c ****                             (((uint32_t)hc->data_pid << 29) & USB_OTG_HCTSIZ_DPID);
1753:Drivers/STM32F4xx_HAL_Driver/Src/stm32f4xx_ll_usb.c **** 
1754:Drivers/STM32F4xx_HAL_Driver/Src/stm32f4xx_ll_usb.c ****   if (dma != 0U)
1755:Drivers/STM32F4xx_HAL_Driver/Src/stm32f4xx_ll_usb.c ****   {
1756:Drivers/STM32F4xx_HAL_Driver/Src/stm32f4xx_ll_usb.c ****     /* xfer_buff MUST be 32-bits aligned */
1757:Drivers/STM32F4xx_HAL_Driver/Src/stm32f4xx_ll_usb.c ****     USBx_HC(ch_num)->HCDMA = (uint32_t)hc->xfer_buff;
1758:Drivers/STM32F4xx_HAL_Driver/Src/stm32f4xx_ll_usb.c ****   }
1759:Drivers/STM32F4xx_HAL_Driver/Src/stm32f4xx_ll_usb.c **** 
1760:Drivers/STM32F4xx_HAL_Driver/Src/stm32f4xx_ll_usb.c ****   is_oddframe = (((uint32_t)USBx_HOST->HFNUM & 0x01U) != 0U) ? 0U : 1U;
1761:Drivers/STM32F4xx_HAL_Driver/Src/stm32f4xx_ll_usb.c ****   USBx_HC(ch_num)->HCCHAR &= ~USB_OTG_HCCHAR_ODDFRM;
1762:Drivers/STM32F4xx_HAL_Driver/Src/stm32f4xx_ll_usb.c ****   USBx_HC(ch_num)->HCCHAR |= (uint32_t)is_oddframe << 29;
1763:Drivers/STM32F4xx_HAL_Driver/Src/stm32f4xx_ll_usb.c **** 
1764:Drivers/STM32F4xx_HAL_Driver/Src/stm32f4xx_ll_usb.c ****   /* Set host channel enable */
1765:Drivers/STM32F4xx_HAL_Driver/Src/stm32f4xx_ll_usb.c ****   tmpreg = USBx_HC(ch_num)->HCCHAR;
1766:Drivers/STM32F4xx_HAL_Driver/Src/stm32f4xx_ll_usb.c ****   tmpreg &= ~USB_OTG_HCCHAR_CHDIS;
1767:Drivers/STM32F4xx_HAL_Driver/Src/stm32f4xx_ll_usb.c **** 
1768:Drivers/STM32F4xx_HAL_Driver/Src/stm32f4xx_ll_usb.c ****   /* make sure to set the correct ep direction */
1769:Drivers/STM32F4xx_HAL_Driver/Src/stm32f4xx_ll_usb.c ****   if (hc->ep_is_in != 0U)
1770:Drivers/STM32F4xx_HAL_Driver/Src/stm32f4xx_ll_usb.c ****   {
1771:Drivers/STM32F4xx_HAL_Driver/Src/stm32f4xx_ll_usb.c ****     tmpreg |= USB_OTG_HCCHAR_EPDIR;
1772:Drivers/STM32F4xx_HAL_Driver/Src/stm32f4xx_ll_usb.c ****   }
1773:Drivers/STM32F4xx_HAL_Driver/Src/stm32f4xx_ll_usb.c ****   else
1774:Drivers/STM32F4xx_HAL_Driver/Src/stm32f4xx_ll_usb.c ****   {
1775:Drivers/STM32F4xx_HAL_Driver/Src/stm32f4xx_ll_usb.c ****     tmpreg &= ~USB_OTG_HCCHAR_EPDIR;
1776:Drivers/STM32F4xx_HAL_Driver/Src/stm32f4xx_ll_usb.c ****   }
1777:Drivers/STM32F4xx_HAL_Driver/Src/stm32f4xx_ll_usb.c ****   tmpreg |= USB_OTG_HCCHAR_CHENA;
1778:Drivers/STM32F4xx_HAL_Driver/Src/stm32f4xx_ll_usb.c ****   USBx_HC(ch_num)->HCCHAR = tmpreg;
ARM GAS  /tmp/ccag9PFX.s 			page 97


1779:Drivers/STM32F4xx_HAL_Driver/Src/stm32f4xx_ll_usb.c **** 
1780:Drivers/STM32F4xx_HAL_Driver/Src/stm32f4xx_ll_usb.c ****   if (dma == 0U) /* Slave mode */
1781:Drivers/STM32F4xx_HAL_Driver/Src/stm32f4xx_ll_usb.c ****   {
1782:Drivers/STM32F4xx_HAL_Driver/Src/stm32f4xx_ll_usb.c ****     if ((hc->ep_is_in == 0U) && (hc->xfer_len > 0U))
1783:Drivers/STM32F4xx_HAL_Driver/Src/stm32f4xx_ll_usb.c ****     {
1784:Drivers/STM32F4xx_HAL_Driver/Src/stm32f4xx_ll_usb.c ****       switch (hc->ep_type)
1785:Drivers/STM32F4xx_HAL_Driver/Src/stm32f4xx_ll_usb.c ****       {
1786:Drivers/STM32F4xx_HAL_Driver/Src/stm32f4xx_ll_usb.c ****         /* Non periodic transfer */
1787:Drivers/STM32F4xx_HAL_Driver/Src/stm32f4xx_ll_usb.c ****         case EP_TYPE_CTRL:
1788:Drivers/STM32F4xx_HAL_Driver/Src/stm32f4xx_ll_usb.c ****         case EP_TYPE_BULK:
1789:Drivers/STM32F4xx_HAL_Driver/Src/stm32f4xx_ll_usb.c **** 
1790:Drivers/STM32F4xx_HAL_Driver/Src/stm32f4xx_ll_usb.c ****           len_words = (uint16_t)((hc->xfer_len + 3U) / 4U);
1791:Drivers/STM32F4xx_HAL_Driver/Src/stm32f4xx_ll_usb.c **** 
1792:Drivers/STM32F4xx_HAL_Driver/Src/stm32f4xx_ll_usb.c ****           /* check if there is enough space in FIFO space */
1793:Drivers/STM32F4xx_HAL_Driver/Src/stm32f4xx_ll_usb.c ****           if (len_words > (USBx->HNPTXSTS & 0xFFFFU))
1794:Drivers/STM32F4xx_HAL_Driver/Src/stm32f4xx_ll_usb.c ****           {
1795:Drivers/STM32F4xx_HAL_Driver/Src/stm32f4xx_ll_usb.c ****             /* need to process data in nptxfempty interrupt */
1796:Drivers/STM32F4xx_HAL_Driver/Src/stm32f4xx_ll_usb.c ****             USBx->GINTMSK |= USB_OTG_GINTMSK_NPTXFEM;
1797:Drivers/STM32F4xx_HAL_Driver/Src/stm32f4xx_ll_usb.c ****           }
1798:Drivers/STM32F4xx_HAL_Driver/Src/stm32f4xx_ll_usb.c ****           break;
1799:Drivers/STM32F4xx_HAL_Driver/Src/stm32f4xx_ll_usb.c **** 
1800:Drivers/STM32F4xx_HAL_Driver/Src/stm32f4xx_ll_usb.c ****         /* Periodic transfer */
1801:Drivers/STM32F4xx_HAL_Driver/Src/stm32f4xx_ll_usb.c ****         case EP_TYPE_INTR:
1802:Drivers/STM32F4xx_HAL_Driver/Src/stm32f4xx_ll_usb.c ****         case EP_TYPE_ISOC:
1803:Drivers/STM32F4xx_HAL_Driver/Src/stm32f4xx_ll_usb.c ****           len_words = (uint16_t)((hc->xfer_len + 3U) / 4U);
1804:Drivers/STM32F4xx_HAL_Driver/Src/stm32f4xx_ll_usb.c ****           /* check if there is enough space in FIFO space */
1805:Drivers/STM32F4xx_HAL_Driver/Src/stm32f4xx_ll_usb.c ****           if (len_words > (USBx_HOST->HPTXSTS & 0xFFFFU)) /* split the transfer */
1806:Drivers/STM32F4xx_HAL_Driver/Src/stm32f4xx_ll_usb.c ****           {
1807:Drivers/STM32F4xx_HAL_Driver/Src/stm32f4xx_ll_usb.c ****             /* need to process data in ptxfempty interrupt */
1808:Drivers/STM32F4xx_HAL_Driver/Src/stm32f4xx_ll_usb.c ****             USBx->GINTMSK |= USB_OTG_GINTMSK_PTXFEM;
1809:Drivers/STM32F4xx_HAL_Driver/Src/stm32f4xx_ll_usb.c ****           }
1810:Drivers/STM32F4xx_HAL_Driver/Src/stm32f4xx_ll_usb.c ****           break;
1811:Drivers/STM32F4xx_HAL_Driver/Src/stm32f4xx_ll_usb.c **** 
1812:Drivers/STM32F4xx_HAL_Driver/Src/stm32f4xx_ll_usb.c ****         default:
1813:Drivers/STM32F4xx_HAL_Driver/Src/stm32f4xx_ll_usb.c ****           break;
1814:Drivers/STM32F4xx_HAL_Driver/Src/stm32f4xx_ll_usb.c ****       }
1815:Drivers/STM32F4xx_HAL_Driver/Src/stm32f4xx_ll_usb.c **** 
1816:Drivers/STM32F4xx_HAL_Driver/Src/stm32f4xx_ll_usb.c ****       /* Write packet into the Tx FIFO. */
1817:Drivers/STM32F4xx_HAL_Driver/Src/stm32f4xx_ll_usb.c ****       (void)USB_WritePacket(USBx, hc->xfer_buff, hc->ch_num, (uint16_t)hc->xfer_len, 0);
1818:Drivers/STM32F4xx_HAL_Driver/Src/stm32f4xx_ll_usb.c ****     }
1819:Drivers/STM32F4xx_HAL_Driver/Src/stm32f4xx_ll_usb.c ****   }
1820:Drivers/STM32F4xx_HAL_Driver/Src/stm32f4xx_ll_usb.c **** 
1821:Drivers/STM32F4xx_HAL_Driver/Src/stm32f4xx_ll_usb.c ****   return HAL_OK;
1822:Drivers/STM32F4xx_HAL_Driver/Src/stm32f4xx_ll_usb.c **** }
1823:Drivers/STM32F4xx_HAL_Driver/Src/stm32f4xx_ll_usb.c **** 
1824:Drivers/STM32F4xx_HAL_Driver/Src/stm32f4xx_ll_usb.c **** /**
1825:Drivers/STM32F4xx_HAL_Driver/Src/stm32f4xx_ll_usb.c ****   * @brief Read all host channel interrupts status
1826:Drivers/STM32F4xx_HAL_Driver/Src/stm32f4xx_ll_usb.c ****   * @param  USBx  Selected device
1827:Drivers/STM32F4xx_HAL_Driver/Src/stm32f4xx_ll_usb.c ****   * @retval HAL state
1828:Drivers/STM32F4xx_HAL_Driver/Src/stm32f4xx_ll_usb.c ****   */
1829:Drivers/STM32F4xx_HAL_Driver/Src/stm32f4xx_ll_usb.c **** uint32_t USB_HC_ReadInterrupt(USB_OTG_GlobalTypeDef *USBx)
1830:Drivers/STM32F4xx_HAL_Driver/Src/stm32f4xx_ll_usb.c **** {
 3332              		.loc 1 1830 0
 3333              		.cfi_startproc
 3334              		@ args = 0, pretend = 0, frame = 0
 3335              		@ frame_needed = 0, uses_anonymous_args = 0
 3336              		@ link register save eliminated.
ARM GAS  /tmp/ccag9PFX.s 			page 98


 3337              	.LVL334:
1831:Drivers/STM32F4xx_HAL_Driver/Src/stm32f4xx_ll_usb.c ****   uint32_t USBx_BASE = (uint32_t)USBx;
1832:Drivers/STM32F4xx_HAL_Driver/Src/stm32f4xx_ll_usb.c **** 
1833:Drivers/STM32F4xx_HAL_Driver/Src/stm32f4xx_ll_usb.c ****   return ((USBx_HOST->HAINT) & 0xFFFFU);
 3338              		.loc 1 1833 0
 3339 0000 00F58060 		add	r0, r0, #1024
 3340              	.LVL335:
 3341 0004 4069     		ldr	r0, [r0, #20]
 3342              	.LVL336:
1834:Drivers/STM32F4xx_HAL_Driver/Src/stm32f4xx_ll_usb.c **** }
 3343              		.loc 1 1834 0
 3344 0006 80B2     		uxth	r0, r0
 3345 0008 7047     		bx	lr
 3346              		.cfi_endproc
 3347              	.LFE172:
 3349              		.section	.text.USB_HC_Halt,"ax",%progbits
 3350              		.align	1
 3351              		.global	USB_HC_Halt
 3352              		.syntax unified
 3353              		.thumb
 3354              		.thumb_func
 3355              		.fpu fpv4-sp-d16
 3357              	USB_HC_Halt:
 3358              	.LFB173:
1835:Drivers/STM32F4xx_HAL_Driver/Src/stm32f4xx_ll_usb.c **** 
1836:Drivers/STM32F4xx_HAL_Driver/Src/stm32f4xx_ll_usb.c **** /**
1837:Drivers/STM32F4xx_HAL_Driver/Src/stm32f4xx_ll_usb.c ****   * @brief  Halt a host channel
1838:Drivers/STM32F4xx_HAL_Driver/Src/stm32f4xx_ll_usb.c ****   * @param  USBx  Selected device
1839:Drivers/STM32F4xx_HAL_Driver/Src/stm32f4xx_ll_usb.c ****   * @param  hc_num  Host Channel number
1840:Drivers/STM32F4xx_HAL_Driver/Src/stm32f4xx_ll_usb.c ****   *         This parameter can be a value from 1 to 15
1841:Drivers/STM32F4xx_HAL_Driver/Src/stm32f4xx_ll_usb.c ****   * @retval HAL state
1842:Drivers/STM32F4xx_HAL_Driver/Src/stm32f4xx_ll_usb.c ****   */
1843:Drivers/STM32F4xx_HAL_Driver/Src/stm32f4xx_ll_usb.c **** HAL_StatusTypeDef USB_HC_Halt(USB_OTG_GlobalTypeDef *USBx, uint8_t hc_num)
1844:Drivers/STM32F4xx_HAL_Driver/Src/stm32f4xx_ll_usb.c **** {
 3359              		.loc 1 1844 0
 3360              		.cfi_startproc
 3361              		@ args = 0, pretend = 0, frame = 0
 3362              		@ frame_needed = 0, uses_anonymous_args = 0
 3363              		@ link register save eliminated.
 3364              	.LVL337:
 3365 0000 10B4     		push	{r4}
 3366              	.LCFI56:
 3367              		.cfi_def_cfa_offset 4
 3368              		.cfi_offset 4, -4
 3369              	.LVL338:
1845:Drivers/STM32F4xx_HAL_Driver/Src/stm32f4xx_ll_usb.c ****   uint32_t USBx_BASE = (uint32_t)USBx;
1846:Drivers/STM32F4xx_HAL_Driver/Src/stm32f4xx_ll_usb.c ****   uint32_t hcnum = (uint32_t)hc_num;
1847:Drivers/STM32F4xx_HAL_Driver/Src/stm32f4xx_ll_usb.c ****   uint32_t count = 0U;
1848:Drivers/STM32F4xx_HAL_Driver/Src/stm32f4xx_ll_usb.c ****   uint32_t HcEpType = (USBx_HC(hcnum)->HCCHAR & USB_OTG_HCCHAR_EPTYP) >> 18;
 3370              		.loc 1 1848 0
 3371 0002 00EB4111 		add	r1, r0, r1, lsl #5
 3372              	.LVL339:
 3373 0006 01F5A064 		add	r4, r1, #1280
 3374 000a D1F80035 		ldr	r3, [r1, #1280]
 3375 000e C3F38143 		ubfx	r3, r3, #18, #2
 3376              	.LVL340:
1849:Drivers/STM32F4xx_HAL_Driver/Src/stm32f4xx_ll_usb.c **** 
ARM GAS  /tmp/ccag9PFX.s 			page 99


1850:Drivers/STM32F4xx_HAL_Driver/Src/stm32f4xx_ll_usb.c ****   /* Check for space in the request queue to issue the halt. */
1851:Drivers/STM32F4xx_HAL_Driver/Src/stm32f4xx_ll_usb.c ****   if ((HcEpType == HCCHAR_CTRL) || (HcEpType == HCCHAR_BULK))
 3377              		.loc 1 1851 0
 3378 0012 3BB3     		cbz	r3, .L267
 3379              		.loc 1 1851 0 is_stmt 0 discriminator 1
 3380 0014 022B     		cmp	r3, #2
 3381 0016 25D0     		beq	.L267
1852:Drivers/STM32F4xx_HAL_Driver/Src/stm32f4xx_ll_usb.c ****   {
1853:Drivers/STM32F4xx_HAL_Driver/Src/stm32f4xx_ll_usb.c ****     USBx_HC(hcnum)->HCCHAR |= USB_OTG_HCCHAR_CHDIS;
1854:Drivers/STM32F4xx_HAL_Driver/Src/stm32f4xx_ll_usb.c **** 
1855:Drivers/STM32F4xx_HAL_Driver/Src/stm32f4xx_ll_usb.c ****     if ((USBx->HNPTXSTS & (0xFFU << 16)) == 0U)
1856:Drivers/STM32F4xx_HAL_Driver/Src/stm32f4xx_ll_usb.c ****     {
1857:Drivers/STM32F4xx_HAL_Driver/Src/stm32f4xx_ll_usb.c ****       USBx_HC(hcnum)->HCCHAR &= ~USB_OTG_HCCHAR_CHENA;
1858:Drivers/STM32F4xx_HAL_Driver/Src/stm32f4xx_ll_usb.c ****       USBx_HC(hcnum)->HCCHAR |= USB_OTG_HCCHAR_CHENA;
1859:Drivers/STM32F4xx_HAL_Driver/Src/stm32f4xx_ll_usb.c ****       USBx_HC(hcnum)->HCCHAR &= ~USB_OTG_HCCHAR_EPDIR;
1860:Drivers/STM32F4xx_HAL_Driver/Src/stm32f4xx_ll_usb.c ****       do
1861:Drivers/STM32F4xx_HAL_Driver/Src/stm32f4xx_ll_usb.c ****       {
1862:Drivers/STM32F4xx_HAL_Driver/Src/stm32f4xx_ll_usb.c ****         if (++count > 1000U)
1863:Drivers/STM32F4xx_HAL_Driver/Src/stm32f4xx_ll_usb.c ****         {
1864:Drivers/STM32F4xx_HAL_Driver/Src/stm32f4xx_ll_usb.c ****           break;
1865:Drivers/STM32F4xx_HAL_Driver/Src/stm32f4xx_ll_usb.c ****         }
1866:Drivers/STM32F4xx_HAL_Driver/Src/stm32f4xx_ll_usb.c ****       }
1867:Drivers/STM32F4xx_HAL_Driver/Src/stm32f4xx_ll_usb.c ****       while ((USBx_HC(hcnum)->HCCHAR & USB_OTG_HCCHAR_CHENA) == USB_OTG_HCCHAR_CHENA);
1868:Drivers/STM32F4xx_HAL_Driver/Src/stm32f4xx_ll_usb.c ****     }
1869:Drivers/STM32F4xx_HAL_Driver/Src/stm32f4xx_ll_usb.c ****     else
1870:Drivers/STM32F4xx_HAL_Driver/Src/stm32f4xx_ll_usb.c ****     {
1871:Drivers/STM32F4xx_HAL_Driver/Src/stm32f4xx_ll_usb.c ****       USBx_HC(hcnum)->HCCHAR |= USB_OTG_HCCHAR_CHENA;
1872:Drivers/STM32F4xx_HAL_Driver/Src/stm32f4xx_ll_usb.c ****     }
1873:Drivers/STM32F4xx_HAL_Driver/Src/stm32f4xx_ll_usb.c ****   }
1874:Drivers/STM32F4xx_HAL_Driver/Src/stm32f4xx_ll_usb.c ****   else
1875:Drivers/STM32F4xx_HAL_Driver/Src/stm32f4xx_ll_usb.c ****   {
1876:Drivers/STM32F4xx_HAL_Driver/Src/stm32f4xx_ll_usb.c ****     USBx_HC(hcnum)->HCCHAR |= USB_OTG_HCCHAR_CHDIS;
 3382              		.loc 1 1876 0 is_stmt 1
 3383 0018 D1F80035 		ldr	r3, [r1, #1280]
 3384              	.LVL341:
 3385 001c 43F08043 		orr	r3, r3, #1073741824
 3386 0020 C1F80035 		str	r3, [r1, #1280]
1877:Drivers/STM32F4xx_HAL_Driver/Src/stm32f4xx_ll_usb.c **** 
1878:Drivers/STM32F4xx_HAL_Driver/Src/stm32f4xx_ll_usb.c ****     if ((USBx_HOST->HPTXSTS & (0xFFU << 16)) == 0U)
 3387              		.loc 1 1878 0
 3388 0024 D0F81034 		ldr	r3, [r0, #1040]
 3389 0028 13F47F0F 		tst	r3, #16711680
 3390 002c 49D1     		bne	.L272
1879:Drivers/STM32F4xx_HAL_Driver/Src/stm32f4xx_ll_usb.c ****     {
1880:Drivers/STM32F4xx_HAL_Driver/Src/stm32f4xx_ll_usb.c ****       USBx_HC(hcnum)->HCCHAR &= ~USB_OTG_HCCHAR_CHENA;
 3391              		.loc 1 1880 0
 3392 002e D1F80035 		ldr	r3, [r1, #1280]
 3393 0032 23F00043 		bic	r3, r3, #-2147483648
 3394 0036 C1F80035 		str	r3, [r1, #1280]
1881:Drivers/STM32F4xx_HAL_Driver/Src/stm32f4xx_ll_usb.c ****       USBx_HC(hcnum)->HCCHAR |= USB_OTG_HCCHAR_CHENA;
 3395              		.loc 1 1881 0
 3396 003a D1F80035 		ldr	r3, [r1, #1280]
 3397 003e 43F00043 		orr	r3, r3, #-2147483648
 3398 0042 C1F80035 		str	r3, [r1, #1280]
1882:Drivers/STM32F4xx_HAL_Driver/Src/stm32f4xx_ll_usb.c ****       USBx_HC(hcnum)->HCCHAR &= ~USB_OTG_HCCHAR_EPDIR;
 3399              		.loc 1 1882 0
 3400 0046 D1F80035 		ldr	r3, [r1, #1280]
ARM GAS  /tmp/ccag9PFX.s 			page 100


 3401 004a 23F40043 		bic	r3, r3, #32768
 3402 004e C1F80035 		str	r3, [r1, #1280]
1847:Drivers/STM32F4xx_HAL_Driver/Src/stm32f4xx_ll_usb.c ****   uint32_t HcEpType = (USBx_HC(hcnum)->HCCHAR & USB_OTG_HCCHAR_EPTYP) >> 18;
 3403              		.loc 1 1847 0
 3404 0052 0023     		movs	r3, #0
 3405              	.LVL342:
 3406              	.L273:
1883:Drivers/STM32F4xx_HAL_Driver/Src/stm32f4xx_ll_usb.c ****       do
1884:Drivers/STM32F4xx_HAL_Driver/Src/stm32f4xx_ll_usb.c ****       {
1885:Drivers/STM32F4xx_HAL_Driver/Src/stm32f4xx_ll_usb.c ****         if (++count > 1000U)
 3407              		.loc 1 1885 0
 3408 0054 0133     		adds	r3, r3, #1
 3409              	.LVL343:
 3410 0056 B3F57A7F 		cmp	r3, #1000
 3411 005a 27D8     		bhi	.L270
1886:Drivers/STM32F4xx_HAL_Driver/Src/stm32f4xx_ll_usb.c ****         {
1887:Drivers/STM32F4xx_HAL_Driver/Src/stm32f4xx_ll_usb.c ****           break;
1888:Drivers/STM32F4xx_HAL_Driver/Src/stm32f4xx_ll_usb.c ****         }
1889:Drivers/STM32F4xx_HAL_Driver/Src/stm32f4xx_ll_usb.c ****       }
1890:Drivers/STM32F4xx_HAL_Driver/Src/stm32f4xx_ll_usb.c ****       while ((USBx_HC(hcnum)->HCCHAR & USB_OTG_HCCHAR_CHENA) == USB_OTG_HCCHAR_CHENA);
 3412              		.loc 1 1890 0
 3413 005c 2268     		ldr	r2, [r4]
 3414 005e 002A     		cmp	r2, #0
 3415 0060 F8DB     		blt	.L273
 3416 0062 23E0     		b	.L270
 3417              	.LVL344:
 3418              	.L267:
1853:Drivers/STM32F4xx_HAL_Driver/Src/stm32f4xx_ll_usb.c **** 
 3419              		.loc 1 1853 0
 3420 0064 D1F80035 		ldr	r3, [r1, #1280]
 3421              	.LVL345:
 3422 0068 43F08043 		orr	r3, r3, #1073741824
 3423 006c C1F80035 		str	r3, [r1, #1280]
1855:Drivers/STM32F4xx_HAL_Driver/Src/stm32f4xx_ll_usb.c ****     {
 3424              		.loc 1 1855 0
 3425 0070 C36A     		ldr	r3, [r0, #44]
 3426 0072 13F47F0F 		tst	r3, #16711680
 3427 0076 1DD1     		bne	.L269
1857:Drivers/STM32F4xx_HAL_Driver/Src/stm32f4xx_ll_usb.c ****       USBx_HC(hcnum)->HCCHAR |= USB_OTG_HCCHAR_CHENA;
 3428              		.loc 1 1857 0
 3429 0078 D1F80035 		ldr	r3, [r1, #1280]
 3430 007c 23F00043 		bic	r3, r3, #-2147483648
 3431 0080 C1F80035 		str	r3, [r1, #1280]
1858:Drivers/STM32F4xx_HAL_Driver/Src/stm32f4xx_ll_usb.c ****       USBx_HC(hcnum)->HCCHAR &= ~USB_OTG_HCCHAR_EPDIR;
 3432              		.loc 1 1858 0
 3433 0084 D1F80035 		ldr	r3, [r1, #1280]
 3434 0088 43F00043 		orr	r3, r3, #-2147483648
 3435 008c C1F80035 		str	r3, [r1, #1280]
1859:Drivers/STM32F4xx_HAL_Driver/Src/stm32f4xx_ll_usb.c ****       do
 3436              		.loc 1 1859 0
 3437 0090 D1F80035 		ldr	r3, [r1, #1280]
 3438 0094 23F40043 		bic	r3, r3, #32768
 3439 0098 C1F80035 		str	r3, [r1, #1280]
1847:Drivers/STM32F4xx_HAL_Driver/Src/stm32f4xx_ll_usb.c ****   uint32_t HcEpType = (USBx_HC(hcnum)->HCCHAR & USB_OTG_HCCHAR_EPTYP) >> 18;
 3440              		.loc 1 1847 0
 3441 009c 0023     		movs	r3, #0
 3442              	.LVL346:
ARM GAS  /tmp/ccag9PFX.s 			page 101


 3443              	.L271:
1862:Drivers/STM32F4xx_HAL_Driver/Src/stm32f4xx_ll_usb.c ****         {
 3444              		.loc 1 1862 0
 3445 009e 0133     		adds	r3, r3, #1
 3446              	.LVL347:
 3447 00a0 B3F57A7F 		cmp	r3, #1000
 3448 00a4 02D8     		bhi	.L270
1867:Drivers/STM32F4xx_HAL_Driver/Src/stm32f4xx_ll_usb.c ****     }
 3449              		.loc 1 1867 0
 3450 00a6 2268     		ldr	r2, [r4]
 3451 00a8 002A     		cmp	r2, #0
 3452 00aa F8DB     		blt	.L271
 3453              	.LVL348:
 3454              	.L270:
1891:Drivers/STM32F4xx_HAL_Driver/Src/stm32f4xx_ll_usb.c ****     }
1892:Drivers/STM32F4xx_HAL_Driver/Src/stm32f4xx_ll_usb.c ****     else
1893:Drivers/STM32F4xx_HAL_Driver/Src/stm32f4xx_ll_usb.c ****     {
1894:Drivers/STM32F4xx_HAL_Driver/Src/stm32f4xx_ll_usb.c ****       USBx_HC(hcnum)->HCCHAR |= USB_OTG_HCCHAR_CHENA;
1895:Drivers/STM32F4xx_HAL_Driver/Src/stm32f4xx_ll_usb.c ****     }
1896:Drivers/STM32F4xx_HAL_Driver/Src/stm32f4xx_ll_usb.c ****   }
1897:Drivers/STM32F4xx_HAL_Driver/Src/stm32f4xx_ll_usb.c **** 
1898:Drivers/STM32F4xx_HAL_Driver/Src/stm32f4xx_ll_usb.c ****   return HAL_OK;
1899:Drivers/STM32F4xx_HAL_Driver/Src/stm32f4xx_ll_usb.c **** }
 3455              		.loc 1 1899 0
 3456 00ac 0020     		movs	r0, #0
 3457              	.LVL349:
 3458 00ae 5DF8044B 		ldr	r4, [sp], #4
 3459              	.LCFI57:
 3460              		.cfi_remember_state
 3461              		.cfi_restore 4
 3462              		.cfi_def_cfa_offset 0
 3463 00b2 7047     		bx	lr
 3464              	.LVL350:
 3465              	.L269:
 3466              	.LCFI58:
 3467              		.cfi_restore_state
1871:Drivers/STM32F4xx_HAL_Driver/Src/stm32f4xx_ll_usb.c ****     }
 3468              		.loc 1 1871 0
 3469 00b4 D1F80035 		ldr	r3, [r1, #1280]
 3470 00b8 43F00043 		orr	r3, r3, #-2147483648
 3471 00bc C1F80035 		str	r3, [r1, #1280]
 3472 00c0 F4E7     		b	.L270
 3473              	.L272:
1894:Drivers/STM32F4xx_HAL_Driver/Src/stm32f4xx_ll_usb.c ****     }
 3474              		.loc 1 1894 0
 3475 00c2 D1F80035 		ldr	r3, [r1, #1280]
 3476 00c6 43F00043 		orr	r3, r3, #-2147483648
 3477 00ca C1F80035 		str	r3, [r1, #1280]
 3478 00ce EDE7     		b	.L270
 3479              		.cfi_endproc
 3480              	.LFE173:
 3482              		.section	.text.USB_DoPing,"ax",%progbits
 3483              		.align	1
 3484              		.global	USB_DoPing
 3485              		.syntax unified
 3486              		.thumb
 3487              		.thumb_func
ARM GAS  /tmp/ccag9PFX.s 			page 102


 3488              		.fpu fpv4-sp-d16
 3490              	USB_DoPing:
 3491              	.LFB174:
1900:Drivers/STM32F4xx_HAL_Driver/Src/stm32f4xx_ll_usb.c **** 
1901:Drivers/STM32F4xx_HAL_Driver/Src/stm32f4xx_ll_usb.c **** /**
1902:Drivers/STM32F4xx_HAL_Driver/Src/stm32f4xx_ll_usb.c ****   * @brief  Initiate Do Ping protocol
1903:Drivers/STM32F4xx_HAL_Driver/Src/stm32f4xx_ll_usb.c ****   * @param  USBx  Selected device
1904:Drivers/STM32F4xx_HAL_Driver/Src/stm32f4xx_ll_usb.c ****   * @param  hc_num  Host Channel number
1905:Drivers/STM32F4xx_HAL_Driver/Src/stm32f4xx_ll_usb.c ****   *         This parameter can be a value from 1 to 15
1906:Drivers/STM32F4xx_HAL_Driver/Src/stm32f4xx_ll_usb.c ****   * @retval HAL state
1907:Drivers/STM32F4xx_HAL_Driver/Src/stm32f4xx_ll_usb.c ****   */
1908:Drivers/STM32F4xx_HAL_Driver/Src/stm32f4xx_ll_usb.c **** HAL_StatusTypeDef USB_DoPing(USB_OTG_GlobalTypeDef *USBx, uint8_t ch_num)
1909:Drivers/STM32F4xx_HAL_Driver/Src/stm32f4xx_ll_usb.c **** {
 3492              		.loc 1 1909 0
 3493              		.cfi_startproc
 3494              		@ args = 0, pretend = 0, frame = 0
 3495              		@ frame_needed = 0, uses_anonymous_args = 0
 3496              		@ link register save eliminated.
 3497              	.LVL351:
1910:Drivers/STM32F4xx_HAL_Driver/Src/stm32f4xx_ll_usb.c ****   uint32_t USBx_BASE = (uint32_t)USBx;
1911:Drivers/STM32F4xx_HAL_Driver/Src/stm32f4xx_ll_usb.c ****   uint32_t chnum = (uint32_t)ch_num;
1912:Drivers/STM32F4xx_HAL_Driver/Src/stm32f4xx_ll_usb.c ****   uint32_t num_packets = 1U;
1913:Drivers/STM32F4xx_HAL_Driver/Src/stm32f4xx_ll_usb.c ****   uint32_t tmpreg;
1914:Drivers/STM32F4xx_HAL_Driver/Src/stm32f4xx_ll_usb.c **** 
1915:Drivers/STM32F4xx_HAL_Driver/Src/stm32f4xx_ll_usb.c ****   USBx_HC(chnum)->HCTSIZ = ((num_packets << 19) & USB_OTG_HCTSIZ_PKTCNT) |
 3498              		.loc 1 1915 0
 3499 0000 00EB4111 		add	r1, r0, r1, lsl #5
 3500              	.LVL352:
 3501 0004 064A     		ldr	r2, .L276
 3502 0006 C1F81025 		str	r2, [r1, #1296]
1916:Drivers/STM32F4xx_HAL_Driver/Src/stm32f4xx_ll_usb.c ****                            USB_OTG_HCTSIZ_DOPING;
1917:Drivers/STM32F4xx_HAL_Driver/Src/stm32f4xx_ll_usb.c **** 
1918:Drivers/STM32F4xx_HAL_Driver/Src/stm32f4xx_ll_usb.c ****   /* Set host channel enable */
1919:Drivers/STM32F4xx_HAL_Driver/Src/stm32f4xx_ll_usb.c ****   tmpreg = USBx_HC(chnum)->HCCHAR;
 3503              		.loc 1 1919 0
 3504 000a D1F80035 		ldr	r3, [r1, #1280]
 3505              	.LVL353:
1920:Drivers/STM32F4xx_HAL_Driver/Src/stm32f4xx_ll_usb.c ****   tmpreg &= ~USB_OTG_HCCHAR_CHDIS;
 3506              		.loc 1 1920 0
 3507 000e 23F08043 		bic	r3, r3, #1073741824
 3508              	.LVL354:
1921:Drivers/STM32F4xx_HAL_Driver/Src/stm32f4xx_ll_usb.c ****   tmpreg |= USB_OTG_HCCHAR_CHENA;
 3509              		.loc 1 1921 0
 3510 0012 43F00043 		orr	r3, r3, #-2147483648
 3511              	.LVL355:
1922:Drivers/STM32F4xx_HAL_Driver/Src/stm32f4xx_ll_usb.c ****   USBx_HC(chnum)->HCCHAR = tmpreg;
 3512              		.loc 1 1922 0
 3513 0016 C1F80035 		str	r3, [r1, #1280]
1923:Drivers/STM32F4xx_HAL_Driver/Src/stm32f4xx_ll_usb.c **** 
1924:Drivers/STM32F4xx_HAL_Driver/Src/stm32f4xx_ll_usb.c ****   return HAL_OK;
1925:Drivers/STM32F4xx_HAL_Driver/Src/stm32f4xx_ll_usb.c **** }
 3514              		.loc 1 1925 0
 3515 001a 0020     		movs	r0, #0
 3516              	.LVL356:
 3517 001c 7047     		bx	lr
 3518              	.L277:
 3519 001e 00BF     		.align	2
ARM GAS  /tmp/ccag9PFX.s 			page 103


 3520              	.L276:
 3521 0020 00000880 		.word	-2146959360
 3522              		.cfi_endproc
 3523              	.LFE174:
 3525              		.section	.text.USB_HC_StartXfer,"ax",%progbits
 3526              		.align	1
 3527              		.global	USB_HC_StartXfer
 3528              		.syntax unified
 3529              		.thumb
 3530              		.thumb_func
 3531              		.fpu fpv4-sp-d16
 3533              	USB_HC_StartXfer:
 3534              	.LFB171:
1702:Drivers/STM32F4xx_HAL_Driver/Src/stm32f4xx_ll_usb.c ****   uint32_t USBx_BASE = (uint32_t)USBx;
 3535              		.loc 1 1702 0
 3536              		.cfi_startproc
 3537              		@ args = 0, pretend = 0, frame = 0
 3538              		@ frame_needed = 0, uses_anonymous_args = 0
 3539              	.LVL357:
 3540 0000 70B5     		push	{r4, r5, r6, lr}
 3541              	.LCFI59:
 3542              		.cfi_def_cfa_offset 16
 3543              		.cfi_offset 4, -16
 3544              		.cfi_offset 5, -12
 3545              		.cfi_offset 6, -8
 3546              		.cfi_offset 14, -4
 3547 0002 82B0     		sub	sp, sp, #8
 3548              	.LCFI60:
 3549              		.cfi_def_cfa_offset 24
 3550              	.LVL358:
1704:Drivers/STM32F4xx_HAL_Driver/Src/stm32f4xx_ll_usb.c ****   static __IO uint32_t tmpreg = 0U;
 3551              		.loc 1 1704 0
 3552 0004 4C78     		ldrb	r4, [r1, #1]	@ zero_extendqisi2
 3553              	.LVL359:
1711:Drivers/STM32F4xx_HAL_Driver/Src/stm32f4xx_ll_usb.c ****   {
 3554              		.loc 1 1711 0
 3555 0006 C36B     		ldr	r3, [r0, #60]
 3556 0008 13F4807F 		tst	r3, #256
 3557 000c 07D0     		beq	.L279
1711:Drivers/STM32F4xx_HAL_Driver/Src/stm32f4xx_ll_usb.c ****   {
 3558              		.loc 1 1711 0 is_stmt 0 discriminator 1
 3559 000e 0B79     		ldrb	r3, [r1, #4]	@ zero_extendqisi2
 3560 0010 2BB9     		cbnz	r3, .L279
1713:Drivers/STM32F4xx_HAL_Driver/Src/stm32f4xx_ll_usb.c ****     {
 3561              		.loc 1 1713 0 is_stmt 1
 3562 0012 12B9     		cbnz	r2, .L280
1713:Drivers/STM32F4xx_HAL_Driver/Src/stm32f4xx_ll_usb.c ****     {
 3563              		.loc 1 1713 0 is_stmt 0 discriminator 1
 3564 0014 4B79     		ldrb	r3, [r1, #5]	@ zero_extendqisi2
 3565 0016 012B     		cmp	r3, #1
 3566 0018 11D0     		beq	.L293
 3567              	.L280:
1718:Drivers/STM32F4xx_HAL_Driver/Src/stm32f4xx_ll_usb.c ****     {
 3568              		.loc 1 1718 0 is_stmt 1
 3569 001a 012A     		cmp	r2, #1
 3570 001c 13D0     		beq	.L294
 3571              	.L279:
ARM GAS  /tmp/ccag9PFX.s 			page 104


1730:Drivers/STM32F4xx_HAL_Driver/Src/stm32f4xx_ll_usb.c ****   {
 3572              		.loc 1 1730 0
 3573 001e 0B69     		ldr	r3, [r1, #16]
 3574 0020 E3B1     		cbz	r3, .L291
1732:Drivers/STM32F4xx_HAL_Driver/Src/stm32f4xx_ll_usb.c **** 
 3575              		.loc 1 1732 0
 3576 0022 0D89     		ldrh	r5, [r1, #8]
 3577 0024 2B44     		add	r3, r3, r5
 3578 0026 013B     		subs	r3, r3, #1
 3579 0028 B3FBF5F3 		udiv	r3, r3, r5
 3580 002c 9BB2     		uxth	r3, r3
 3581              	.LVL360:
1734:Drivers/STM32F4xx_HAL_Driver/Src/stm32f4xx_ll_usb.c ****     {
 3582              		.loc 1 1734 0
 3583 002e B3F5807F 		cmp	r3, #256
 3584 0032 14D9     		bls	.L282
 3585              	.LVL361:
1737:Drivers/STM32F4xx_HAL_Driver/Src/stm32f4xx_ll_usb.c ****     }
 3586              		.loc 1 1737 0
 3587 0034 2D02     		lsls	r5, r5, #8
 3588 0036 0D61     		str	r5, [r1, #16]
1736:Drivers/STM32F4xx_HAL_Driver/Src/stm32f4xx_ll_usb.c ****       hc->xfer_len = (uint32_t)num_packets * hc->max_packet;
 3589              		.loc 1 1736 0
 3590 0038 4FF48073 		mov	r3, #256
 3591 003c 0FE0     		b	.L282
 3592              	.LVL362:
 3593              	.L293:
1715:Drivers/STM32F4xx_HAL_Driver/Src/stm32f4xx_ll_usb.c ****       return HAL_OK;
 3594              		.loc 1 1715 0
 3595 003e 2146     		mov	r1, r4
 3596              	.LVL363:
 3597 0040 FFF7FEFF 		bl	USB_DoPing
 3598              	.LVL364:
1716:Drivers/STM32F4xx_HAL_Driver/Src/stm32f4xx_ll_usb.c ****     }
 3599              		.loc 1 1716 0
 3600 0044 75E0     		b	.L281
 3601              	.LVL365:
 3602              	.L294:
1720:Drivers/STM32F4xx_HAL_Driver/Src/stm32f4xx_ll_usb.c ****       hc->do_ping = 0U;
 3603              		.loc 1 1720 0
 3604 0046 00EB4413 		add	r3, r0, r4, lsl #5
 3605 004a D3F80C55 		ldr	r5, [r3, #1292]
 3606 004e 25F06005 		bic	r5, r5, #96
 3607 0052 C3F80C55 		str	r5, [r3, #1292]
1721:Drivers/STM32F4xx_HAL_Driver/Src/stm32f4xx_ll_usb.c ****     }
 3608              		.loc 1 1721 0
 3609 0056 0023     		movs	r3, #0
 3610 0058 4B71     		strb	r3, [r1, #5]
 3611 005a E0E7     		b	.L279
 3612              	.L291:
1742:Drivers/STM32F4xx_HAL_Driver/Src/stm32f4xx_ll_usb.c ****   }
 3613              		.loc 1 1742 0
 3614 005c 0123     		movs	r3, #1
 3615              	.L282:
 3616              	.LVL366:
1744:Drivers/STM32F4xx_HAL_Driver/Src/stm32f4xx_ll_usb.c ****   {
 3617              		.loc 1 1744 0
ARM GAS  /tmp/ccag9PFX.s 			page 105


 3618 005e CD78     		ldrb	r5, [r1, #3]	@ zero_extendqisi2
 3619 0060 1DB1     		cbz	r5, .L283
1746:Drivers/STM32F4xx_HAL_Driver/Src/stm32f4xx_ll_usb.c ****   }
 3620              		.loc 1 1746 0
 3621 0062 0D89     		ldrh	r5, [r1, #8]
 3622 0064 05FB03F5 		mul	r5, r5, r3
 3623 0068 0D61     		str	r5, [r1, #16]
 3624              	.L283:
1750:Drivers/STM32F4xx_HAL_Driver/Src/stm32f4xx_ll_usb.c ****                             (((uint32_t)num_packets << 19) & USB_OTG_HCTSIZ_PKTCNT) |
 3625              		.loc 1 1750 0
 3626 006a 0D69     		ldr	r5, [r1, #16]
 3627 006c C5F31205 		ubfx	r5, r5, #0, #19
1751:Drivers/STM32F4xx_HAL_Driver/Src/stm32f4xx_ll_usb.c ****                             (((uint32_t)hc->data_pid << 29) & USB_OTG_HCTSIZ_DPID);
 3628              		.loc 1 1751 0
 3629 0070 374E     		ldr	r6, .L295
 3630 0072 06EAC343 		and	r3, r6, r3, lsl #19
 3631              	.LVL367:
1750:Drivers/STM32F4xx_HAL_Driver/Src/stm32f4xx_ll_usb.c ****                             (((uint32_t)num_packets << 19) & USB_OTG_HCTSIZ_PKTCNT) |
 3632              		.loc 1 1750 0
 3633 0076 2B43     		orrs	r3, r3, r5
1752:Drivers/STM32F4xx_HAL_Driver/Src/stm32f4xx_ll_usb.c **** 
 3634              		.loc 1 1752 0
 3635 0078 8D7A     		ldrb	r5, [r1, #10]	@ zero_extendqisi2
 3636 007a 6D07     		lsls	r5, r5, #29
 3637 007c 05F0C045 		and	r5, r5, #1610612736
1750:Drivers/STM32F4xx_HAL_Driver/Src/stm32f4xx_ll_usb.c ****                             (((uint32_t)num_packets << 19) & USB_OTG_HCTSIZ_PKTCNT) |
 3638              		.loc 1 1750 0
 3639 0080 00EB4414 		add	r4, r0, r4, lsl #5
 3640              	.LVL368:
1751:Drivers/STM32F4xx_HAL_Driver/Src/stm32f4xx_ll_usb.c ****                             (((uint32_t)hc->data_pid << 29) & USB_OTG_HCTSIZ_DPID);
 3641              		.loc 1 1751 0
 3642 0084 2B43     		orrs	r3, r3, r5
1750:Drivers/STM32F4xx_HAL_Driver/Src/stm32f4xx_ll_usb.c ****                             (((uint32_t)num_packets << 19) & USB_OTG_HCTSIZ_PKTCNT) |
 3643              		.loc 1 1750 0
 3644 0086 C4F81035 		str	r3, [r4, #1296]
1754:Drivers/STM32F4xx_HAL_Driver/Src/stm32f4xx_ll_usb.c ****   {
 3645              		.loc 1 1754 0
 3646 008a 12B1     		cbz	r2, .L284
1757:Drivers/STM32F4xx_HAL_Driver/Src/stm32f4xx_ll_usb.c ****   }
 3647              		.loc 1 1757 0
 3648 008c CB68     		ldr	r3, [r1, #12]
 3649 008e C4F81435 		str	r3, [r4, #1300]
 3650              	.L284:
1760:Drivers/STM32F4xx_HAL_Driver/Src/stm32f4xx_ll_usb.c ****   USBx_HC(ch_num)->HCCHAR &= ~USB_OTG_HCCHAR_ODDFRM;
 3651              		.loc 1 1760 0
 3652 0092 00F58066 		add	r6, r0, #1024
 3653 0096 B368     		ldr	r3, [r6, #8]
 3654 0098 13F0010F 		tst	r3, #1
 3655              	.LVL369:
1761:Drivers/STM32F4xx_HAL_Driver/Src/stm32f4xx_ll_usb.c ****   USBx_HC(ch_num)->HCCHAR |= (uint32_t)is_oddframe << 29;
 3656              		.loc 1 1761 0
 3657 009c D4F80035 		ldr	r3, [r4, #1280]
 3658 00a0 23F00053 		bic	r3, r3, #536870912
 3659 00a4 C4F80035 		str	r3, [r4, #1280]
1762:Drivers/STM32F4xx_HAL_Driver/Src/stm32f4xx_ll_usb.c **** 
 3660              		.loc 1 1762 0
 3661 00a8 D4F80035 		ldr	r3, [r4, #1280]
ARM GAS  /tmp/ccag9PFX.s 			page 106


 3662 00ac 0CBF     		ite	eq
 3663 00ae 4FF00055 		moveq	r5, #536870912
 3664 00b2 0025     		movne	r5, #0
 3665 00b4 2B43     		orrs	r3, r3, r5
 3666 00b6 C4F80035 		str	r3, [r4, #1280]
1765:Drivers/STM32F4xx_HAL_Driver/Src/stm32f4xx_ll_usb.c ****   tmpreg &= ~USB_OTG_HCCHAR_CHDIS;
 3667              		.loc 1 1765 0
 3668 00ba D4F80055 		ldr	r5, [r4, #1280]
 3669 00be 254B     		ldr	r3, .L295+4
 3670 00c0 1D60     		str	r5, [r3]
1766:Drivers/STM32F4xx_HAL_Driver/Src/stm32f4xx_ll_usb.c **** 
 3671              		.loc 1 1766 0
 3672 00c2 1D68     		ldr	r5, [r3]
 3673 00c4 25F08045 		bic	r5, r5, #1073741824
 3674 00c8 1D60     		str	r5, [r3]
1769:Drivers/STM32F4xx_HAL_Driver/Src/stm32f4xx_ll_usb.c ****   {
 3675              		.loc 1 1769 0
 3676 00ca CB78     		ldrb	r3, [r1, #3]	@ zero_extendqisi2
 3677 00cc C3B1     		cbz	r3, .L285
 3678              	.LVL370:
1771:Drivers/STM32F4xx_HAL_Driver/Src/stm32f4xx_ll_usb.c ****   }
 3679              		.loc 1 1771 0
 3680 00ce 214D     		ldr	r5, .L295+4
 3681 00d0 2B68     		ldr	r3, [r5]
 3682 00d2 43F40043 		orr	r3, r3, #32768
 3683 00d6 2B60     		str	r3, [r5]
 3684              	.L286:
1777:Drivers/STM32F4xx_HAL_Driver/Src/stm32f4xx_ll_usb.c ****   USBx_HC(ch_num)->HCCHAR = tmpreg;
 3685              		.loc 1 1777 0
 3686 00d8 1E4B     		ldr	r3, .L295+4
 3687 00da 1D68     		ldr	r5, [r3]
 3688 00dc 45F00045 		orr	r5, r5, #-2147483648
 3689 00e0 1D60     		str	r5, [r3]
1778:Drivers/STM32F4xx_HAL_Driver/Src/stm32f4xx_ll_usb.c **** 
 3690              		.loc 1 1778 0
 3691 00e2 1B68     		ldr	r3, [r3]
 3692 00e4 C4F80035 		str	r3, [r4, #1280]
1780:Drivers/STM32F4xx_HAL_Driver/Src/stm32f4xx_ll_usb.c ****   {
 3693              		.loc 1 1780 0
 3694 00e8 1ABB     		cbnz	r2, .L281
1782:Drivers/STM32F4xx_HAL_Driver/Src/stm32f4xx_ll_usb.c ****     {
 3695              		.loc 1 1782 0
 3696 00ea CB78     		ldrb	r3, [r1, #3]	@ zero_extendqisi2
 3697 00ec 0BBB     		cbnz	r3, .L281
1782:Drivers/STM32F4xx_HAL_Driver/Src/stm32f4xx_ll_usb.c ****     {
 3698              		.loc 1 1782 0 is_stmt 0 discriminator 1
 3699 00ee 0B69     		ldr	r3, [r1, #16]
 3700 00f0 FBB1     		cbz	r3, .L281
1784:Drivers/STM32F4xx_HAL_Driver/Src/stm32f4xx_ll_usb.c ****       {
 3701              		.loc 1 1784 0 is_stmt 1
 3702 00f2 CA79     		ldrb	r2, [r1, #7]	@ zero_extendqisi2
 3703              	.LVL371:
 3704 00f4 032A     		cmp	r2, #3
 3705 00f6 14D8     		bhi	.L287
 3706 00f8 DFE802F0 		tbb	[pc, r2]
 3707              	.L289:
 3708 00fc 08       		.byte	(.L288-.L289)/2
ARM GAS  /tmp/ccag9PFX.s 			page 107


 3709 00fd 1E       		.byte	(.L290-.L289)/2
 3710 00fe 08       		.byte	(.L288-.L289)/2
 3711 00ff 1E       		.byte	(.L290-.L289)/2
 3712              	.LVL372:
 3713              		.p2align 1
 3714              	.L285:
1775:Drivers/STM32F4xx_HAL_Driver/Src/stm32f4xx_ll_usb.c ****   }
 3715              		.loc 1 1775 0
 3716 0100 144D     		ldr	r5, .L295+4
 3717 0102 2B68     		ldr	r3, [r5]
 3718 0104 23F40043 		bic	r3, r3, #32768
 3719 0108 2B60     		str	r3, [r5]
 3720 010a E5E7     		b	.L286
 3721              	.LVL373:
 3722              	.L288:
1790:Drivers/STM32F4xx_HAL_Driver/Src/stm32f4xx_ll_usb.c **** 
 3723              		.loc 1 1790 0
 3724 010c 0333     		adds	r3, r3, #3
 3725              	.LVL374:
1793:Drivers/STM32F4xx_HAL_Driver/Src/stm32f4xx_ll_usb.c ****           {
 3726              		.loc 1 1793 0
 3727 010e C26A     		ldr	r2, [r0, #44]
 3728 0110 92B2     		uxth	r2, r2
 3729 0112 C3F38F03 		ubfx	r3, r3, #2, #16
 3730              	.LVL375:
 3731 0116 9A42     		cmp	r2, r3
 3732 0118 03D2     		bcs	.L287
1796:Drivers/STM32F4xx_HAL_Driver/Src/stm32f4xx_ll_usb.c ****           }
 3733              		.loc 1 1796 0
 3734 011a 8369     		ldr	r3, [r0, #24]
 3735 011c 43F02003 		orr	r3, r3, #32
 3736 0120 8361     		str	r3, [r0, #24]
 3737              	.LVL376:
 3738              	.L287:
1817:Drivers/STM32F4xx_HAL_Driver/Src/stm32f4xx_ll_usb.c ****     }
 3739              		.loc 1 1817 0
 3740 0122 CC68     		ldr	r4, [r1, #12]
 3741 0124 4A78     		ldrb	r2, [r1, #1]	@ zero_extendqisi2
 3742 0126 0B8A     		ldrh	r3, [r1, #16]
 3743 0128 0021     		movs	r1, #0
 3744              	.LVL377:
 3745 012a 0091     		str	r1, [sp]
 3746 012c 2146     		mov	r1, r4
 3747 012e FFF7FEFF 		bl	USB_WritePacket
 3748              	.LVL378:
 3749              	.L281:
1822:Drivers/STM32F4xx_HAL_Driver/Src/stm32f4xx_ll_usb.c **** 
 3750              		.loc 1 1822 0
 3751 0132 0020     		movs	r0, #0
 3752 0134 02B0     		add	sp, sp, #8
 3753              	.LCFI61:
 3754              		.cfi_remember_state
 3755              		.cfi_def_cfa_offset 16
 3756              		@ sp needed
 3757 0136 70BD     		pop	{r4, r5, r6, pc}
 3758              	.LVL379:
 3759              	.L290:
ARM GAS  /tmp/ccag9PFX.s 			page 108


 3760              	.LCFI62:
 3761              		.cfi_restore_state
1803:Drivers/STM32F4xx_HAL_Driver/Src/stm32f4xx_ll_usb.c ****           /* check if there is enough space in FIFO space */
 3762              		.loc 1 1803 0
 3763 0138 0333     		adds	r3, r3, #3
 3764              	.LVL380:
1805:Drivers/STM32F4xx_HAL_Driver/Src/stm32f4xx_ll_usb.c ****           {
 3765              		.loc 1 1805 0
 3766 013a 3269     		ldr	r2, [r6, #16]
 3767 013c 92B2     		uxth	r2, r2
 3768 013e C3F38F03 		ubfx	r3, r3, #2, #16
 3769              	.LVL381:
 3770 0142 9A42     		cmp	r2, r3
 3771 0144 EDD2     		bcs	.L287
1808:Drivers/STM32F4xx_HAL_Driver/Src/stm32f4xx_ll_usb.c ****           }
 3772              		.loc 1 1808 0
 3773 0146 8369     		ldr	r3, [r0, #24]
 3774 0148 43F08063 		orr	r3, r3, #67108864
 3775 014c 8361     		str	r3, [r0, #24]
 3776              	.LVL382:
 3777 014e E8E7     		b	.L287
 3778              	.L296:
 3779              		.align	2
 3780              	.L295:
 3781 0150 0000F81F 		.word	536346624
 3782 0154 00000000 		.word	.LANCHOR0
 3783              		.cfi_endproc
 3784              	.LFE171:
 3786              		.section	.text.USB_StopHost,"ax",%progbits
 3787              		.align	1
 3788              		.global	USB_StopHost
 3789              		.syntax unified
 3790              		.thumb
 3791              		.thumb_func
 3792              		.fpu fpv4-sp-d16
 3794              	USB_StopHost:
 3795              	.LFB175:
1926:Drivers/STM32F4xx_HAL_Driver/Src/stm32f4xx_ll_usb.c **** 
1927:Drivers/STM32F4xx_HAL_Driver/Src/stm32f4xx_ll_usb.c **** /**
1928:Drivers/STM32F4xx_HAL_Driver/Src/stm32f4xx_ll_usb.c ****   * @brief  Stop Host Core
1929:Drivers/STM32F4xx_HAL_Driver/Src/stm32f4xx_ll_usb.c ****   * @param  USBx  Selected device
1930:Drivers/STM32F4xx_HAL_Driver/Src/stm32f4xx_ll_usb.c ****   * @retval HAL state
1931:Drivers/STM32F4xx_HAL_Driver/Src/stm32f4xx_ll_usb.c ****   */
1932:Drivers/STM32F4xx_HAL_Driver/Src/stm32f4xx_ll_usb.c **** HAL_StatusTypeDef USB_StopHost(USB_OTG_GlobalTypeDef *USBx)
1933:Drivers/STM32F4xx_HAL_Driver/Src/stm32f4xx_ll_usb.c **** {
 3796              		.loc 1 1933 0
 3797              		.cfi_startproc
 3798              		@ args = 0, pretend = 0, frame = 0
 3799              		@ frame_needed = 0, uses_anonymous_args = 0
 3800              	.LVL383:
 3801 0000 70B5     		push	{r4, r5, r6, lr}
 3802              	.LCFI63:
 3803              		.cfi_def_cfa_offset 16
 3804              		.cfi_offset 4, -16
 3805              		.cfi_offset 5, -12
 3806              		.cfi_offset 6, -8
 3807              		.cfi_offset 14, -4
ARM GAS  /tmp/ccag9PFX.s 			page 109


 3808 0002 0546     		mov	r5, r0
1934:Drivers/STM32F4xx_HAL_Driver/Src/stm32f4xx_ll_usb.c ****   uint32_t USBx_BASE = (uint32_t)USBx;
 3809              		.loc 1 1934 0
 3810 0004 0446     		mov	r4, r0
 3811              	.LVL384:
1935:Drivers/STM32F4xx_HAL_Driver/Src/stm32f4xx_ll_usb.c ****   uint32_t count = 0U;
1936:Drivers/STM32F4xx_HAL_Driver/Src/stm32f4xx_ll_usb.c ****   uint32_t value;
1937:Drivers/STM32F4xx_HAL_Driver/Src/stm32f4xx_ll_usb.c ****   uint32_t i;
1938:Drivers/STM32F4xx_HAL_Driver/Src/stm32f4xx_ll_usb.c **** 
1939:Drivers/STM32F4xx_HAL_Driver/Src/stm32f4xx_ll_usb.c **** 
1940:Drivers/STM32F4xx_HAL_Driver/Src/stm32f4xx_ll_usb.c ****   (void)USB_DisableGlobalInt(USBx);
 3812              		.loc 1 1940 0
 3813 0006 FFF7FEFF 		bl	USB_DisableGlobalInt
 3814              	.LVL385:
1941:Drivers/STM32F4xx_HAL_Driver/Src/stm32f4xx_ll_usb.c **** 
1942:Drivers/STM32F4xx_HAL_Driver/Src/stm32f4xx_ll_usb.c ****   /* Flush FIFO */
1943:Drivers/STM32F4xx_HAL_Driver/Src/stm32f4xx_ll_usb.c ****   (void)USB_FlushTxFifo(USBx, 0x10U);
 3815              		.loc 1 1943 0
 3816 000a 1021     		movs	r1, #16
 3817 000c 2846     		mov	r0, r5
 3818 000e FFF7FEFF 		bl	USB_FlushTxFifo
 3819              	.LVL386:
1944:Drivers/STM32F4xx_HAL_Driver/Src/stm32f4xx_ll_usb.c ****   (void)USB_FlushRxFifo(USBx);
 3820              		.loc 1 1944 0
 3821 0012 2846     		mov	r0, r5
 3822 0014 FFF7FEFF 		bl	USB_FlushRxFifo
 3823              	.LVL387:
1945:Drivers/STM32F4xx_HAL_Driver/Src/stm32f4xx_ll_usb.c **** 
1946:Drivers/STM32F4xx_HAL_Driver/Src/stm32f4xx_ll_usb.c ****   /* Flush out any leftover queued requests. */
1947:Drivers/STM32F4xx_HAL_Driver/Src/stm32f4xx_ll_usb.c ****   for (i = 0U; i <= 15U; i++)
 3824              		.loc 1 1947 0
 3825 0018 0022     		movs	r2, #0
 3826 001a 0AE0     		b	.L298
 3827              	.LVL388:
 3828              	.L299:
1948:Drivers/STM32F4xx_HAL_Driver/Src/stm32f4xx_ll_usb.c ****   {
1949:Drivers/STM32F4xx_HAL_Driver/Src/stm32f4xx_ll_usb.c ****     value = USBx_HC(i)->HCCHAR;
 3829              		.loc 1 1949 0 discriminator 3
 3830 001c 04EB4211 		add	r1, r4, r2, lsl #5
 3831 0020 D1F80035 		ldr	r3, [r1, #1280]
 3832              	.LVL389:
 3833 0024 23F08023 		bic	r3, r3, #-2147450880
 3834              	.LVL390:
1950:Drivers/STM32F4xx_HAL_Driver/Src/stm32f4xx_ll_usb.c ****     value |=  USB_OTG_HCCHAR_CHDIS;
1951:Drivers/STM32F4xx_HAL_Driver/Src/stm32f4xx_ll_usb.c ****     value &= ~USB_OTG_HCCHAR_CHENA;
1952:Drivers/STM32F4xx_HAL_Driver/Src/stm32f4xx_ll_usb.c ****     value &= ~USB_OTG_HCCHAR_EPDIR;
 3835              		.loc 1 1952 0 discriminator 3
 3836 0028 43F08043 		orr	r3, r3, #1073741824
 3837              	.LVL391:
1953:Drivers/STM32F4xx_HAL_Driver/Src/stm32f4xx_ll_usb.c ****     USBx_HC(i)->HCCHAR = value;
 3838              		.loc 1 1953 0 discriminator 3
 3839 002c C1F80035 		str	r3, [r1, #1280]
1947:Drivers/STM32F4xx_HAL_Driver/Src/stm32f4xx_ll_usb.c ****   {
 3840              		.loc 1 1947 0 discriminator 3
 3841 0030 0132     		adds	r2, r2, #1
 3842              	.LVL392:
 3843              	.L298:
ARM GAS  /tmp/ccag9PFX.s 			page 110


1947:Drivers/STM32F4xx_HAL_Driver/Src/stm32f4xx_ll_usb.c ****   {
 3844              		.loc 1 1947 0 is_stmt 0 discriminator 1
 3845 0032 0F2A     		cmp	r2, #15
 3846 0034 F2D9     		bls	.L299
1954:Drivers/STM32F4xx_HAL_Driver/Src/stm32f4xx_ll_usb.c ****   }
1955:Drivers/STM32F4xx_HAL_Driver/Src/stm32f4xx_ll_usb.c **** 
1956:Drivers/STM32F4xx_HAL_Driver/Src/stm32f4xx_ll_usb.c ****   /* Halt all channels to put them into a known state. */
1957:Drivers/STM32F4xx_HAL_Driver/Src/stm32f4xx_ll_usb.c ****   for (i = 0U; i <= 15U; i++)
 3847              		.loc 1 1957 0 is_stmt 1
 3848 0036 0020     		movs	r0, #0
1935:Drivers/STM32F4xx_HAL_Driver/Src/stm32f4xx_ll_usb.c ****   uint32_t value;
 3849              		.loc 1 1935 0
 3850 0038 0346     		mov	r3, r0
 3851 003a 00E0     		b	.L300
 3852              	.LVL393:
 3853              	.L301:
 3854              		.loc 1 1957 0 discriminator 2
 3855 003c 0130     		adds	r0, r0, #1
 3856              	.LVL394:
 3857              	.L300:
 3858              		.loc 1 1957 0 is_stmt 0 discriminator 1
 3859 003e 0F28     		cmp	r0, #15
 3860 0040 13D8     		bhi	.L305
1958:Drivers/STM32F4xx_HAL_Driver/Src/stm32f4xx_ll_usb.c ****   {
1959:Drivers/STM32F4xx_HAL_Driver/Src/stm32f4xx_ll_usb.c ****     value = USBx_HC(i)->HCCHAR;
 3861              		.loc 1 1959 0 is_stmt 1
 3862 0042 04EB4016 		add	r6, r4, r0, lsl #5
 3863 0046 06F5A061 		add	r1, r6, #1280
 3864 004a D6F80025 		ldr	r2, [r6, #1280]
 3865              	.LVL395:
 3866 004e 22F40042 		bic	r2, r2, #32768
 3867              	.LVL396:
1960:Drivers/STM32F4xx_HAL_Driver/Src/stm32f4xx_ll_usb.c ****     value |= USB_OTG_HCCHAR_CHDIS;
1961:Drivers/STM32F4xx_HAL_Driver/Src/stm32f4xx_ll_usb.c ****     value |= USB_OTG_HCCHAR_CHENA;
1962:Drivers/STM32F4xx_HAL_Driver/Src/stm32f4xx_ll_usb.c ****     value &= ~USB_OTG_HCCHAR_EPDIR;
 3868              		.loc 1 1962 0
 3869 0052 42F04042 		orr	r2, r2, #-1073741824
 3870              	.LVL397:
1963:Drivers/STM32F4xx_HAL_Driver/Src/stm32f4xx_ll_usb.c ****     USBx_HC(i)->HCCHAR = value;
 3871              		.loc 1 1963 0
 3872 0056 C6F80025 		str	r2, [r6, #1280]
 3873              	.LVL398:
 3874              	.L302:
1964:Drivers/STM32F4xx_HAL_Driver/Src/stm32f4xx_ll_usb.c **** 
1965:Drivers/STM32F4xx_HAL_Driver/Src/stm32f4xx_ll_usb.c ****     do
1966:Drivers/STM32F4xx_HAL_Driver/Src/stm32f4xx_ll_usb.c ****     {
1967:Drivers/STM32F4xx_HAL_Driver/Src/stm32f4xx_ll_usb.c ****       if (++count > 1000U)
 3875              		.loc 1 1967 0
 3876 005a 0133     		adds	r3, r3, #1
 3877              	.LVL399:
 3878 005c B3F57A7F 		cmp	r3, #1000
 3879 0060 ECD8     		bhi	.L301
1968:Drivers/STM32F4xx_HAL_Driver/Src/stm32f4xx_ll_usb.c ****       {
1969:Drivers/STM32F4xx_HAL_Driver/Src/stm32f4xx_ll_usb.c ****         break;
1970:Drivers/STM32F4xx_HAL_Driver/Src/stm32f4xx_ll_usb.c ****       }
1971:Drivers/STM32F4xx_HAL_Driver/Src/stm32f4xx_ll_usb.c ****     }
1972:Drivers/STM32F4xx_HAL_Driver/Src/stm32f4xx_ll_usb.c ****     while ((USBx_HC(i)->HCCHAR & USB_OTG_HCCHAR_CHENA) == USB_OTG_HCCHAR_CHENA);
ARM GAS  /tmp/ccag9PFX.s 			page 111


 3880              		.loc 1 1972 0
 3881 0062 0A68     		ldr	r2, [r1]
 3882 0064 002A     		cmp	r2, #0
 3883 0066 F8DB     		blt	.L302
 3884 0068 E8E7     		b	.L301
 3885              	.LVL400:
 3886              	.L305:
1973:Drivers/STM32F4xx_HAL_Driver/Src/stm32f4xx_ll_usb.c ****   }
1974:Drivers/STM32F4xx_HAL_Driver/Src/stm32f4xx_ll_usb.c **** 
1975:Drivers/STM32F4xx_HAL_Driver/Src/stm32f4xx_ll_usb.c ****   /* Clear any pending Host interrupts */
1976:Drivers/STM32F4xx_HAL_Driver/Src/stm32f4xx_ll_usb.c ****   USBx_HOST->HAINT = 0xFFFFFFFFU;
 3887              		.loc 1 1976 0
 3888 006a 4FF0FF33 		mov	r3, #-1
 3889              	.LVL401:
 3890 006e C5F81434 		str	r3, [r5, #1044]
1977:Drivers/STM32F4xx_HAL_Driver/Src/stm32f4xx_ll_usb.c ****   USBx->GINTSTS = 0xFFFFFFFFU;
 3891              		.loc 1 1977 0
 3892 0072 6B61     		str	r3, [r5, #20]
1978:Drivers/STM32F4xx_HAL_Driver/Src/stm32f4xx_ll_usb.c ****   (void)USB_EnableGlobalInt(USBx);
 3893              		.loc 1 1978 0
 3894 0074 2846     		mov	r0, r5
 3895              	.LVL402:
 3896 0076 FFF7FEFF 		bl	USB_EnableGlobalInt
 3897              	.LVL403:
1979:Drivers/STM32F4xx_HAL_Driver/Src/stm32f4xx_ll_usb.c **** 
1980:Drivers/STM32F4xx_HAL_Driver/Src/stm32f4xx_ll_usb.c ****   return HAL_OK;
1981:Drivers/STM32F4xx_HAL_Driver/Src/stm32f4xx_ll_usb.c **** }
 3898              		.loc 1 1981 0
 3899 007a 0020     		movs	r0, #0
 3900 007c 70BD     		pop	{r4, r5, r6, pc}
 3901              		.cfi_endproc
 3902              	.LFE175:
 3904              		.section	.text.USB_ActivateRemoteWakeup,"ax",%progbits
 3905              		.align	1
 3906              		.global	USB_ActivateRemoteWakeup
 3907              		.syntax unified
 3908              		.thumb
 3909              		.thumb_func
 3910              		.fpu fpv4-sp-d16
 3912              	USB_ActivateRemoteWakeup:
 3913              	.LFB176:
1982:Drivers/STM32F4xx_HAL_Driver/Src/stm32f4xx_ll_usb.c **** 
1983:Drivers/STM32F4xx_HAL_Driver/Src/stm32f4xx_ll_usb.c **** /**
1984:Drivers/STM32F4xx_HAL_Driver/Src/stm32f4xx_ll_usb.c ****   * @brief  USB_ActivateRemoteWakeup active remote wakeup signalling
1985:Drivers/STM32F4xx_HAL_Driver/Src/stm32f4xx_ll_usb.c ****   * @param  USBx Selected device
1986:Drivers/STM32F4xx_HAL_Driver/Src/stm32f4xx_ll_usb.c ****   * @retval HAL status
1987:Drivers/STM32F4xx_HAL_Driver/Src/stm32f4xx_ll_usb.c ****   */
1988:Drivers/STM32F4xx_HAL_Driver/Src/stm32f4xx_ll_usb.c **** HAL_StatusTypeDef USB_ActivateRemoteWakeup(USB_OTG_GlobalTypeDef *USBx)
1989:Drivers/STM32F4xx_HAL_Driver/Src/stm32f4xx_ll_usb.c **** {
 3914              		.loc 1 1989 0
 3915              		.cfi_startproc
 3916              		@ args = 0, pretend = 0, frame = 0
 3917              		@ frame_needed = 0, uses_anonymous_args = 0
 3918              		@ link register save eliminated.
 3919              	.LVL404:
1990:Drivers/STM32F4xx_HAL_Driver/Src/stm32f4xx_ll_usb.c ****   uint32_t USBx_BASE = (uint32_t)USBx;
1991:Drivers/STM32F4xx_HAL_Driver/Src/stm32f4xx_ll_usb.c **** 
ARM GAS  /tmp/ccag9PFX.s 			page 112


1992:Drivers/STM32F4xx_HAL_Driver/Src/stm32f4xx_ll_usb.c ****   if ((USBx_DEVICE->DSTS & USB_OTG_DSTS_SUSPSTS) == USB_OTG_DSTS_SUSPSTS)
 3920              		.loc 1 1992 0
 3921 0000 D0F80838 		ldr	r3, [r0, #2056]
 3922 0004 00F50060 		add	r0, r0, #2048
 3923              	.LVL405:
 3924 0008 13F0010F 		tst	r3, #1
 3925 000c 03D0     		beq	.L307
1993:Drivers/STM32F4xx_HAL_Driver/Src/stm32f4xx_ll_usb.c ****   {
1994:Drivers/STM32F4xx_HAL_Driver/Src/stm32f4xx_ll_usb.c ****     /* active Remote wakeup signalling */
1995:Drivers/STM32F4xx_HAL_Driver/Src/stm32f4xx_ll_usb.c ****     USBx_DEVICE->DCTL |= USB_OTG_DCTL_RWUSIG;
 3926              		.loc 1 1995 0
 3927 000e 4368     		ldr	r3, [r0, #4]
 3928 0010 43F00103 		orr	r3, r3, #1
 3929 0014 4360     		str	r3, [r0, #4]
 3930              	.L307:
1996:Drivers/STM32F4xx_HAL_Driver/Src/stm32f4xx_ll_usb.c ****   }
1997:Drivers/STM32F4xx_HAL_Driver/Src/stm32f4xx_ll_usb.c **** 
1998:Drivers/STM32F4xx_HAL_Driver/Src/stm32f4xx_ll_usb.c ****   return HAL_OK;
1999:Drivers/STM32F4xx_HAL_Driver/Src/stm32f4xx_ll_usb.c **** }
 3931              		.loc 1 1999 0
 3932 0016 0020     		movs	r0, #0
 3933              	.LVL406:
 3934 0018 7047     		bx	lr
 3935              		.cfi_endproc
 3936              	.LFE176:
 3938              		.section	.text.USB_DeActivateRemoteWakeup,"ax",%progbits
 3939              		.align	1
 3940              		.global	USB_DeActivateRemoteWakeup
 3941              		.syntax unified
 3942              		.thumb
 3943              		.thumb_func
 3944              		.fpu fpv4-sp-d16
 3946              	USB_DeActivateRemoteWakeup:
 3947              	.LFB177:
2000:Drivers/STM32F4xx_HAL_Driver/Src/stm32f4xx_ll_usb.c **** 
2001:Drivers/STM32F4xx_HAL_Driver/Src/stm32f4xx_ll_usb.c **** /**
2002:Drivers/STM32F4xx_HAL_Driver/Src/stm32f4xx_ll_usb.c ****   * @brief  USB_DeActivateRemoteWakeup de-active remote wakeup signalling
2003:Drivers/STM32F4xx_HAL_Driver/Src/stm32f4xx_ll_usb.c ****   * @param  USBx Selected device
2004:Drivers/STM32F4xx_HAL_Driver/Src/stm32f4xx_ll_usb.c ****   * @retval HAL status
2005:Drivers/STM32F4xx_HAL_Driver/Src/stm32f4xx_ll_usb.c ****   */
2006:Drivers/STM32F4xx_HAL_Driver/Src/stm32f4xx_ll_usb.c **** HAL_StatusTypeDef USB_DeActivateRemoteWakeup(USB_OTG_GlobalTypeDef *USBx)
2007:Drivers/STM32F4xx_HAL_Driver/Src/stm32f4xx_ll_usb.c **** {
 3948              		.loc 1 2007 0
 3949              		.cfi_startproc
 3950              		@ args = 0, pretend = 0, frame = 0
 3951              		@ frame_needed = 0, uses_anonymous_args = 0
 3952              		@ link register save eliminated.
 3953              	.LVL407:
2008:Drivers/STM32F4xx_HAL_Driver/Src/stm32f4xx_ll_usb.c ****   uint32_t USBx_BASE = (uint32_t)USBx;
2009:Drivers/STM32F4xx_HAL_Driver/Src/stm32f4xx_ll_usb.c **** 
2010:Drivers/STM32F4xx_HAL_Driver/Src/stm32f4xx_ll_usb.c ****   /* active Remote wakeup signalling */
2011:Drivers/STM32F4xx_HAL_Driver/Src/stm32f4xx_ll_usb.c ****   USBx_DEVICE->DCTL &= ~(USB_OTG_DCTL_RWUSIG);
 3954              		.loc 1 2011 0
 3955 0000 D0F80438 		ldr	r3, [r0, #2052]
 3956 0004 23F00103 		bic	r3, r3, #1
 3957 0008 C0F80438 		str	r3, [r0, #2052]
2012:Drivers/STM32F4xx_HAL_Driver/Src/stm32f4xx_ll_usb.c **** 
ARM GAS  /tmp/ccag9PFX.s 			page 113


2013:Drivers/STM32F4xx_HAL_Driver/Src/stm32f4xx_ll_usb.c ****   return HAL_OK;
2014:Drivers/STM32F4xx_HAL_Driver/Src/stm32f4xx_ll_usb.c **** }
 3958              		.loc 1 2014 0
 3959 000c 0020     		movs	r0, #0
 3960              	.LVL408:
 3961 000e 7047     		bx	lr
 3962              		.cfi_endproc
 3963              	.LFE177:
 3965              		.section	.bss.tmpreg.8004,"aw",%nobits
 3966              		.align	2
 3967              		.set	.LANCHOR0,. + 0
 3970              	tmpreg.8004:
 3971 0000 00000000 		.space	4
 3972              		.text
 3973              	.Letext0:
 3974              		.file 2 "/usr/arm-none-eabi/include/machine/_default_types.h"
 3975              		.file 3 "/usr/arm-none-eabi/include/sys/_stdint.h"
 3976              		.file 4 "Drivers/CMSIS/Include/cmsis_gcc.h"
 3977              		.file 5 "Drivers/CMSIS/Include/core_cm4.h"
 3978              		.file 6 "Drivers/CMSIS/Device/ST/STM32F4xx/Include/system_stm32f4xx.h"
 3979              		.file 7 "Drivers/CMSIS/Device/ST/STM32F4xx/Include/stm32f407xx.h"
 3980              		.file 8 "Drivers/STM32F4xx_HAL_Driver/Inc/stm32f4xx_hal_def.h"
 3981              		.file 9 "Drivers/STM32F4xx_HAL_Driver/Inc/stm32f4xx_ll_usb.h"
 3982              		.file 10 "Drivers/STM32F4xx_HAL_Driver/Inc/stm32f4xx_hal.h"
ARM GAS  /tmp/ccag9PFX.s 			page 114


DEFINED SYMBOLS
                            *ABS*:0000000000000000 stm32f4xx_ll_usb.c
     /tmp/ccag9PFX.s:18     .text.USB_CoreReset:0000000000000000 $t
     /tmp/ccag9PFX.s:24     .text.USB_CoreReset:0000000000000000 USB_CoreReset
     /tmp/ccag9PFX.s:86     .text.USB_CoreReset:0000000000000038 $d
     /tmp/ccag9PFX.s:91     .text.USB_CoreInit:0000000000000000 $t
     /tmp/ccag9PFX.s:98     .text.USB_CoreInit:0000000000000000 USB_CoreInit
     /tmp/ccag9PFX.s:207    .text.USB_SetTurnaroundTime:0000000000000000 $t
     /tmp/ccag9PFX.s:214    .text.USB_SetTurnaroundTime:0000000000000000 USB_SetTurnaroundTime
     /tmp/ccag9PFX.s:364    .text.USB_SetTurnaroundTime:00000000000000c4 $d
     /tmp/ccag9PFX.s:378    .text.USB_EnableGlobalInt:0000000000000000 $t
     /tmp/ccag9PFX.s:385    .text.USB_EnableGlobalInt:0000000000000000 USB_EnableGlobalInt
     /tmp/ccag9PFX.s:405    .text.USB_DisableGlobalInt:0000000000000000 $t
     /tmp/ccag9PFX.s:412    .text.USB_DisableGlobalInt:0000000000000000 USB_DisableGlobalInt
     /tmp/ccag9PFX.s:432    .text.USB_SetCurrentMode:0000000000000000 $t
     /tmp/ccag9PFX.s:439    .text.USB_SetCurrentMode:0000000000000000 USB_SetCurrentMode
     /tmp/ccag9PFX.s:491    .text.USB_FlushTxFifo:0000000000000000 $t
     /tmp/ccag9PFX.s:498    .text.USB_FlushTxFifo:0000000000000000 USB_FlushTxFifo
     /tmp/ccag9PFX.s:539    .text.USB_FlushTxFifo:0000000000000024 $d
     /tmp/ccag9PFX.s:544    .text.USB_FlushRxFifo:0000000000000000 $t
     /tmp/ccag9PFX.s:551    .text.USB_FlushRxFifo:0000000000000000 USB_FlushRxFifo
     /tmp/ccag9PFX.s:590    .text.USB_FlushRxFifo:0000000000000020 $d
     /tmp/ccag9PFX.s:595    .text.USB_SetDevSpeed:0000000000000000 $t
     /tmp/ccag9PFX.s:602    .text.USB_SetDevSpeed:0000000000000000 USB_SetDevSpeed
     /tmp/ccag9PFX.s:623    .text.USB_DevInit:0000000000000000 $t
     /tmp/ccag9PFX.s:630    .text.USB_DevInit:0000000000000000 USB_DevInit
     /tmp/ccag9PFX.s:925    .text.USB_DevInit:0000000000000198 $d
     /tmp/ccag9PFX.s:931    .text.USB_GetDevSpeed:0000000000000000 $t
     /tmp/ccag9PFX.s:938    .text.USB_GetDevSpeed:0000000000000000 USB_GetDevSpeed
     /tmp/ccag9PFX.s:986    .text.USB_ActivateEndpoint:0000000000000000 $t
     /tmp/ccag9PFX.s:993    .text.USB_ActivateEndpoint:0000000000000000 USB_ActivateEndpoint
     /tmp/ccag9PFX.s:1092   .text.USB_ActivateDedicatedEndpoint:0000000000000000 $t
     /tmp/ccag9PFX.s:1099   .text.USB_ActivateDedicatedEndpoint:0000000000000000 USB_ActivateDedicatedEndpoint
     /tmp/ccag9PFX.s:1205   .text.USB_DeactivateEndpoint:0000000000000000 $t
     /tmp/ccag9PFX.s:1212   .text.USB_DeactivateEndpoint:0000000000000000 USB_DeactivateEndpoint
     /tmp/ccag9PFX.s:1300   .text.USB_DeactivateEndpoint:0000000000000088 $d
     /tmp/ccag9PFX.s:1306   .text.USB_DeactivateDedicatedEndpoint:0000000000000000 $t
     /tmp/ccag9PFX.s:1313   .text.USB_DeactivateDedicatedEndpoint:0000000000000000 USB_DeactivateDedicatedEndpoint
     /tmp/ccag9PFX.s:1373   .text.USB_EP0StartXfer:0000000000000000 $t
     /tmp/ccag9PFX.s:1380   .text.USB_EP0StartXfer:0000000000000000 USB_EP0StartXfer
     /tmp/ccag9PFX.s:1566   .text.USB_WritePacket:0000000000000000 $t
     /tmp/ccag9PFX.s:1573   .text.USB_WritePacket:0000000000000000 USB_WritePacket
     /tmp/ccag9PFX.s:1631   .text.USB_EPStartXfer:0000000000000000 $t
     /tmp/ccag9PFX.s:1638   .text.USB_EPStartXfer:0000000000000000 USB_EPStartXfer
     /tmp/ccag9PFX.s:1939   .text.USB_EPStartXfer:0000000000000218 $d
     /tmp/ccag9PFX.s:1944   .text.USB_ReadPacket:0000000000000000 $t
     /tmp/ccag9PFX.s:1951   .text.USB_ReadPacket:0000000000000000 USB_ReadPacket
     /tmp/ccag9PFX.s:2003   .text.USB_EPSetStall:0000000000000000 $t
     /tmp/ccag9PFX.s:2010   .text.USB_EPSetStall:0000000000000000 USB_EPSetStall
     /tmp/ccag9PFX.s:2074   .text.USB_EPClearStall:0000000000000000 $t
     /tmp/ccag9PFX.s:2081   .text.USB_EPClearStall:0000000000000000 USB_EPClearStall
     /tmp/ccag9PFX.s:2145   .text.USB_StopDevice:0000000000000000 $t
     /tmp/ccag9PFX.s:2152   .text.USB_StopDevice:0000000000000000 USB_StopDevice
     /tmp/ccag9PFX.s:2224   .text.USB_SetDevAddress:0000000000000000 $t
     /tmp/ccag9PFX.s:2231   .text.USB_SetDevAddress:0000000000000000 USB_SetDevAddress
     /tmp/ccag9PFX.s:2258   .text.USB_DevConnect:0000000000000000 $t
     /tmp/ccag9PFX.s:2265   .text.USB_DevConnect:0000000000000000 USB_DevConnect
ARM GAS  /tmp/ccag9PFX.s 			page 115


     /tmp/ccag9PFX.s:2294   .text.USB_DevDisconnect:0000000000000000 $t
     /tmp/ccag9PFX.s:2301   .text.USB_DevDisconnect:0000000000000000 USB_DevDisconnect
     /tmp/ccag9PFX.s:2330   .text.USB_ReadInterrupts:0000000000000000 $t
     /tmp/ccag9PFX.s:2337   .text.USB_ReadInterrupts:0000000000000000 USB_ReadInterrupts
     /tmp/ccag9PFX.s:2359   .text.USB_ReadDevAllOutEpInterrupt:0000000000000000 $t
     /tmp/ccag9PFX.s:2366   .text.USB_ReadDevAllOutEpInterrupt:0000000000000000 USB_ReadDevAllOutEpInterrupt
     /tmp/ccag9PFX.s:2391   .text.USB_ReadDevAllInEpInterrupt:0000000000000000 $t
     /tmp/ccag9PFX.s:2398   .text.USB_ReadDevAllInEpInterrupt:0000000000000000 USB_ReadDevAllInEpInterrupt
     /tmp/ccag9PFX.s:2423   .text.USB_ReadDevOutEPInterrupt:0000000000000000 $t
     /tmp/ccag9PFX.s:2430   .text.USB_ReadDevOutEPInterrupt:0000000000000000 USB_ReadDevOutEPInterrupt
     /tmp/ccag9PFX.s:2456   .text.USB_ReadDevInEPInterrupt:0000000000000000 $t
     /tmp/ccag9PFX.s:2463   .text.USB_ReadDevInEPInterrupt:0000000000000000 USB_ReadDevInEPInterrupt
     /tmp/ccag9PFX.s:2508   .text.USB_ClearInterrupts:0000000000000000 $t
     /tmp/ccag9PFX.s:2515   .text.USB_ClearInterrupts:0000000000000000 USB_ClearInterrupts
     /tmp/ccag9PFX.s:2534   .text.USB_GetMode:0000000000000000 $t
     /tmp/ccag9PFX.s:2541   .text.USB_GetMode:0000000000000000 USB_GetMode
     /tmp/ccag9PFX.s:2559   .text.USB_ActivateSetup:0000000000000000 $t
     /tmp/ccag9PFX.s:2566   .text.USB_ActivateSetup:0000000000000000 USB_ActivateSetup
     /tmp/ccag9PFX.s:2605   .text.USB_EP0_OutStart:0000000000000000 $t
     /tmp/ccag9PFX.s:2612   .text.USB_EP0_OutStart:0000000000000000 USB_EP0_OutStart
     /tmp/ccag9PFX.s:2680   .text.USB_EP0_OutStart:000000000000005c $d
     /tmp/ccag9PFX.s:2685   .text.USB_InitFSLSPClkSel:0000000000000000 $t
     /tmp/ccag9PFX.s:2692   .text.USB_InitFSLSPClkSel:0000000000000000 USB_InitFSLSPClkSel
     /tmp/ccag9PFX.s:2749   .text.USB_ResetPort:0000000000000000 $t
     /tmp/ccag9PFX.s:2756   .text.USB_ResetPort:0000000000000000 USB_ResetPort
     /tmp/ccag9PFX.s:2812   .text.USB_DriveVbus:0000000000000000 $t
     /tmp/ccag9PFX.s:2819   .text.USB_DriveVbus:0000000000000000 USB_DriveVbus
     /tmp/ccag9PFX.s:2882   .text.USB_HostInit:0000000000000000 $t
     /tmp/ccag9PFX.s:2889   .text.USB_HostInit:0000000000000000 USB_HostInit
     /tmp/ccag9PFX.s:3056   .text.USB_HostInit:00000000000000f0 $d
     /tmp/ccag9PFX.s:3063   .text.USB_GetHostSpeed:0000000000000000 $t
     /tmp/ccag9PFX.s:3070   .text.USB_GetHostSpeed:0000000000000000 USB_GetHostSpeed
     /tmp/ccag9PFX.s:3102   .text.USB_GetCurrentFrame:0000000000000000 $t
     /tmp/ccag9PFX.s:3109   .text.USB_GetCurrentFrame:0000000000000000 USB_GetCurrentFrame
     /tmp/ccag9PFX.s:3129   .text.USB_HC_Init:0000000000000000 $t
     /tmp/ccag9PFX.s:3136   .text.USB_HC_Init:0000000000000000 USB_HC_Init
     /tmp/ccag9PFX.s:3165   .text.USB_HC_Init:000000000000001e $d
     /tmp/ccag9PFX.s:3169   .text.USB_HC_Init:0000000000000022 $t
     /tmp/ccag9PFX.s:3323   .text.USB_HC_ReadInterrupt:0000000000000000 $t
     /tmp/ccag9PFX.s:3330   .text.USB_HC_ReadInterrupt:0000000000000000 USB_HC_ReadInterrupt
     /tmp/ccag9PFX.s:3350   .text.USB_HC_Halt:0000000000000000 $t
     /tmp/ccag9PFX.s:3357   .text.USB_HC_Halt:0000000000000000 USB_HC_Halt
     /tmp/ccag9PFX.s:3483   .text.USB_DoPing:0000000000000000 $t
     /tmp/ccag9PFX.s:3490   .text.USB_DoPing:0000000000000000 USB_DoPing
     /tmp/ccag9PFX.s:3521   .text.USB_DoPing:0000000000000020 $d
     /tmp/ccag9PFX.s:3526   .text.USB_HC_StartXfer:0000000000000000 $t
     /tmp/ccag9PFX.s:3533   .text.USB_HC_StartXfer:0000000000000000 USB_HC_StartXfer
     /tmp/ccag9PFX.s:3708   .text.USB_HC_StartXfer:00000000000000fc $d
     /tmp/ccag9PFX.s:3713   .text.USB_HC_StartXfer:0000000000000100 $t
     /tmp/ccag9PFX.s:3781   .text.USB_HC_StartXfer:0000000000000150 $d
     /tmp/ccag9PFX.s:3787   .text.USB_StopHost:0000000000000000 $t
     /tmp/ccag9PFX.s:3794   .text.USB_StopHost:0000000000000000 USB_StopHost
     /tmp/ccag9PFX.s:3905   .text.USB_ActivateRemoteWakeup:0000000000000000 $t
     /tmp/ccag9PFX.s:3912   .text.USB_ActivateRemoteWakeup:0000000000000000 USB_ActivateRemoteWakeup
     /tmp/ccag9PFX.s:3939   .text.USB_DeActivateRemoteWakeup:0000000000000000 $t
     /tmp/ccag9PFX.s:3946   .text.USB_DeActivateRemoteWakeup:0000000000000000 USB_DeActivateRemoteWakeup
     /tmp/ccag9PFX.s:3966   .bss.tmpreg.8004:0000000000000000 $d
ARM GAS  /tmp/ccag9PFX.s 			page 116


     /tmp/ccag9PFX.s:3970   .bss.tmpreg.8004:0000000000000000 tmpreg.8004

UNDEFINED SYMBOLS
HAL_Delay
