ARM GAS  /tmp/ccbZIILP.s 			page 1


   1              		.cpu cortex-m4
   2              		.eabi_attribute 27, 1
   3              		.eabi_attribute 28, 1
   4              		.eabi_attribute 20, 1
   5              		.eabi_attribute 21, 1
   6              		.eabi_attribute 23, 3
   7              		.eabi_attribute 24, 1
   8              		.eabi_attribute 25, 1
   9              		.eabi_attribute 26, 1
  10              		.eabi_attribute 30, 1
  11              		.eabi_attribute 34, 1
  12              		.eabi_attribute 18, 4
  13              		.file	"sump.c"
  14              		.text
  15              	.Ltext0:
  16              		.cfi_sections	.debug_frame
  17              		.section	.text.SumpProcessRequest,"ax",%progbits
  18              		.align	1
  19              		.global	SumpProcessRequest
  20              		.syntax unified
  21              		.thumb
  22              		.thumb_func
  23              		.fpu fpv4-sp-d16
  25              	SumpProcessRequest:
  26              	.LFB133:
  27              		.file 1 "la/sump.c"
   1:la/sump.c     **** #include "sump.h"
   2:la/sump.c     **** #include "usbd_cdc_if.h"
   3:la/sump.c     **** 
   4:la/sump.c     **** static char metaData[]
   5:la/sump.c     ****      = {SUMP_META_NAME, 'M', 'e', 'a', 's', 'u', 'r', 'i', 'n', 'g', ' ','C', 'o', 'm', 'p', 'l', '
   6:la/sump.c     **** 		SUMP_META_FPGA_VERSION, 'N', 'o', 'F', 'P', 'G', 'A', ' ', ':', '(', 0,
   7:la/sump.c     **** 		SUMP_META_CPU_VERSION, 'V', 'e', 'r', 'y', ' ','b' ,'e', 't', 'a', 0,
   8:la/sump.c     **** 		SUMP_META_SAMPLE_RATE, BYTE4(maxSampleRate), BYTE3(maxSampleRate), BYTE2(maxSampleRate), BYTE1(ma
   9:la/sump.c     **** 		SUMP_META_SAMPLE_RAM, 0, 0, BYTE2(maxSampleMemory), BYTE1(maxSampleMemory), //24*1024 b
  10:la/sump.c     **** 		SUMP_META_PROBES_B, 8,
  11:la/sump.c     **** 		SUMP_META_PROTOCOL_B, 2,
  12:la/sump.c     **** 		SUMP_META_END
  13:la/sump.c     **** };
  14:la/sump.c     **** 
  15:la/sump.c     **** int SumpProcessRequest(uint8_t *buffer, uint16_t len)
  16:la/sump.c     **** {
  28              		.loc 1 16 0
  29              		.cfi_startproc
  30              		@ args = 0, pretend = 0, frame = 0
  31              		@ frame_needed = 0, uses_anonymous_args = 0
  32              	.LVL0:
  33 0000 08B5     		push	{r3, lr}
  34              	.LCFI0:
  35              		.cfi_def_cfa_offset 8
  36              		.cfi_offset 3, -8
  37              		.cfi_offset 14, -4
  38              	.LVL1:
  17:la/sump.c     **** 	int result = 0;
  18:la/sump.c     **** 	switch(buffer[0])
  39              		.loc 1 18 0
  40 0002 0378     		ldrb	r3, [r0]	@ zero_extendqisi2
ARM GAS  /tmp/ccbZIILP.s 			page 2


  41 0004 022B     		cmp	r3, #2
  42 0006 03D0     		beq	.L3
  43 0008 042B     		cmp	r3, #4
  44 000a 07D0     		beq	.L4
  17:la/sump.c     **** 	int result = 0;
  45              		.loc 1 17 0
  46 000c 0020     		movs	r0, #0
  47              	.LVL2:
  19:la/sump.c     **** 	{
  20:la/sump.c     **** 	case SUMP_CMD_ID://ID
  21:la/sump.c     **** 		//APP_FOPS.pIf_DataTx((uint8_t*)"1ALS", 4);
  22:la/sump.c     **** 		CDC_Transmit_FS((uint8_t*)"1ALS", 4);
  23:la/sump.c     **** 		result = 1;
  24:la/sump.c     **** 	  break;
  25:la/sump.c     **** 	case SUMP_CMD_META://Query metas
  26:la/sump.c     **** 		//APP_FOPS.pIf_DataTx((uint8_t*)metaData, sizeof(metaData));
  27:la/sump.c     **** 		CDC_Transmit_FS((uint8_t*)metaData, sizeof(metaData));
  28:la/sump.c     **** 		result = 1;
  29:la/sump.c     **** 	  break;
  30:la/sump.c     **** 	}
  31:la/sump.c     **** 	return result;
  48              		.loc 1 31 0
  49 000e 04E0     		b	.L1
  50              	.LVL3:
  51              	.L3:
  22:la/sump.c     **** 		result = 1;
  52              		.loc 1 22 0
  53 0010 0421     		movs	r1, #4
  54              	.LVL4:
  55 0012 0548     		ldr	r0, .L8
  56              	.LVL5:
  57 0014 FFF7FEFF 		bl	CDC_Transmit_FS
  58              	.LVL6:
  23:la/sump.c     **** 	  break;
  59              		.loc 1 23 0
  60 0018 0120     		movs	r0, #1
  61              	.LVL7:
  62              	.L1:
  32:la/sump.c     **** }...
  63              		.loc 1 32 0
  64 001a 08BD     		pop	{r3, pc}
  65              	.LVL8:
  66              	.L4:
  27:la/sump.c     **** 		CDC_Transmit_FS((uint8_t*)metaData, sizeof(metaData));
  67              		.loc 1 27 0
  68 001c 3821     		movs	r1, #56
  69              	.LVL9:
  70 001e 0348     		ldr	r0, .L8+4
  71              	.LVL10:
  72 0020 FFF7FEFF 		bl	CDC_Transmit_FS
  73              	.LVL11:
  28:la/sump.c     **** 		result = 1;
  74              		.loc 1 28 0
  75 0024 0120     		movs	r0, #1
  29:la/sump.c     **** 	  break;
  76              		.loc 1 29 0
  77 0026 F8E7     		b	.L1
ARM GAS  /tmp/ccbZIILP.s 			page 3


  78              	.L9:
  79              		.align	2
  80              	.L8:
  81 0028 00000000 		.word	.LC0
  82 002c 00000000 		.word	.LANCHOR0
  83              		.cfi_endproc
  84              	.LFE133:
  86              		.section	.data.metaData,"aw",%progbits
  87              		.align	2
  88              		.set	.LANCHOR0,. + 0
  91              	metaData:
  92 0000 01       		.byte	1
  93 0001 4D       		.byte	77
  94 0002 65       		.byte	101
  95 0003 61       		.byte	97
  96 0004 73       		.byte	115
  97 0005 75       		.byte	117
  98 0006 72       		.byte	114
  99 0007 69       		.byte	105
 100 0008 6E       		.byte	110
 101 0009 67       		.byte	103
 102 000a 20       		.byte	32
 103 000b 43       		.byte	67
 104 000c 6F       		.byte	111
 105 000d 6D       		.byte	109
 106 000e 70       		.byte	112
 107 000f 6C       		.byte	108
 108 0010 65       		.byte	101
 109 0011 78       		.byte	120
 110 0012 00       		.byte	0
 111 0013 02       		.byte	2
 112 0014 4E       		.byte	78
 113 0015 6F       		.byte	111
 114 0016 46       		.byte	70
 115 0017 50       		.byte	80
 116 0018 47       		.byte	71
 117 0019 41       		.byte	65
 118 001a 20       		.byte	32
 119 001b 3A       		.byte	58
 120 001c 28       		.byte	40
 121 001d 00       		.byte	0
 122 001e 03       		.byte	3
 123 001f 56       		.byte	86
 124 0020 65       		.byte	101
 125 0021 72       		.byte	114
 126 0022 79       		.byte	121
 127 0023 20       		.byte	32
 128 0024 62       		.byte	98
 129 0025 65       		.byte	101
 130 0026 74       		.byte	116
 131 0027 61       		.byte	97
 132 0028 00       		.byte	0
 133 0029 23       		.byte	35
 134 002a 01       		.byte	1
 135 002b 31       		.byte	49
 136 002c 2D       		.byte	45
 137 002d 00       		.byte	0
ARM GAS  /tmp/ccbZIILP.s 			page 4


 138 002e 21       		.byte	33
 139 002f 00       		.byte	0
 140 0030 00       		.byte	0
 141 0031 70       		.byte	112
 142 0032 00       		.byte	0
 143 0033 40       		.byte	64
 144 0034 08       		.byte	8
 145 0035 41       		.byte	65
 146 0036 02       		.byte	2
 147 0037 00       		.byte	0
 148              		.section	.rodata.SumpProcessRequest.str1.4,"aMS",%progbits,1
 149              		.align	2
 150              	.LC0:
 151 0000 31414C53 		.ascii	"1ALS\000"
 151      00
 152              		.text
 153              	.Letext0:
 154              		.file 2 "/usr/arm-none-eabi/include/machine/_default_types.h"
 155              		.file 3 "/usr/arm-none-eabi/include/sys/_stdint.h"
 156              		.file 4 "/usr/arm-none-eabi/include/sys/lock.h"
 157              		.file 5 "/usr/arm-none-eabi/include/sys/_types.h"
 158              		.file 6 "/usr/lib/gcc/arm-none-eabi/7.3.1/include/stddef.h"
 159              		.file 7 "/usr/arm-none-eabi/include/sys/reent.h"
 160              		.file 8 "/usr/arm-none-eabi/include/stdlib.h"
 161              		.file 9 "Drivers/CMSIS/Include/core_cm4.h"
 162              		.file 10 "Drivers/CMSIS/Device/ST/STM32F4xx/Include/system_stm32f4xx.h"
 163              		.file 11 "Drivers/STM32F4xx_HAL_Driver/Inc/stm32f4xx_hal.h"
 164              		.file 12 "Middlewares/ST/STM32_USB_Device_Library/Core/Inc/usbd_def.h"
 165              		.file 13 "Middlewares/ST/STM32_USB_Device_Library/Class/CDC/Inc/usbd_cdc.h"
 166              		.file 14 "Inc/usbd_cdc_if.h"
ARM GAS  /tmp/ccbZIILP.s 			page 5


DEFINED SYMBOLS
                            *ABS*:0000000000000000 sump.c
     /tmp/ccbZIILP.s:18     .text.SumpProcessRequest:0000000000000000 $t
     /tmp/ccbZIILP.s:25     .text.SumpProcessRequest:0000000000000000 SumpProcessRequest
     /tmp/ccbZIILP.s:81     .text.SumpProcessRequest:0000000000000028 $d
     /tmp/ccbZIILP.s:87     .data.metaData:0000000000000000 $d
     /tmp/ccbZIILP.s:91     .data.metaData:0000000000000000 metaData
     /tmp/ccbZIILP.s:149    .rodata.SumpProcessRequest.str1.4:0000000000000000 $d

UNDEFINED SYMBOLS
CDC_Transmit_FS
