ARM GAS  /tmp/cciTHAML.s 			page 1


   1              		.cpu cortex-m4
   2              		.eabi_attribute 27, 1
   3              		.eabi_attribute 28, 1
   4              		.eabi_attribute 20, 1
   5              		.eabi_attribute 21, 1
   6              		.eabi_attribute 23, 3
   7              		.eabi_attribute 24, 1
   8              		.eabi_attribute 25, 1
   9              		.eabi_attribute 26, 1
  10              		.eabi_attribute 30, 6
  11              		.eabi_attribute 34, 1
  12              		.eabi_attribute 18, 4
  13              		.file	"usbd_ctlreq.c"
  14              		.text
  15              	.Ltext0:
  16              		.cfi_sections	.debug_frame
  17              		.comm	triggerMask,4,4
  18              		.comm	triggerValue,4,4
  19              		.comm	flags,2,2
  20              		.comm	period,2,2
  21              		.comm	transferSize,4,4
  22              		.section	.text.USBD_StdDevReq,"ax",%progbits
  23              		.align	1
  24              		.global	USBD_StdDevReq
  25              		.syntax unified
  26              		.thumb
  27              		.thumb_func
  28              		.fpu fpv4-sp-d16
  30              	USBD_StdDevReq:
  31              	.LFB133:
  32              		.file 1 "Middlewares/ST/STM32_USB_Device_Library/Core/Src/usbd_ctlreq.c"
   1:Middlewares/ST/STM32_USB_Device_Library/Core/Src/usbd_ctlreq.c **** /**
   2:Middlewares/ST/STM32_USB_Device_Library/Core/Src/usbd_ctlreq.c ****   ******************************************************************************
   3:Middlewares/ST/STM32_USB_Device_Library/Core/Src/usbd_ctlreq.c ****   * @file    usbd_req.c
   4:Middlewares/ST/STM32_USB_Device_Library/Core/Src/usbd_ctlreq.c ****   * @author  MCD Application Team
   5:Middlewares/ST/STM32_USB_Device_Library/Core/Src/usbd_ctlreq.c ****   * @brief   This file provides the standard USB requests following chapter 9.
   6:Middlewares/ST/STM32_USB_Device_Library/Core/Src/usbd_ctlreq.c ****   ******************************************************************************
   7:Middlewares/ST/STM32_USB_Device_Library/Core/Src/usbd_ctlreq.c ****   * @attention
   8:Middlewares/ST/STM32_USB_Device_Library/Core/Src/usbd_ctlreq.c ****   *
   9:Middlewares/ST/STM32_USB_Device_Library/Core/Src/usbd_ctlreq.c ****   * <h2><center>&copy; Copyright (c) 2015 STMicroelectronics.
  10:Middlewares/ST/STM32_USB_Device_Library/Core/Src/usbd_ctlreq.c ****   * All rights reserved.</center></h2>
  11:Middlewares/ST/STM32_USB_Device_Library/Core/Src/usbd_ctlreq.c ****   *
  12:Middlewares/ST/STM32_USB_Device_Library/Core/Src/usbd_ctlreq.c ****   * This software component is licensed by ST under Ultimate Liberty license
  13:Middlewares/ST/STM32_USB_Device_Library/Core/Src/usbd_ctlreq.c ****   * SLA0044, the "License"; You may not use this file except in compliance with
  14:Middlewares/ST/STM32_USB_Device_Library/Core/Src/usbd_ctlreq.c ****   * the License. You may obtain a copy of the License at:
  15:Middlewares/ST/STM32_USB_Device_Library/Core/Src/usbd_ctlreq.c ****   *                      http://www.st.com/SLA0044
  16:Middlewares/ST/STM32_USB_Device_Library/Core/Src/usbd_ctlreq.c ****   *
  17:Middlewares/ST/STM32_USB_Device_Library/Core/Src/usbd_ctlreq.c ****   ******************************************************************************
  18:Middlewares/ST/STM32_USB_Device_Library/Core/Src/usbd_ctlreq.c ****   */
  19:Middlewares/ST/STM32_USB_Device_Library/Core/Src/usbd_ctlreq.c **** 
  20:Middlewares/ST/STM32_USB_Device_Library/Core/Src/usbd_ctlreq.c **** /* Includes ------------------------------------------------------------------*/
  21:Middlewares/ST/STM32_USB_Device_Library/Core/Src/usbd_ctlreq.c **** #include "usbd_ctlreq.h"
  22:Middlewares/ST/STM32_USB_Device_Library/Core/Src/usbd_ctlreq.c **** #include "usbd_ioreq.h"
  23:Middlewares/ST/STM32_USB_Device_Library/Core/Src/usbd_ctlreq.c **** 
  24:Middlewares/ST/STM32_USB_Device_Library/Core/Src/usbd_ctlreq.c **** 
  25:Middlewares/ST/STM32_USB_Device_Library/Core/Src/usbd_ctlreq.c **** /** @addtogroup STM32_USBD_STATE_DEVICE_LIBRARY
  26:Middlewares/ST/STM32_USB_Device_Library/Core/Src/usbd_ctlreq.c ****   * @{
ARM GAS  /tmp/cciTHAML.s 			page 2


  27:Middlewares/ST/STM32_USB_Device_Library/Core/Src/usbd_ctlreq.c ****   */
  28:Middlewares/ST/STM32_USB_Device_Library/Core/Src/usbd_ctlreq.c **** 
  29:Middlewares/ST/STM32_USB_Device_Library/Core/Src/usbd_ctlreq.c **** 
  30:Middlewares/ST/STM32_USB_Device_Library/Core/Src/usbd_ctlreq.c **** /** @defgroup USBD_REQ
  31:Middlewares/ST/STM32_USB_Device_Library/Core/Src/usbd_ctlreq.c ****   * @brief USB standard requests module
  32:Middlewares/ST/STM32_USB_Device_Library/Core/Src/usbd_ctlreq.c ****   * @{
  33:Middlewares/ST/STM32_USB_Device_Library/Core/Src/usbd_ctlreq.c ****   */
  34:Middlewares/ST/STM32_USB_Device_Library/Core/Src/usbd_ctlreq.c **** 
  35:Middlewares/ST/STM32_USB_Device_Library/Core/Src/usbd_ctlreq.c **** /** @defgroup USBD_REQ_Private_TypesDefinitions
  36:Middlewares/ST/STM32_USB_Device_Library/Core/Src/usbd_ctlreq.c ****   * @{
  37:Middlewares/ST/STM32_USB_Device_Library/Core/Src/usbd_ctlreq.c ****   */
  38:Middlewares/ST/STM32_USB_Device_Library/Core/Src/usbd_ctlreq.c **** /**
  39:Middlewares/ST/STM32_USB_Device_Library/Core/Src/usbd_ctlreq.c ****   * @}
  40:Middlewares/ST/STM32_USB_Device_Library/Core/Src/usbd_ctlreq.c ****   */
  41:Middlewares/ST/STM32_USB_Device_Library/Core/Src/usbd_ctlreq.c **** 
  42:Middlewares/ST/STM32_USB_Device_Library/Core/Src/usbd_ctlreq.c **** 
  43:Middlewares/ST/STM32_USB_Device_Library/Core/Src/usbd_ctlreq.c **** /** @defgroup USBD_REQ_Private_Defines
  44:Middlewares/ST/STM32_USB_Device_Library/Core/Src/usbd_ctlreq.c ****   * @{
  45:Middlewares/ST/STM32_USB_Device_Library/Core/Src/usbd_ctlreq.c ****   */
  46:Middlewares/ST/STM32_USB_Device_Library/Core/Src/usbd_ctlreq.c **** 
  47:Middlewares/ST/STM32_USB_Device_Library/Core/Src/usbd_ctlreq.c **** /**
  48:Middlewares/ST/STM32_USB_Device_Library/Core/Src/usbd_ctlreq.c ****   * @}
  49:Middlewares/ST/STM32_USB_Device_Library/Core/Src/usbd_ctlreq.c ****   */
  50:Middlewares/ST/STM32_USB_Device_Library/Core/Src/usbd_ctlreq.c **** 
  51:Middlewares/ST/STM32_USB_Device_Library/Core/Src/usbd_ctlreq.c **** 
  52:Middlewares/ST/STM32_USB_Device_Library/Core/Src/usbd_ctlreq.c **** /** @defgroup USBD_REQ_Private_Macros
  53:Middlewares/ST/STM32_USB_Device_Library/Core/Src/usbd_ctlreq.c ****   * @{
  54:Middlewares/ST/STM32_USB_Device_Library/Core/Src/usbd_ctlreq.c ****   */
  55:Middlewares/ST/STM32_USB_Device_Library/Core/Src/usbd_ctlreq.c **** /**
  56:Middlewares/ST/STM32_USB_Device_Library/Core/Src/usbd_ctlreq.c ****   * @}
  57:Middlewares/ST/STM32_USB_Device_Library/Core/Src/usbd_ctlreq.c ****   */
  58:Middlewares/ST/STM32_USB_Device_Library/Core/Src/usbd_ctlreq.c **** 
  59:Middlewares/ST/STM32_USB_Device_Library/Core/Src/usbd_ctlreq.c **** 
  60:Middlewares/ST/STM32_USB_Device_Library/Core/Src/usbd_ctlreq.c **** /** @defgroup USBD_REQ_Private_Variables
  61:Middlewares/ST/STM32_USB_Device_Library/Core/Src/usbd_ctlreq.c ****   * @{
  62:Middlewares/ST/STM32_USB_Device_Library/Core/Src/usbd_ctlreq.c ****   */
  63:Middlewares/ST/STM32_USB_Device_Library/Core/Src/usbd_ctlreq.c **** /**
  64:Middlewares/ST/STM32_USB_Device_Library/Core/Src/usbd_ctlreq.c ****   * @}
  65:Middlewares/ST/STM32_USB_Device_Library/Core/Src/usbd_ctlreq.c ****   */
  66:Middlewares/ST/STM32_USB_Device_Library/Core/Src/usbd_ctlreq.c **** 
  67:Middlewares/ST/STM32_USB_Device_Library/Core/Src/usbd_ctlreq.c **** 
  68:Middlewares/ST/STM32_USB_Device_Library/Core/Src/usbd_ctlreq.c **** /** @defgroup USBD_REQ_Private_FunctionPrototypes
  69:Middlewares/ST/STM32_USB_Device_Library/Core/Src/usbd_ctlreq.c ****   * @{
  70:Middlewares/ST/STM32_USB_Device_Library/Core/Src/usbd_ctlreq.c ****   */
  71:Middlewares/ST/STM32_USB_Device_Library/Core/Src/usbd_ctlreq.c **** static void USBD_GetDescriptor(USBD_HandleTypeDef *pdev ,
  72:Middlewares/ST/STM32_USB_Device_Library/Core/Src/usbd_ctlreq.c ****                                USBD_SetupReqTypedef *req);
  73:Middlewares/ST/STM32_USB_Device_Library/Core/Src/usbd_ctlreq.c **** 
  74:Middlewares/ST/STM32_USB_Device_Library/Core/Src/usbd_ctlreq.c **** static void USBD_SetAddress(USBD_HandleTypeDef *pdev ,
  75:Middlewares/ST/STM32_USB_Device_Library/Core/Src/usbd_ctlreq.c ****                             USBD_SetupReqTypedef *req);
  76:Middlewares/ST/STM32_USB_Device_Library/Core/Src/usbd_ctlreq.c **** 
  77:Middlewares/ST/STM32_USB_Device_Library/Core/Src/usbd_ctlreq.c **** static void USBD_SetConfig(USBD_HandleTypeDef *pdev ,
  78:Middlewares/ST/STM32_USB_Device_Library/Core/Src/usbd_ctlreq.c ****                            USBD_SetupReqTypedef *req);
  79:Middlewares/ST/STM32_USB_Device_Library/Core/Src/usbd_ctlreq.c **** 
  80:Middlewares/ST/STM32_USB_Device_Library/Core/Src/usbd_ctlreq.c **** static void USBD_GetConfig(USBD_HandleTypeDef *pdev ,
  81:Middlewares/ST/STM32_USB_Device_Library/Core/Src/usbd_ctlreq.c ****                            USBD_SetupReqTypedef *req);
  82:Middlewares/ST/STM32_USB_Device_Library/Core/Src/usbd_ctlreq.c **** 
  83:Middlewares/ST/STM32_USB_Device_Library/Core/Src/usbd_ctlreq.c **** static void USBD_GetStatus(USBD_HandleTypeDef *pdev ,
ARM GAS  /tmp/cciTHAML.s 			page 3


  84:Middlewares/ST/STM32_USB_Device_Library/Core/Src/usbd_ctlreq.c ****                            USBD_SetupReqTypedef *req);
  85:Middlewares/ST/STM32_USB_Device_Library/Core/Src/usbd_ctlreq.c **** 
  86:Middlewares/ST/STM32_USB_Device_Library/Core/Src/usbd_ctlreq.c **** static void USBD_SetFeature(USBD_HandleTypeDef *pdev ,
  87:Middlewares/ST/STM32_USB_Device_Library/Core/Src/usbd_ctlreq.c ****                             USBD_SetupReqTypedef *req);
  88:Middlewares/ST/STM32_USB_Device_Library/Core/Src/usbd_ctlreq.c **** 
  89:Middlewares/ST/STM32_USB_Device_Library/Core/Src/usbd_ctlreq.c **** static void USBD_ClrFeature(USBD_HandleTypeDef *pdev ,
  90:Middlewares/ST/STM32_USB_Device_Library/Core/Src/usbd_ctlreq.c ****                             USBD_SetupReqTypedef *req);
  91:Middlewares/ST/STM32_USB_Device_Library/Core/Src/usbd_ctlreq.c **** 
  92:Middlewares/ST/STM32_USB_Device_Library/Core/Src/usbd_ctlreq.c **** static uint8_t USBD_GetLen(uint8_t *buf);
  93:Middlewares/ST/STM32_USB_Device_Library/Core/Src/usbd_ctlreq.c **** 
  94:Middlewares/ST/STM32_USB_Device_Library/Core/Src/usbd_ctlreq.c **** /**
  95:Middlewares/ST/STM32_USB_Device_Library/Core/Src/usbd_ctlreq.c ****   * @}
  96:Middlewares/ST/STM32_USB_Device_Library/Core/Src/usbd_ctlreq.c ****   */
  97:Middlewares/ST/STM32_USB_Device_Library/Core/Src/usbd_ctlreq.c **** 
  98:Middlewares/ST/STM32_USB_Device_Library/Core/Src/usbd_ctlreq.c **** 
  99:Middlewares/ST/STM32_USB_Device_Library/Core/Src/usbd_ctlreq.c **** /** @defgroup USBD_REQ_Private_Functions
 100:Middlewares/ST/STM32_USB_Device_Library/Core/Src/usbd_ctlreq.c ****   * @{
 101:Middlewares/ST/STM32_USB_Device_Library/Core/Src/usbd_ctlreq.c ****   */
 102:Middlewares/ST/STM32_USB_Device_Library/Core/Src/usbd_ctlreq.c **** 
 103:Middlewares/ST/STM32_USB_Device_Library/Core/Src/usbd_ctlreq.c **** 
 104:Middlewares/ST/STM32_USB_Device_Library/Core/Src/usbd_ctlreq.c **** /**
 105:Middlewares/ST/STM32_USB_Device_Library/Core/Src/usbd_ctlreq.c **** * @brief  USBD_StdDevReq
 106:Middlewares/ST/STM32_USB_Device_Library/Core/Src/usbd_ctlreq.c **** *         Handle standard usb device requests
 107:Middlewares/ST/STM32_USB_Device_Library/Core/Src/usbd_ctlreq.c **** * @param  pdev: device instance
 108:Middlewares/ST/STM32_USB_Device_Library/Core/Src/usbd_ctlreq.c **** * @param  req: usb request
 109:Middlewares/ST/STM32_USB_Device_Library/Core/Src/usbd_ctlreq.c **** * @retval status
 110:Middlewares/ST/STM32_USB_Device_Library/Core/Src/usbd_ctlreq.c **** */
 111:Middlewares/ST/STM32_USB_Device_Library/Core/Src/usbd_ctlreq.c **** USBD_StatusTypeDef  USBD_StdDevReq (USBD_HandleTypeDef *pdev , USBD_SetupReqTypedef  *req)
 112:Middlewares/ST/STM32_USB_Device_Library/Core/Src/usbd_ctlreq.c **** {
  33              		.loc 1 112 0
  34              		.cfi_startproc
  35              		@ args = 0, pretend = 0, frame = 16
  36              		@ frame_needed = 1, uses_anonymous_args = 0
  37 0000 80B5     		push	{r7, lr}
  38              	.LCFI0:
  39              		.cfi_def_cfa_offset 8
  40              		.cfi_offset 7, -8
  41              		.cfi_offset 14, -4
  42 0002 84B0     		sub	sp, sp, #16
  43              	.LCFI1:
  44              		.cfi_def_cfa_offset 24
  45 0004 00AF     		add	r7, sp, #0
  46              	.LCFI2:
  47              		.cfi_def_cfa_register 7
  48 0006 7860     		str	r0, [r7, #4]
  49 0008 3960     		str	r1, [r7]
 113:Middlewares/ST/STM32_USB_Device_Library/Core/Src/usbd_ctlreq.c ****   USBD_StatusTypeDef ret = USBD_OK;
  50              		.loc 1 113 0
  51 000a 0023     		movs	r3, #0
  52 000c FB73     		strb	r3, [r7, #15]
 114:Middlewares/ST/STM32_USB_Device_Library/Core/Src/usbd_ctlreq.c **** 
 115:Middlewares/ST/STM32_USB_Device_Library/Core/Src/usbd_ctlreq.c ****   switch (req->bmRequest & USB_REQ_TYPE_MASK)
  53              		.loc 1 115 0
  54 000e 3B68     		ldr	r3, [r7]
  55 0010 1B78     		ldrb	r3, [r3]	@ zero_extendqisi2
  56 0012 03F06003 		and	r3, r3, #96
  57 0016 202B     		cmp	r3, #32
ARM GAS  /tmp/cciTHAML.s 			page 4


  58 0018 04D0     		beq	.L3
  59 001a 402B     		cmp	r3, #64
  60 001c 02D0     		beq	.L3
  61 001e 002B     		cmp	r3, #0
  62 0020 08D0     		beq	.L4
  63 0022 4CE0     		b	.L17
  64              	.L3:
 116:Middlewares/ST/STM32_USB_Device_Library/Core/Src/usbd_ctlreq.c ****   {
 117:Middlewares/ST/STM32_USB_Device_Library/Core/Src/usbd_ctlreq.c ****   case USB_REQ_TYPE_CLASS:
 118:Middlewares/ST/STM32_USB_Device_Library/Core/Src/usbd_ctlreq.c ****   case USB_REQ_TYPE_VENDOR:
 119:Middlewares/ST/STM32_USB_Device_Library/Core/Src/usbd_ctlreq.c ****     pdev->pClass->Setup(pdev, req);
  65              		.loc 1 119 0
  66 0024 7B68     		ldr	r3, [r7, #4]
  67 0026 D3F88C32 		ldr	r3, [r3, #652]
  68 002a 9B68     		ldr	r3, [r3, #8]
  69 002c 3968     		ldr	r1, [r7]
  70 002e 7868     		ldr	r0, [r7, #4]
  71 0030 9847     		blx	r3
  72              	.LVL0:
 120:Middlewares/ST/STM32_USB_Device_Library/Core/Src/usbd_ctlreq.c ****     break;
  73              		.loc 1 120 0
  74 0032 49E0     		b	.L5
  75              	.L4:
 121:Middlewares/ST/STM32_USB_Device_Library/Core/Src/usbd_ctlreq.c **** 
 122:Middlewares/ST/STM32_USB_Device_Library/Core/Src/usbd_ctlreq.c ****   case USB_REQ_TYPE_STANDARD:
 123:Middlewares/ST/STM32_USB_Device_Library/Core/Src/usbd_ctlreq.c **** 
 124:Middlewares/ST/STM32_USB_Device_Library/Core/Src/usbd_ctlreq.c ****     switch (req->bRequest)
  76              		.loc 1 124 0
  77 0034 3B68     		ldr	r3, [r7]
  78 0036 5B78     		ldrb	r3, [r3, #1]	@ zero_extendqisi2
  79 0038 092B     		cmp	r3, #9
  80 003a 3AD8     		bhi	.L6
  81 003c 01A2     		adr	r2, .L8
  82 003e 52F823F0 		ldr	pc, [r2, r3, lsl #2]
  83 0042 00BF     		.p2align 2
  84              	.L8:
  85 0044 95000000 		.word	.L7+1
  86 0048 A9000000 		.word	.L9+1
  87 004c B3000000 		.word	.L6+1
  88 0050 9F000000 		.word	.L10+1
  89 0054 B3000000 		.word	.L6+1
  90 0058 77000000 		.word	.L11+1
  91 005c 6D000000 		.word	.L12+1
  92 0060 B3000000 		.word	.L6+1
  93 0064 8B000000 		.word	.L13+1
  94 0068 81000000 		.word	.L14+1
  95              		.p2align 1
  96              	.L12:
 125:Middlewares/ST/STM32_USB_Device_Library/Core/Src/usbd_ctlreq.c ****     {
 126:Middlewares/ST/STM32_USB_Device_Library/Core/Src/usbd_ctlreq.c ****     case USB_REQ_GET_DESCRIPTOR:
 127:Middlewares/ST/STM32_USB_Device_Library/Core/Src/usbd_ctlreq.c **** 
 128:Middlewares/ST/STM32_USB_Device_Library/Core/Src/usbd_ctlreq.c ****       USBD_GetDescriptor (pdev, req);
  97              		.loc 1 128 0
  98 006c 3968     		ldr	r1, [r7]
  99 006e 7868     		ldr	r0, [r7, #4]
 100 0070 FFF7FEFF 		bl	USBD_GetDescriptor
 129:Middlewares/ST/STM32_USB_Device_Library/Core/Src/usbd_ctlreq.c ****       break;
ARM GAS  /tmp/cciTHAML.s 			page 5


 101              		.loc 1 129 0
 102 0074 22E0     		b	.L15
 103              	.L11:
 130:Middlewares/ST/STM32_USB_Device_Library/Core/Src/usbd_ctlreq.c **** 
 131:Middlewares/ST/STM32_USB_Device_Library/Core/Src/usbd_ctlreq.c ****     case USB_REQ_SET_ADDRESS:
 132:Middlewares/ST/STM32_USB_Device_Library/Core/Src/usbd_ctlreq.c ****       USBD_SetAddress (pdev, req);
 104              		.loc 1 132 0
 105 0076 3968     		ldr	r1, [r7]
 106 0078 7868     		ldr	r0, [r7, #4]
 107 007a FFF7FEFF 		bl	USBD_SetAddress
 133:Middlewares/ST/STM32_USB_Device_Library/Core/Src/usbd_ctlreq.c ****       break;
 108              		.loc 1 133 0
 109 007e 1DE0     		b	.L15
 110              	.L14:
 134:Middlewares/ST/STM32_USB_Device_Library/Core/Src/usbd_ctlreq.c **** 
 135:Middlewares/ST/STM32_USB_Device_Library/Core/Src/usbd_ctlreq.c ****     case USB_REQ_SET_CONFIGURATION:
 136:Middlewares/ST/STM32_USB_Device_Library/Core/Src/usbd_ctlreq.c ****       USBD_SetConfig (pdev, req);
 111              		.loc 1 136 0
 112 0080 3968     		ldr	r1, [r7]
 113 0082 7868     		ldr	r0, [r7, #4]
 114 0084 FFF7FEFF 		bl	USBD_SetConfig
 137:Middlewares/ST/STM32_USB_Device_Library/Core/Src/usbd_ctlreq.c ****       break;
 115              		.loc 1 137 0
 116 0088 18E0     		b	.L15
 117              	.L13:
 138:Middlewares/ST/STM32_USB_Device_Library/Core/Src/usbd_ctlreq.c **** 
 139:Middlewares/ST/STM32_USB_Device_Library/Core/Src/usbd_ctlreq.c ****     case USB_REQ_GET_CONFIGURATION:
 140:Middlewares/ST/STM32_USB_Device_Library/Core/Src/usbd_ctlreq.c ****       USBD_GetConfig (pdev, req);
 118              		.loc 1 140 0
 119 008a 3968     		ldr	r1, [r7]
 120 008c 7868     		ldr	r0, [r7, #4]
 121 008e FFF7FEFF 		bl	USBD_GetConfig
 141:Middlewares/ST/STM32_USB_Device_Library/Core/Src/usbd_ctlreq.c ****       break;
 122              		.loc 1 141 0
 123 0092 13E0     		b	.L15
 124              	.L7:
 142:Middlewares/ST/STM32_USB_Device_Library/Core/Src/usbd_ctlreq.c **** 
 143:Middlewares/ST/STM32_USB_Device_Library/Core/Src/usbd_ctlreq.c ****     case USB_REQ_GET_STATUS:
 144:Middlewares/ST/STM32_USB_Device_Library/Core/Src/usbd_ctlreq.c ****       USBD_GetStatus (pdev, req);
 125              		.loc 1 144 0
 126 0094 3968     		ldr	r1, [r7]
 127 0096 7868     		ldr	r0, [r7, #4]
 128 0098 FFF7FEFF 		bl	USBD_GetStatus
 145:Middlewares/ST/STM32_USB_Device_Library/Core/Src/usbd_ctlreq.c ****       break;
 129              		.loc 1 145 0
 130 009c 0EE0     		b	.L15
 131              	.L10:
 146:Middlewares/ST/STM32_USB_Device_Library/Core/Src/usbd_ctlreq.c **** 
 147:Middlewares/ST/STM32_USB_Device_Library/Core/Src/usbd_ctlreq.c **** 
 148:Middlewares/ST/STM32_USB_Device_Library/Core/Src/usbd_ctlreq.c ****     case USB_REQ_SET_FEATURE:
 149:Middlewares/ST/STM32_USB_Device_Library/Core/Src/usbd_ctlreq.c ****       USBD_SetFeature (pdev, req);
 132              		.loc 1 149 0
 133 009e 3968     		ldr	r1, [r7]
 134 00a0 7868     		ldr	r0, [r7, #4]
 135 00a2 FFF7FEFF 		bl	USBD_SetFeature
 150:Middlewares/ST/STM32_USB_Device_Library/Core/Src/usbd_ctlreq.c ****       break;
 136              		.loc 1 150 0
ARM GAS  /tmp/cciTHAML.s 			page 6


 137 00a6 09E0     		b	.L15
 138              	.L9:
 151:Middlewares/ST/STM32_USB_Device_Library/Core/Src/usbd_ctlreq.c **** 
 152:Middlewares/ST/STM32_USB_Device_Library/Core/Src/usbd_ctlreq.c ****     case USB_REQ_CLEAR_FEATURE:
 153:Middlewares/ST/STM32_USB_Device_Library/Core/Src/usbd_ctlreq.c ****       USBD_ClrFeature (pdev, req);
 139              		.loc 1 153 0
 140 00a8 3968     		ldr	r1, [r7]
 141 00aa 7868     		ldr	r0, [r7, #4]
 142 00ac FFF7FEFF 		bl	USBD_ClrFeature
 154:Middlewares/ST/STM32_USB_Device_Library/Core/Src/usbd_ctlreq.c ****       break;
 143              		.loc 1 154 0
 144 00b0 04E0     		b	.L15
 145              	.L6:
 155:Middlewares/ST/STM32_USB_Device_Library/Core/Src/usbd_ctlreq.c **** 
 156:Middlewares/ST/STM32_USB_Device_Library/Core/Src/usbd_ctlreq.c ****     default:
 157:Middlewares/ST/STM32_USB_Device_Library/Core/Src/usbd_ctlreq.c ****       USBD_CtlError(pdev, req);
 146              		.loc 1 157 0
 147 00b2 3968     		ldr	r1, [r7]
 148 00b4 7868     		ldr	r0, [r7, #4]
 149 00b6 FFF7FEFF 		bl	USBD_CtlError
 158:Middlewares/ST/STM32_USB_Device_Library/Core/Src/usbd_ctlreq.c ****       break;
 150              		.loc 1 158 0
 151 00ba 00BF     		nop
 152              	.L15:
 159:Middlewares/ST/STM32_USB_Device_Library/Core/Src/usbd_ctlreq.c ****     }
 160:Middlewares/ST/STM32_USB_Device_Library/Core/Src/usbd_ctlreq.c ****     break;
 153              		.loc 1 160 0
 154 00bc 04E0     		b	.L5
 155              	.L17:
 161:Middlewares/ST/STM32_USB_Device_Library/Core/Src/usbd_ctlreq.c **** 
 162:Middlewares/ST/STM32_USB_Device_Library/Core/Src/usbd_ctlreq.c ****   default:
 163:Middlewares/ST/STM32_USB_Device_Library/Core/Src/usbd_ctlreq.c ****     USBD_CtlError(pdev, req);
 156              		.loc 1 163 0
 157 00be 3968     		ldr	r1, [r7]
 158 00c0 7868     		ldr	r0, [r7, #4]
 159 00c2 FFF7FEFF 		bl	USBD_CtlError
 164:Middlewares/ST/STM32_USB_Device_Library/Core/Src/usbd_ctlreq.c ****     break;
 160              		.loc 1 164 0
 161 00c6 00BF     		nop
 162              	.L5:
 165:Middlewares/ST/STM32_USB_Device_Library/Core/Src/usbd_ctlreq.c ****   }
 166:Middlewares/ST/STM32_USB_Device_Library/Core/Src/usbd_ctlreq.c **** 
 167:Middlewares/ST/STM32_USB_Device_Library/Core/Src/usbd_ctlreq.c ****   return ret;
 163              		.loc 1 167 0
 164 00c8 FB7B     		ldrb	r3, [r7, #15]	@ zero_extendqisi2
 168:Middlewares/ST/STM32_USB_Device_Library/Core/Src/usbd_ctlreq.c **** }
 165              		.loc 1 168 0
 166 00ca 1846     		mov	r0, r3
 167 00cc 1037     		adds	r7, r7, #16
 168              	.LCFI3:
 169              		.cfi_def_cfa_offset 8
 170 00ce BD46     		mov	sp, r7
 171              	.LCFI4:
 172              		.cfi_def_cfa_register 13
 173              		@ sp needed
 174 00d0 80BD     		pop	{r7, pc}
 175              		.cfi_endproc
ARM GAS  /tmp/cciTHAML.s 			page 7


 176              	.LFE133:
 178 00d2 00BF     		.section	.text.USBD_StdItfReq,"ax",%progbits
 179              		.align	1
 180              		.global	USBD_StdItfReq
 181              		.syntax unified
 182              		.thumb
 183              		.thumb_func
 184              		.fpu fpv4-sp-d16
 186              	USBD_StdItfReq:
 187              	.LFB134:
 169:Middlewares/ST/STM32_USB_Device_Library/Core/Src/usbd_ctlreq.c **** 
 170:Middlewares/ST/STM32_USB_Device_Library/Core/Src/usbd_ctlreq.c **** /**
 171:Middlewares/ST/STM32_USB_Device_Library/Core/Src/usbd_ctlreq.c **** * @brief  USBD_StdItfReq
 172:Middlewares/ST/STM32_USB_Device_Library/Core/Src/usbd_ctlreq.c **** *         Handle standard usb interface requests
 173:Middlewares/ST/STM32_USB_Device_Library/Core/Src/usbd_ctlreq.c **** * @param  pdev: device instance
 174:Middlewares/ST/STM32_USB_Device_Library/Core/Src/usbd_ctlreq.c **** * @param  req: usb request
 175:Middlewares/ST/STM32_USB_Device_Library/Core/Src/usbd_ctlreq.c **** * @retval status
 176:Middlewares/ST/STM32_USB_Device_Library/Core/Src/usbd_ctlreq.c **** */
 177:Middlewares/ST/STM32_USB_Device_Library/Core/Src/usbd_ctlreq.c **** USBD_StatusTypeDef  USBD_StdItfReq (USBD_HandleTypeDef *pdev , USBD_SetupReqTypedef  *req)
 178:Middlewares/ST/STM32_USB_Device_Library/Core/Src/usbd_ctlreq.c **** {
 188              		.loc 1 178 0
 189              		.cfi_startproc
 190              		@ args = 0, pretend = 0, frame = 16
 191              		@ frame_needed = 1, uses_anonymous_args = 0
 192 0000 80B5     		push	{r7, lr}
 193              	.LCFI5:
 194              		.cfi_def_cfa_offset 8
 195              		.cfi_offset 7, -8
 196              		.cfi_offset 14, -4
 197 0002 84B0     		sub	sp, sp, #16
 198              	.LCFI6:
 199              		.cfi_def_cfa_offset 24
 200 0004 00AF     		add	r7, sp, #0
 201              	.LCFI7:
 202              		.cfi_def_cfa_register 7
 203 0006 7860     		str	r0, [r7, #4]
 204 0008 3960     		str	r1, [r7]
 179:Middlewares/ST/STM32_USB_Device_Library/Core/Src/usbd_ctlreq.c ****   USBD_StatusTypeDef ret = USBD_OK;
 205              		.loc 1 179 0
 206 000a 0023     		movs	r3, #0
 207 000c FB73     		strb	r3, [r7, #15]
 180:Middlewares/ST/STM32_USB_Device_Library/Core/Src/usbd_ctlreq.c **** 
 181:Middlewares/ST/STM32_USB_Device_Library/Core/Src/usbd_ctlreq.c ****   switch (req->bmRequest & USB_REQ_TYPE_MASK)
 208              		.loc 1 181 0
 209 000e 3B68     		ldr	r3, [r7]
 210 0010 1B78     		ldrb	r3, [r3]	@ zero_extendqisi2
 211 0012 03F06003 		and	r3, r3, #96
 212 0016 202B     		cmp	r3, #32
 213 0018 03D0     		beq	.L20
 214 001a 402B     		cmp	r3, #64
 215 001c 01D0     		beq	.L20
 216 001e 002B     		cmp	r3, #0
 217 0020 2AD1     		bne	.L29
 218              	.L20:
 182:Middlewares/ST/STM32_USB_Device_Library/Core/Src/usbd_ctlreq.c ****   {
 183:Middlewares/ST/STM32_USB_Device_Library/Core/Src/usbd_ctlreq.c ****   case USB_REQ_TYPE_CLASS:
 184:Middlewares/ST/STM32_USB_Device_Library/Core/Src/usbd_ctlreq.c ****   case USB_REQ_TYPE_VENDOR:
ARM GAS  /tmp/cciTHAML.s 			page 8


 185:Middlewares/ST/STM32_USB_Device_Library/Core/Src/usbd_ctlreq.c ****   case USB_REQ_TYPE_STANDARD:
 186:Middlewares/ST/STM32_USB_Device_Library/Core/Src/usbd_ctlreq.c ****     switch (pdev->dev_state)
 219              		.loc 1 186 0
 220 0022 7B68     		ldr	r3, [r7, #4]
 221 0024 93F87432 		ldrb	r3, [r3, #628]	@ zero_extendqisi2
 222 0028 013B     		subs	r3, r3, #1
 223 002a 022B     		cmp	r3, #2
 224 002c 1DD8     		bhi	.L21
 187:Middlewares/ST/STM32_USB_Device_Library/Core/Src/usbd_ctlreq.c ****     {
 188:Middlewares/ST/STM32_USB_Device_Library/Core/Src/usbd_ctlreq.c ****     case USBD_STATE_DEFAULT:
 189:Middlewares/ST/STM32_USB_Device_Library/Core/Src/usbd_ctlreq.c ****     case USBD_STATE_ADDRESSED:
 190:Middlewares/ST/STM32_USB_Device_Library/Core/Src/usbd_ctlreq.c ****     case USBD_STATE_CONFIGURED:
 191:Middlewares/ST/STM32_USB_Device_Library/Core/Src/usbd_ctlreq.c **** 
 192:Middlewares/ST/STM32_USB_Device_Library/Core/Src/usbd_ctlreq.c ****       if (LOBYTE(req->wIndex) <= USBD_MAX_NUM_INTERFACES)
 225              		.loc 1 192 0
 226 002e 3B68     		ldr	r3, [r7]
 227 0030 9B88     		ldrh	r3, [r3, #4]
 228 0032 DBB2     		uxtb	r3, r3
 229 0034 012B     		cmp	r3, #1
 230 0036 13D8     		bhi	.L23
 193:Middlewares/ST/STM32_USB_Device_Library/Core/Src/usbd_ctlreq.c ****       {
 194:Middlewares/ST/STM32_USB_Device_Library/Core/Src/usbd_ctlreq.c ****         ret = (USBD_StatusTypeDef)pdev->pClass->Setup (pdev, req);
 231              		.loc 1 194 0
 232 0038 7B68     		ldr	r3, [r7, #4]
 233 003a D3F88C32 		ldr	r3, [r3, #652]
 234 003e 9B68     		ldr	r3, [r3, #8]
 235 0040 3968     		ldr	r1, [r7]
 236 0042 7868     		ldr	r0, [r7, #4]
 237 0044 9847     		blx	r3
 238              	.LVL1:
 239 0046 0346     		mov	r3, r0
 240 0048 FB73     		strb	r3, [r7, #15]
 195:Middlewares/ST/STM32_USB_Device_Library/Core/Src/usbd_ctlreq.c **** 
 196:Middlewares/ST/STM32_USB_Device_Library/Core/Src/usbd_ctlreq.c ****         if ((req->wLength == 0U) && (ret == USBD_OK))
 241              		.loc 1 196 0
 242 004a 3B68     		ldr	r3, [r7]
 243 004c DB88     		ldrh	r3, [r3, #6]
 244 004e 002B     		cmp	r3, #0
 245 0050 10D1     		bne	.L30
 246              		.loc 1 196 0 is_stmt 0 discriminator 1
 247 0052 FB7B     		ldrb	r3, [r7, #15]	@ zero_extendqisi2
 248 0054 002B     		cmp	r3, #0
 249 0056 0DD1     		bne	.L30
 197:Middlewares/ST/STM32_USB_Device_Library/Core/Src/usbd_ctlreq.c ****         {
 198:Middlewares/ST/STM32_USB_Device_Library/Core/Src/usbd_ctlreq.c ****           USBD_CtlSendStatus(pdev);
 250              		.loc 1 198 0 is_stmt 1
 251 0058 7868     		ldr	r0, [r7, #4]
 252 005a FFF7FEFF 		bl	USBD_CtlSendStatus
 199:Middlewares/ST/STM32_USB_Device_Library/Core/Src/usbd_ctlreq.c ****         }
 200:Middlewares/ST/STM32_USB_Device_Library/Core/Src/usbd_ctlreq.c ****       }
 201:Middlewares/ST/STM32_USB_Device_Library/Core/Src/usbd_ctlreq.c ****       else
 202:Middlewares/ST/STM32_USB_Device_Library/Core/Src/usbd_ctlreq.c ****       {
 203:Middlewares/ST/STM32_USB_Device_Library/Core/Src/usbd_ctlreq.c ****         USBD_CtlError(pdev, req);
 204:Middlewares/ST/STM32_USB_Device_Library/Core/Src/usbd_ctlreq.c ****       }
 205:Middlewares/ST/STM32_USB_Device_Library/Core/Src/usbd_ctlreq.c ****       break;
 253              		.loc 1 205 0
 254 005e 09E0     		b	.L30
ARM GAS  /tmp/cciTHAML.s 			page 9


 255              	.L23:
 203:Middlewares/ST/STM32_USB_Device_Library/Core/Src/usbd_ctlreq.c ****       }
 256              		.loc 1 203 0
 257 0060 3968     		ldr	r1, [r7]
 258 0062 7868     		ldr	r0, [r7, #4]
 259 0064 FFF7FEFF 		bl	USBD_CtlError
 260              		.loc 1 205 0
 261 0068 04E0     		b	.L30
 262              	.L21:
 206:Middlewares/ST/STM32_USB_Device_Library/Core/Src/usbd_ctlreq.c **** 
 207:Middlewares/ST/STM32_USB_Device_Library/Core/Src/usbd_ctlreq.c ****     default:
 208:Middlewares/ST/STM32_USB_Device_Library/Core/Src/usbd_ctlreq.c ****       USBD_CtlError(pdev, req);
 263              		.loc 1 208 0
 264 006a 3968     		ldr	r1, [r7]
 265 006c 7868     		ldr	r0, [r7, #4]
 266 006e FFF7FEFF 		bl	USBD_CtlError
 209:Middlewares/ST/STM32_USB_Device_Library/Core/Src/usbd_ctlreq.c ****       break;
 267              		.loc 1 209 0
 268 0072 00E0     		b	.L26
 269              	.L30:
 205:Middlewares/ST/STM32_USB_Device_Library/Core/Src/usbd_ctlreq.c **** 
 270              		.loc 1 205 0
 271 0074 00BF     		nop
 272              	.L26:
 210:Middlewares/ST/STM32_USB_Device_Library/Core/Src/usbd_ctlreq.c ****     }
 211:Middlewares/ST/STM32_USB_Device_Library/Core/Src/usbd_ctlreq.c ****     break;
 273              		.loc 1 211 0
 274 0076 04E0     		b	.L27
 275              	.L29:
 212:Middlewares/ST/STM32_USB_Device_Library/Core/Src/usbd_ctlreq.c **** 
 213:Middlewares/ST/STM32_USB_Device_Library/Core/Src/usbd_ctlreq.c ****   default:
 214:Middlewares/ST/STM32_USB_Device_Library/Core/Src/usbd_ctlreq.c ****     USBD_CtlError(pdev, req);
 276              		.loc 1 214 0
 277 0078 3968     		ldr	r1, [r7]
 278 007a 7868     		ldr	r0, [r7, #4]
 279 007c FFF7FEFF 		bl	USBD_CtlError
 215:Middlewares/ST/STM32_USB_Device_Library/Core/Src/usbd_ctlreq.c ****     break;
 280              		.loc 1 215 0
 281 0080 00BF     		nop
 282              	.L27:
 216:Middlewares/ST/STM32_USB_Device_Library/Core/Src/usbd_ctlreq.c ****   }
 217:Middlewares/ST/STM32_USB_Device_Library/Core/Src/usbd_ctlreq.c **** 
 218:Middlewares/ST/STM32_USB_Device_Library/Core/Src/usbd_ctlreq.c ****   return USBD_OK;
 283              		.loc 1 218 0
 284 0082 0023     		movs	r3, #0
 219:Middlewares/ST/STM32_USB_Device_Library/Core/Src/usbd_ctlreq.c **** }
 285              		.loc 1 219 0
 286 0084 1846     		mov	r0, r3
 287 0086 1037     		adds	r7, r7, #16
 288              	.LCFI8:
 289              		.cfi_def_cfa_offset 8
 290 0088 BD46     		mov	sp, r7
 291              	.LCFI9:
 292              		.cfi_def_cfa_register 13
 293              		@ sp needed
 294 008a 80BD     		pop	{r7, pc}
 295              		.cfi_endproc
ARM GAS  /tmp/cciTHAML.s 			page 10


 296              	.LFE134:
 298              		.section	.text.USBD_StdEPReq,"ax",%progbits
 299              		.align	1
 300              		.global	USBD_StdEPReq
 301              		.syntax unified
 302              		.thumb
 303              		.thumb_func
 304              		.fpu fpv4-sp-d16
 306              	USBD_StdEPReq:
 307              	.LFB135:
 220:Middlewares/ST/STM32_USB_Device_Library/Core/Src/usbd_ctlreq.c **** 
 221:Middlewares/ST/STM32_USB_Device_Library/Core/Src/usbd_ctlreq.c **** /**
 222:Middlewares/ST/STM32_USB_Device_Library/Core/Src/usbd_ctlreq.c **** * @brief  USBD_StdEPReq
 223:Middlewares/ST/STM32_USB_Device_Library/Core/Src/usbd_ctlreq.c **** *         Handle standard usb endpoint requests
 224:Middlewares/ST/STM32_USB_Device_Library/Core/Src/usbd_ctlreq.c **** * @param  pdev: device instance
 225:Middlewares/ST/STM32_USB_Device_Library/Core/Src/usbd_ctlreq.c **** * @param  req: usb request
 226:Middlewares/ST/STM32_USB_Device_Library/Core/Src/usbd_ctlreq.c **** * @retval status
 227:Middlewares/ST/STM32_USB_Device_Library/Core/Src/usbd_ctlreq.c **** */
 228:Middlewares/ST/STM32_USB_Device_Library/Core/Src/usbd_ctlreq.c **** USBD_StatusTypeDef  USBD_StdEPReq (USBD_HandleTypeDef *pdev , USBD_SetupReqTypedef  *req)
 229:Middlewares/ST/STM32_USB_Device_Library/Core/Src/usbd_ctlreq.c **** {
 308              		.loc 1 229 0
 309              		.cfi_startproc
 310              		@ args = 0, pretend = 0, frame = 16
 311              		@ frame_needed = 1, uses_anonymous_args = 0
 312 0000 80B5     		push	{r7, lr}
 313              	.LCFI10:
 314              		.cfi_def_cfa_offset 8
 315              		.cfi_offset 7, -8
 316              		.cfi_offset 14, -4
 317 0002 84B0     		sub	sp, sp, #16
 318              	.LCFI11:
 319              		.cfi_def_cfa_offset 24
 320 0004 00AF     		add	r7, sp, #0
 321              	.LCFI12:
 322              		.cfi_def_cfa_register 7
 323 0006 7860     		str	r0, [r7, #4]
 324 0008 3960     		str	r1, [r7]
 230:Middlewares/ST/STM32_USB_Device_Library/Core/Src/usbd_ctlreq.c **** 
 231:Middlewares/ST/STM32_USB_Device_Library/Core/Src/usbd_ctlreq.c ****   uint8_t   ep_addr;
 232:Middlewares/ST/STM32_USB_Device_Library/Core/Src/usbd_ctlreq.c ****   USBD_StatusTypeDef ret = USBD_OK;
 325              		.loc 1 232 0
 326 000a 0023     		movs	r3, #0
 327 000c FB73     		strb	r3, [r7, #15]
 233:Middlewares/ST/STM32_USB_Device_Library/Core/Src/usbd_ctlreq.c ****   USBD_EndpointTypeDef   *pep;
 234:Middlewares/ST/STM32_USB_Device_Library/Core/Src/usbd_ctlreq.c ****   ep_addr  = LOBYTE(req->wIndex);
 328              		.loc 1 234 0
 329 000e 3B68     		ldr	r3, [r7]
 330 0010 9B88     		ldrh	r3, [r3, #4]
 331 0012 BB73     		strb	r3, [r7, #14]
 235:Middlewares/ST/STM32_USB_Device_Library/Core/Src/usbd_ctlreq.c **** 
 236:Middlewares/ST/STM32_USB_Device_Library/Core/Src/usbd_ctlreq.c ****   switch (req->bmRequest & USB_REQ_TYPE_MASK)
 332              		.loc 1 236 0
 333 0014 3B68     		ldr	r3, [r7]
 334 0016 1B78     		ldrb	r3, [r3]	@ zero_extendqisi2
 335 0018 03F06003 		and	r3, r3, #96
 336 001c 202B     		cmp	r3, #32
 337 001e 04D0     		beq	.L33
ARM GAS  /tmp/cciTHAML.s 			page 11


 338 0020 402B     		cmp	r3, #64
 339 0022 02D0     		beq	.L33
 340 0024 002B     		cmp	r3, #0
 341 0026 08D0     		beq	.L34
 342 0028 3BE1     		b	.L73
 343              	.L33:
 237:Middlewares/ST/STM32_USB_Device_Library/Core/Src/usbd_ctlreq.c ****   {
 238:Middlewares/ST/STM32_USB_Device_Library/Core/Src/usbd_ctlreq.c **** 
 239:Middlewares/ST/STM32_USB_Device_Library/Core/Src/usbd_ctlreq.c ****   case USB_REQ_TYPE_CLASS:
 240:Middlewares/ST/STM32_USB_Device_Library/Core/Src/usbd_ctlreq.c ****   case USB_REQ_TYPE_VENDOR:
 241:Middlewares/ST/STM32_USB_Device_Library/Core/Src/usbd_ctlreq.c ****     pdev->pClass->Setup (pdev, req);
 344              		.loc 1 241 0
 345 002a 7B68     		ldr	r3, [r7, #4]
 346 002c D3F88C32 		ldr	r3, [r3, #652]
 347 0030 9B68     		ldr	r3, [r3, #8]
 348 0032 3968     		ldr	r1, [r7]
 349 0034 7868     		ldr	r0, [r7, #4]
 350 0036 9847     		blx	r3
 351              	.LVL2:
 242:Middlewares/ST/STM32_USB_Device_Library/Core/Src/usbd_ctlreq.c ****     break;
 352              		.loc 1 242 0
 353 0038 38E1     		b	.L35
 354              	.L34:
 243:Middlewares/ST/STM32_USB_Device_Library/Core/Src/usbd_ctlreq.c **** 
 244:Middlewares/ST/STM32_USB_Device_Library/Core/Src/usbd_ctlreq.c ****   case USB_REQ_TYPE_STANDARD:
 245:Middlewares/ST/STM32_USB_Device_Library/Core/Src/usbd_ctlreq.c ****     /* Check if it is a class request */
 246:Middlewares/ST/STM32_USB_Device_Library/Core/Src/usbd_ctlreq.c ****     if ((req->bmRequest & 0x60U) == 0x20U)
 355              		.loc 1 246 0
 356 003a 3B68     		ldr	r3, [r7]
 357 003c 1B78     		ldrb	r3, [r3]	@ zero_extendqisi2
 358 003e 03F06003 		and	r3, r3, #96
 359 0042 202B     		cmp	r3, #32
 360 0044 0AD1     		bne	.L36
 247:Middlewares/ST/STM32_USB_Device_Library/Core/Src/usbd_ctlreq.c ****     {
 248:Middlewares/ST/STM32_USB_Device_Library/Core/Src/usbd_ctlreq.c ****       ret = (USBD_StatusTypeDef)pdev->pClass->Setup (pdev, req);
 361              		.loc 1 248 0
 362 0046 7B68     		ldr	r3, [r7, #4]
 363 0048 D3F88C32 		ldr	r3, [r3, #652]
 364 004c 9B68     		ldr	r3, [r3, #8]
 365 004e 3968     		ldr	r1, [r7]
 366 0050 7868     		ldr	r0, [r7, #4]
 367 0052 9847     		blx	r3
 368              	.LVL3:
 369 0054 0346     		mov	r3, r0
 370 0056 FB73     		strb	r3, [r7, #15]
 249:Middlewares/ST/STM32_USB_Device_Library/Core/Src/usbd_ctlreq.c **** 
 250:Middlewares/ST/STM32_USB_Device_Library/Core/Src/usbd_ctlreq.c ****       return ret;
 371              		.loc 1 250 0
 372 0058 FB7B     		ldrb	r3, [r7, #15]	@ zero_extendqisi2
 373 005a 28E1     		b	.L37
 374              	.L36:
 251:Middlewares/ST/STM32_USB_Device_Library/Core/Src/usbd_ctlreq.c ****     }
 252:Middlewares/ST/STM32_USB_Device_Library/Core/Src/usbd_ctlreq.c **** 
 253:Middlewares/ST/STM32_USB_Device_Library/Core/Src/usbd_ctlreq.c ****     switch (req->bRequest)
 375              		.loc 1 253 0
 376 005c 3B68     		ldr	r3, [r7]
 377 005e 5B78     		ldrb	r3, [r3, #1]	@ zero_extendqisi2
ARM GAS  /tmp/cciTHAML.s 			page 12


 378 0060 012B     		cmp	r3, #1
 379 0062 3ED0     		beq	.L39
 380 0064 032B     		cmp	r3, #3
 381 0066 02D0     		beq	.L40
 382 0068 002B     		cmp	r3, #0
 383 006a 70D0     		beq	.L41
 384 006c 13E1     		b	.L74
 385              	.L40:
 254:Middlewares/ST/STM32_USB_Device_Library/Core/Src/usbd_ctlreq.c ****     {
 255:Middlewares/ST/STM32_USB_Device_Library/Core/Src/usbd_ctlreq.c **** 
 256:Middlewares/ST/STM32_USB_Device_Library/Core/Src/usbd_ctlreq.c ****     case USB_REQ_SET_FEATURE :
 257:Middlewares/ST/STM32_USB_Device_Library/Core/Src/usbd_ctlreq.c **** 
 258:Middlewares/ST/STM32_USB_Device_Library/Core/Src/usbd_ctlreq.c ****       switch (pdev->dev_state)
 386              		.loc 1 258 0
 387 006e 7B68     		ldr	r3, [r7, #4]
 388 0070 93F87432 		ldrb	r3, [r3, #628]	@ zero_extendqisi2
 389 0074 022B     		cmp	r3, #2
 390 0076 02D0     		beq	.L43
 391 0078 032B     		cmp	r3, #3
 392 007a 15D0     		beq	.L44
 393 007c 2BE0     		b	.L75
 394              	.L43:
 259:Middlewares/ST/STM32_USB_Device_Library/Core/Src/usbd_ctlreq.c ****       {
 260:Middlewares/ST/STM32_USB_Device_Library/Core/Src/usbd_ctlreq.c ****       case USBD_STATE_ADDRESSED:
 261:Middlewares/ST/STM32_USB_Device_Library/Core/Src/usbd_ctlreq.c ****         if ((ep_addr != 0x00U) && (ep_addr != 0x80U))
 395              		.loc 1 261 0
 396 007e BB7B     		ldrb	r3, [r7, #14]	@ zero_extendqisi2
 397 0080 002B     		cmp	r3, #0
 398 0082 0CD0     		beq	.L45
 399              		.loc 1 261 0 is_stmt 0 discriminator 1
 400 0084 BB7B     		ldrb	r3, [r7, #14]	@ zero_extendqisi2
 401 0086 802B     		cmp	r3, #128
 402 0088 09D0     		beq	.L45
 262:Middlewares/ST/STM32_USB_Device_Library/Core/Src/usbd_ctlreq.c ****         {
 263:Middlewares/ST/STM32_USB_Device_Library/Core/Src/usbd_ctlreq.c ****           USBD_LL_StallEP(pdev, ep_addr);
 403              		.loc 1 263 0 is_stmt 1
 404 008a BB7B     		ldrb	r3, [r7, #14]	@ zero_extendqisi2
 405 008c 1946     		mov	r1, r3
 406 008e 7868     		ldr	r0, [r7, #4]
 407 0090 FFF7FEFF 		bl	USBD_LL_StallEP
 264:Middlewares/ST/STM32_USB_Device_Library/Core/Src/usbd_ctlreq.c ****           USBD_LL_StallEP(pdev, 0x80U);
 408              		.loc 1 264 0
 409 0094 8021     		movs	r1, #128
 410 0096 7868     		ldr	r0, [r7, #4]
 411 0098 FFF7FEFF 		bl	USBD_LL_StallEP
 265:Middlewares/ST/STM32_USB_Device_Library/Core/Src/usbd_ctlreq.c ****         }
 266:Middlewares/ST/STM32_USB_Device_Library/Core/Src/usbd_ctlreq.c ****         else
 267:Middlewares/ST/STM32_USB_Device_Library/Core/Src/usbd_ctlreq.c ****         {
 268:Middlewares/ST/STM32_USB_Device_Library/Core/Src/usbd_ctlreq.c ****           USBD_CtlError(pdev, req);
 269:Middlewares/ST/STM32_USB_Device_Library/Core/Src/usbd_ctlreq.c ****         }
 270:Middlewares/ST/STM32_USB_Device_Library/Core/Src/usbd_ctlreq.c ****         break;
 412              		.loc 1 270 0
 413 009c 20E0     		b	.L47
 414              	.L45:
 268:Middlewares/ST/STM32_USB_Device_Library/Core/Src/usbd_ctlreq.c ****         }
 415              		.loc 1 268 0
 416 009e 3968     		ldr	r1, [r7]
ARM GAS  /tmp/cciTHAML.s 			page 13


 417 00a0 7868     		ldr	r0, [r7, #4]
 418 00a2 FFF7FEFF 		bl	USBD_CtlError
 419              		.loc 1 270 0
 420 00a6 1BE0     		b	.L47
 421              	.L44:
 271:Middlewares/ST/STM32_USB_Device_Library/Core/Src/usbd_ctlreq.c **** 
 272:Middlewares/ST/STM32_USB_Device_Library/Core/Src/usbd_ctlreq.c ****       case USBD_STATE_CONFIGURED:
 273:Middlewares/ST/STM32_USB_Device_Library/Core/Src/usbd_ctlreq.c ****         if (req->wValue == USB_FEATURE_EP_HALT)
 422              		.loc 1 273 0
 423 00a8 3B68     		ldr	r3, [r7]
 424 00aa 5B88     		ldrh	r3, [r3, #2]
 425 00ac 002B     		cmp	r3, #0
 426 00ae 0ED1     		bne	.L48
 274:Middlewares/ST/STM32_USB_Device_Library/Core/Src/usbd_ctlreq.c ****         {
 275:Middlewares/ST/STM32_USB_Device_Library/Core/Src/usbd_ctlreq.c ****           if ((ep_addr != 0x00U) && (ep_addr != 0x80U) && (req->wLength == 0x00U))
 427              		.loc 1 275 0
 428 00b0 BB7B     		ldrb	r3, [r7, #14]	@ zero_extendqisi2
 429 00b2 002B     		cmp	r3, #0
 430 00b4 0BD0     		beq	.L48
 431              		.loc 1 275 0 is_stmt 0 discriminator 1
 432 00b6 BB7B     		ldrb	r3, [r7, #14]	@ zero_extendqisi2
 433 00b8 802B     		cmp	r3, #128
 434 00ba 08D0     		beq	.L48
 435              		.loc 1 275 0 discriminator 2
 436 00bc 3B68     		ldr	r3, [r7]
 437 00be DB88     		ldrh	r3, [r3, #6]
 438 00c0 002B     		cmp	r3, #0
 439 00c2 04D1     		bne	.L48
 276:Middlewares/ST/STM32_USB_Device_Library/Core/Src/usbd_ctlreq.c ****           {
 277:Middlewares/ST/STM32_USB_Device_Library/Core/Src/usbd_ctlreq.c ****             USBD_LL_StallEP(pdev, ep_addr);
 440              		.loc 1 277 0 is_stmt 1
 441 00c4 BB7B     		ldrb	r3, [r7, #14]	@ zero_extendqisi2
 442 00c6 1946     		mov	r1, r3
 443 00c8 7868     		ldr	r0, [r7, #4]
 444 00ca FFF7FEFF 		bl	USBD_LL_StallEP
 445              	.L48:
 278:Middlewares/ST/STM32_USB_Device_Library/Core/Src/usbd_ctlreq.c ****           }
 279:Middlewares/ST/STM32_USB_Device_Library/Core/Src/usbd_ctlreq.c ****         }
 280:Middlewares/ST/STM32_USB_Device_Library/Core/Src/usbd_ctlreq.c ****         USBD_CtlSendStatus(pdev);
 446              		.loc 1 280 0
 447 00ce 7868     		ldr	r0, [r7, #4]
 448 00d0 FFF7FEFF 		bl	USBD_CtlSendStatus
 281:Middlewares/ST/STM32_USB_Device_Library/Core/Src/usbd_ctlreq.c **** 
 282:Middlewares/ST/STM32_USB_Device_Library/Core/Src/usbd_ctlreq.c ****         break;
 449              		.loc 1 282 0
 450 00d4 04E0     		b	.L47
 451              	.L75:
 283:Middlewares/ST/STM32_USB_Device_Library/Core/Src/usbd_ctlreq.c **** 
 284:Middlewares/ST/STM32_USB_Device_Library/Core/Src/usbd_ctlreq.c ****       default:
 285:Middlewares/ST/STM32_USB_Device_Library/Core/Src/usbd_ctlreq.c ****         USBD_CtlError(pdev, req);
 452              		.loc 1 285 0
 453 00d6 3968     		ldr	r1, [r7]
 454 00d8 7868     		ldr	r0, [r7, #4]
 455 00da FFF7FEFF 		bl	USBD_CtlError
 286:Middlewares/ST/STM32_USB_Device_Library/Core/Src/usbd_ctlreq.c ****         break;
 456              		.loc 1 286 0
 457 00de 00BF     		nop
ARM GAS  /tmp/cciTHAML.s 			page 14


 458              	.L47:
 287:Middlewares/ST/STM32_USB_Device_Library/Core/Src/usbd_ctlreq.c ****       }
 288:Middlewares/ST/STM32_USB_Device_Library/Core/Src/usbd_ctlreq.c ****       break;
 459              		.loc 1 288 0
 460 00e0 DEE0     		b	.L49
 461              	.L39:
 289:Middlewares/ST/STM32_USB_Device_Library/Core/Src/usbd_ctlreq.c **** 
 290:Middlewares/ST/STM32_USB_Device_Library/Core/Src/usbd_ctlreq.c ****     case USB_REQ_CLEAR_FEATURE :
 291:Middlewares/ST/STM32_USB_Device_Library/Core/Src/usbd_ctlreq.c **** 
 292:Middlewares/ST/STM32_USB_Device_Library/Core/Src/usbd_ctlreq.c ****       switch (pdev->dev_state)
 462              		.loc 1 292 0
 463 00e2 7B68     		ldr	r3, [r7, #4]
 464 00e4 93F87432 		ldrb	r3, [r3, #628]	@ zero_extendqisi2
 465 00e8 022B     		cmp	r3, #2
 466 00ea 02D0     		beq	.L51
 467 00ec 032B     		cmp	r3, #3
 468 00ee 15D0     		beq	.L52
 469 00f0 26E0     		b	.L76
 470              	.L51:
 293:Middlewares/ST/STM32_USB_Device_Library/Core/Src/usbd_ctlreq.c ****       {
 294:Middlewares/ST/STM32_USB_Device_Library/Core/Src/usbd_ctlreq.c ****       case USBD_STATE_ADDRESSED:
 295:Middlewares/ST/STM32_USB_Device_Library/Core/Src/usbd_ctlreq.c ****         if ((ep_addr != 0x00U) && (ep_addr != 0x80U))
 471              		.loc 1 295 0
 472 00f2 BB7B     		ldrb	r3, [r7, #14]	@ zero_extendqisi2
 473 00f4 002B     		cmp	r3, #0
 474 00f6 0CD0     		beq	.L53
 475              		.loc 1 295 0 is_stmt 0 discriminator 1
 476 00f8 BB7B     		ldrb	r3, [r7, #14]	@ zero_extendqisi2
 477 00fa 802B     		cmp	r3, #128
 478 00fc 09D0     		beq	.L53
 296:Middlewares/ST/STM32_USB_Device_Library/Core/Src/usbd_ctlreq.c ****         {
 297:Middlewares/ST/STM32_USB_Device_Library/Core/Src/usbd_ctlreq.c ****           USBD_LL_StallEP(pdev, ep_addr);
 479              		.loc 1 297 0 is_stmt 1
 480 00fe BB7B     		ldrb	r3, [r7, #14]	@ zero_extendqisi2
 481 0100 1946     		mov	r1, r3
 482 0102 7868     		ldr	r0, [r7, #4]
 483 0104 FFF7FEFF 		bl	USBD_LL_StallEP
 298:Middlewares/ST/STM32_USB_Device_Library/Core/Src/usbd_ctlreq.c ****           USBD_LL_StallEP(pdev, 0x80U);
 484              		.loc 1 298 0
 485 0108 8021     		movs	r1, #128
 486 010a 7868     		ldr	r0, [r7, #4]
 487 010c FFF7FEFF 		bl	USBD_LL_StallEP
 299:Middlewares/ST/STM32_USB_Device_Library/Core/Src/usbd_ctlreq.c ****         }
 300:Middlewares/ST/STM32_USB_Device_Library/Core/Src/usbd_ctlreq.c ****         else
 301:Middlewares/ST/STM32_USB_Device_Library/Core/Src/usbd_ctlreq.c ****         {
 302:Middlewares/ST/STM32_USB_Device_Library/Core/Src/usbd_ctlreq.c ****           USBD_CtlError(pdev, req);
 303:Middlewares/ST/STM32_USB_Device_Library/Core/Src/usbd_ctlreq.c ****         }
 304:Middlewares/ST/STM32_USB_Device_Library/Core/Src/usbd_ctlreq.c ****         break;
 488              		.loc 1 304 0
 489 0110 1CE0     		b	.L55
 490              	.L53:
 302:Middlewares/ST/STM32_USB_Device_Library/Core/Src/usbd_ctlreq.c ****         }
 491              		.loc 1 302 0
 492 0112 3968     		ldr	r1, [r7]
 493 0114 7868     		ldr	r0, [r7, #4]
 494 0116 FFF7FEFF 		bl	USBD_CtlError
 495              		.loc 1 304 0
ARM GAS  /tmp/cciTHAML.s 			page 15


 496 011a 17E0     		b	.L55
 497              	.L52:
 305:Middlewares/ST/STM32_USB_Device_Library/Core/Src/usbd_ctlreq.c **** 
 306:Middlewares/ST/STM32_USB_Device_Library/Core/Src/usbd_ctlreq.c ****       case USBD_STATE_CONFIGURED:
 307:Middlewares/ST/STM32_USB_Device_Library/Core/Src/usbd_ctlreq.c ****         if (req->wValue == USB_FEATURE_EP_HALT)
 498              		.loc 1 307 0
 499 011c 3B68     		ldr	r3, [r7]
 500 011e 5B88     		ldrh	r3, [r3, #2]
 501 0120 002B     		cmp	r3, #0
 502 0122 12D1     		bne	.L78
 308:Middlewares/ST/STM32_USB_Device_Library/Core/Src/usbd_ctlreq.c ****         {
 309:Middlewares/ST/STM32_USB_Device_Library/Core/Src/usbd_ctlreq.c ****           if ((ep_addr & 0x7FU) != 0x00U)
 503              		.loc 1 309 0
 504 0124 BB7B     		ldrb	r3, [r7, #14]	@ zero_extendqisi2
 505 0126 03F07F03 		and	r3, r3, #127
 506 012a 002B     		cmp	r3, #0
 507 012c 04D0     		beq	.L57
 310:Middlewares/ST/STM32_USB_Device_Library/Core/Src/usbd_ctlreq.c ****           {
 311:Middlewares/ST/STM32_USB_Device_Library/Core/Src/usbd_ctlreq.c ****             USBD_LL_ClearStallEP(pdev, ep_addr);
 508              		.loc 1 311 0
 509 012e BB7B     		ldrb	r3, [r7, #14]	@ zero_extendqisi2
 510 0130 1946     		mov	r1, r3
 511 0132 7868     		ldr	r0, [r7, #4]
 512 0134 FFF7FEFF 		bl	USBD_LL_ClearStallEP
 513              	.L57:
 312:Middlewares/ST/STM32_USB_Device_Library/Core/Src/usbd_ctlreq.c ****           }
 313:Middlewares/ST/STM32_USB_Device_Library/Core/Src/usbd_ctlreq.c ****           USBD_CtlSendStatus(pdev);
 514              		.loc 1 313 0
 515 0138 7868     		ldr	r0, [r7, #4]
 516 013a FFF7FEFF 		bl	USBD_CtlSendStatus
 314:Middlewares/ST/STM32_USB_Device_Library/Core/Src/usbd_ctlreq.c ****         }
 315:Middlewares/ST/STM32_USB_Device_Library/Core/Src/usbd_ctlreq.c ****         break;
 517              		.loc 1 315 0
 518 013e 04E0     		b	.L78
 519              	.L76:
 316:Middlewares/ST/STM32_USB_Device_Library/Core/Src/usbd_ctlreq.c **** 
 317:Middlewares/ST/STM32_USB_Device_Library/Core/Src/usbd_ctlreq.c ****       default:
 318:Middlewares/ST/STM32_USB_Device_Library/Core/Src/usbd_ctlreq.c ****         USBD_CtlError(pdev, req);
 520              		.loc 1 318 0
 521 0140 3968     		ldr	r1, [r7]
 522 0142 7868     		ldr	r0, [r7, #4]
 523 0144 FFF7FEFF 		bl	USBD_CtlError
 319:Middlewares/ST/STM32_USB_Device_Library/Core/Src/usbd_ctlreq.c ****         break;
 524              		.loc 1 319 0
 525 0148 00E0     		b	.L55
 526              	.L78:
 315:Middlewares/ST/STM32_USB_Device_Library/Core/Src/usbd_ctlreq.c **** 
 527              		.loc 1 315 0
 528 014a 00BF     		nop
 529              	.L55:
 320:Middlewares/ST/STM32_USB_Device_Library/Core/Src/usbd_ctlreq.c ****       }
 321:Middlewares/ST/STM32_USB_Device_Library/Core/Src/usbd_ctlreq.c ****       break;
 530              		.loc 1 321 0
 531 014c A8E0     		b	.L49
 532              	.L41:
 322:Middlewares/ST/STM32_USB_Device_Library/Core/Src/usbd_ctlreq.c **** 
 323:Middlewares/ST/STM32_USB_Device_Library/Core/Src/usbd_ctlreq.c ****     case USB_REQ_GET_STATUS:
ARM GAS  /tmp/cciTHAML.s 			page 16


 324:Middlewares/ST/STM32_USB_Device_Library/Core/Src/usbd_ctlreq.c ****       switch (pdev->dev_state)
 533              		.loc 1 324 0
 534 014e 7B68     		ldr	r3, [r7, #4]
 535 0150 93F87432 		ldrb	r3, [r3, #628]	@ zero_extendqisi2
 536 0154 022B     		cmp	r3, #2
 537 0156 02D0     		beq	.L59
 538 0158 032B     		cmp	r3, #3
 539 015a 31D0     		beq	.L60
 540 015c 95E0     		b	.L77
 541              	.L59:
 325:Middlewares/ST/STM32_USB_Device_Library/Core/Src/usbd_ctlreq.c ****       {
 326:Middlewares/ST/STM32_USB_Device_Library/Core/Src/usbd_ctlreq.c ****       case USBD_STATE_ADDRESSED:
 327:Middlewares/ST/STM32_USB_Device_Library/Core/Src/usbd_ctlreq.c ****         if ((ep_addr != 0x00U) && (ep_addr != 0x80U))
 542              		.loc 1 327 0
 543 015e BB7B     		ldrb	r3, [r7, #14]	@ zero_extendqisi2
 544 0160 002B     		cmp	r3, #0
 545 0162 07D0     		beq	.L61
 546              		.loc 1 327 0 is_stmt 0 discriminator 1
 547 0164 BB7B     		ldrb	r3, [r7, #14]	@ zero_extendqisi2
 548 0166 802B     		cmp	r3, #128
 549 0168 04D0     		beq	.L61
 328:Middlewares/ST/STM32_USB_Device_Library/Core/Src/usbd_ctlreq.c ****         {
 329:Middlewares/ST/STM32_USB_Device_Library/Core/Src/usbd_ctlreq.c ****           USBD_CtlError(pdev, req);
 550              		.loc 1 329 0 is_stmt 1
 551 016a 3968     		ldr	r1, [r7]
 552 016c 7868     		ldr	r0, [r7, #4]
 553 016e FFF7FEFF 		bl	USBD_CtlError
 330:Middlewares/ST/STM32_USB_Device_Library/Core/Src/usbd_ctlreq.c ****           break;
 554              		.loc 1 330 0
 555 0172 8FE0     		b	.L62
 556              	.L61:
 331:Middlewares/ST/STM32_USB_Device_Library/Core/Src/usbd_ctlreq.c ****         }
 332:Middlewares/ST/STM32_USB_Device_Library/Core/Src/usbd_ctlreq.c ****         pep = ((ep_addr & 0x80U) == 0x80U) ? &pdev->ep_in[ep_addr & 0x7FU]:\
 557              		.loc 1 332 0
 558 0174 97F90E30 		ldrsb	r3, [r7, #14]
 559 0178 002B     		cmp	r3, #0
 560 017a 0BDA     		bge	.L63
 561              		.loc 1 332 0 is_stmt 0 discriminator 1
 562 017c BB7B     		ldrb	r3, [r7, #14]	@ zero_extendqisi2
 563 017e 03F07F02 		and	r2, r3, #127
 564 0182 1346     		mov	r3, r2
 565 0184 9B00     		lsls	r3, r3, #2
 566 0186 1344     		add	r3, r3, r2
 567 0188 9B00     		lsls	r3, r3, #2
 568 018a 1033     		adds	r3, r3, #16
 569 018c 7A68     		ldr	r2, [r7, #4]
 570 018e 1344     		add	r3, r3, r2
 571 0190 0433     		adds	r3, r3, #4
 572 0192 0AE0     		b	.L64
 573              	.L63:
 333:Middlewares/ST/STM32_USB_Device_Library/Core/Src/usbd_ctlreq.c ****           &pdev->ep_out[ep_addr & 0x7FU];
 574              		.loc 1 333 0 is_stmt 1 discriminator 2
 575 0194 BB7B     		ldrb	r3, [r7, #14]	@ zero_extendqisi2
 576 0196 03F07F02 		and	r2, r3, #127
 332:Middlewares/ST/STM32_USB_Device_Library/Core/Src/usbd_ctlreq.c ****           &pdev->ep_out[ep_addr & 0x7FU];
 577              		.loc 1 332 0 discriminator 2
 578 019a 1346     		mov	r3, r2
ARM GAS  /tmp/cciTHAML.s 			page 17


 579 019c 9B00     		lsls	r3, r3, #2
 580 019e 1344     		add	r3, r3, r2
 581 01a0 9B00     		lsls	r3, r3, #2
 582 01a2 03F5A073 		add	r3, r3, #320
 583 01a6 7A68     		ldr	r2, [r7, #4]
 584 01a8 1344     		add	r3, r3, r2
 585              	.L64:
 332:Middlewares/ST/STM32_USB_Device_Library/Core/Src/usbd_ctlreq.c ****           &pdev->ep_out[ep_addr & 0x7FU];
 586              		.loc 1 332 0 is_stmt 0 discriminator 4
 587 01aa BB60     		str	r3, [r7, #8]
 334:Middlewares/ST/STM32_USB_Device_Library/Core/Src/usbd_ctlreq.c **** 
 335:Middlewares/ST/STM32_USB_Device_Library/Core/Src/usbd_ctlreq.c ****           pep->status = 0x0000U;
 588              		.loc 1 335 0 is_stmt 1 discriminator 4
 589 01ac BB68     		ldr	r3, [r7, #8]
 590 01ae 0022     		movs	r2, #0
 591 01b0 1A60     		str	r2, [r3]
 336:Middlewares/ST/STM32_USB_Device_Library/Core/Src/usbd_ctlreq.c **** 
 337:Middlewares/ST/STM32_USB_Device_Library/Core/Src/usbd_ctlreq.c ****           USBD_CtlSendData (pdev, (uint8_t *)(void *)&pep->status, 2U);
 592              		.loc 1 337 0 discriminator 4
 593 01b2 BB68     		ldr	r3, [r7, #8]
 594 01b4 0222     		movs	r2, #2
 595 01b6 1946     		mov	r1, r3
 596 01b8 7868     		ldr	r0, [r7, #4]
 597 01ba FFF7FEFF 		bl	USBD_CtlSendData
 338:Middlewares/ST/STM32_USB_Device_Library/Core/Src/usbd_ctlreq.c ****           break;
 598              		.loc 1 338 0 discriminator 4
 599 01be 69E0     		b	.L62
 600              	.L60:
 339:Middlewares/ST/STM32_USB_Device_Library/Core/Src/usbd_ctlreq.c **** 
 340:Middlewares/ST/STM32_USB_Device_Library/Core/Src/usbd_ctlreq.c ****       case USBD_STATE_CONFIGURED:
 341:Middlewares/ST/STM32_USB_Device_Library/Core/Src/usbd_ctlreq.c ****         if((ep_addr & 0x80U) == 0x80U)
 601              		.loc 1 341 0
 602 01c0 97F90E30 		ldrsb	r3, [r7, #14]
 603 01c4 002B     		cmp	r3, #0
 604 01c6 11DA     		bge	.L65
 342:Middlewares/ST/STM32_USB_Device_Library/Core/Src/usbd_ctlreq.c ****         {
 343:Middlewares/ST/STM32_USB_Device_Library/Core/Src/usbd_ctlreq.c ****           if (pdev->ep_in[ep_addr & 0xFU].is_used == 0U)
 605              		.loc 1 343 0
 606 01c8 BB7B     		ldrb	r3, [r7, #14]	@ zero_extendqisi2
 607 01ca 03F00F02 		and	r2, r3, #15
 608 01ce 7968     		ldr	r1, [r7, #4]
 609 01d0 1346     		mov	r3, r2
 610 01d2 9B00     		lsls	r3, r3, #2
 611 01d4 1344     		add	r3, r3, r2
 612 01d6 9B00     		lsls	r3, r3, #2
 613 01d8 0B44     		add	r3, r3, r1
 614 01da 1833     		adds	r3, r3, #24
 615 01dc 1B68     		ldr	r3, [r3]
 616 01de 002B     		cmp	r3, #0
 617 01e0 17D1     		bne	.L66
 344:Middlewares/ST/STM32_USB_Device_Library/Core/Src/usbd_ctlreq.c ****           {
 345:Middlewares/ST/STM32_USB_Device_Library/Core/Src/usbd_ctlreq.c ****             USBD_CtlError(pdev, req);
 618              		.loc 1 345 0
 619 01e2 3968     		ldr	r1, [r7]
 620 01e4 7868     		ldr	r0, [r7, #4]
 621 01e6 FFF7FEFF 		bl	USBD_CtlError
 346:Middlewares/ST/STM32_USB_Device_Library/Core/Src/usbd_ctlreq.c ****             break;
ARM GAS  /tmp/cciTHAML.s 			page 18


 622              		.loc 1 346 0
 623 01ea 53E0     		b	.L62
 624              	.L65:
 347:Middlewares/ST/STM32_USB_Device_Library/Core/Src/usbd_ctlreq.c ****           }
 348:Middlewares/ST/STM32_USB_Device_Library/Core/Src/usbd_ctlreq.c ****         }
 349:Middlewares/ST/STM32_USB_Device_Library/Core/Src/usbd_ctlreq.c ****         else
 350:Middlewares/ST/STM32_USB_Device_Library/Core/Src/usbd_ctlreq.c ****         {
 351:Middlewares/ST/STM32_USB_Device_Library/Core/Src/usbd_ctlreq.c ****           if (pdev->ep_out[ep_addr & 0xFU].is_used == 0U)
 625              		.loc 1 351 0
 626 01ec BB7B     		ldrb	r3, [r7, #14]	@ zero_extendqisi2
 627 01ee 03F00F02 		and	r2, r3, #15
 628 01f2 7968     		ldr	r1, [r7, #4]
 629 01f4 1346     		mov	r3, r2
 630 01f6 9B00     		lsls	r3, r3, #2
 631 01f8 1344     		add	r3, r3, r2
 632 01fa 9B00     		lsls	r3, r3, #2
 633 01fc 0B44     		add	r3, r3, r1
 634 01fe 03F5A273 		add	r3, r3, #324
 635 0202 1B68     		ldr	r3, [r3]
 636 0204 002B     		cmp	r3, #0
 637 0206 04D1     		bne	.L66
 352:Middlewares/ST/STM32_USB_Device_Library/Core/Src/usbd_ctlreq.c ****           {
 353:Middlewares/ST/STM32_USB_Device_Library/Core/Src/usbd_ctlreq.c ****             USBD_CtlError(pdev, req);
 638              		.loc 1 353 0
 639 0208 3968     		ldr	r1, [r7]
 640 020a 7868     		ldr	r0, [r7, #4]
 641 020c FFF7FEFF 		bl	USBD_CtlError
 354:Middlewares/ST/STM32_USB_Device_Library/Core/Src/usbd_ctlreq.c ****             break;
 642              		.loc 1 354 0
 643 0210 40E0     		b	.L62
 644              	.L66:
 355:Middlewares/ST/STM32_USB_Device_Library/Core/Src/usbd_ctlreq.c ****           }
 356:Middlewares/ST/STM32_USB_Device_Library/Core/Src/usbd_ctlreq.c ****         }
 357:Middlewares/ST/STM32_USB_Device_Library/Core/Src/usbd_ctlreq.c **** 
 358:Middlewares/ST/STM32_USB_Device_Library/Core/Src/usbd_ctlreq.c ****         pep = ((ep_addr & 0x80U) == 0x80U) ? &pdev->ep_in[ep_addr & 0x7FU]:\
 645              		.loc 1 358 0
 646 0212 97F90E30 		ldrsb	r3, [r7, #14]
 647 0216 002B     		cmp	r3, #0
 648 0218 0BDA     		bge	.L67
 649              		.loc 1 358 0 is_stmt 0 discriminator 1
 650 021a BB7B     		ldrb	r3, [r7, #14]	@ zero_extendqisi2
 651 021c 03F07F02 		and	r2, r3, #127
 652 0220 1346     		mov	r3, r2
 653 0222 9B00     		lsls	r3, r3, #2
 654 0224 1344     		add	r3, r3, r2
 655 0226 9B00     		lsls	r3, r3, #2
 656 0228 1033     		adds	r3, r3, #16
 657 022a 7A68     		ldr	r2, [r7, #4]
 658 022c 1344     		add	r3, r3, r2
 659 022e 0433     		adds	r3, r3, #4
 660 0230 0AE0     		b	.L68
 661              	.L67:
 359:Middlewares/ST/STM32_USB_Device_Library/Core/Src/usbd_ctlreq.c ****           &pdev->ep_out[ep_addr & 0x7FU];
 662              		.loc 1 359 0 is_stmt 1 discriminator 2
 663 0232 BB7B     		ldrb	r3, [r7, #14]	@ zero_extendqisi2
 664 0234 03F07F02 		and	r2, r3, #127
 358:Middlewares/ST/STM32_USB_Device_Library/Core/Src/usbd_ctlreq.c ****           &pdev->ep_out[ep_addr & 0x7FU];
ARM GAS  /tmp/cciTHAML.s 			page 19


 665              		.loc 1 358 0 discriminator 2
 666 0238 1346     		mov	r3, r2
 667 023a 9B00     		lsls	r3, r3, #2
 668 023c 1344     		add	r3, r3, r2
 669 023e 9B00     		lsls	r3, r3, #2
 670 0240 03F5A073 		add	r3, r3, #320
 671 0244 7A68     		ldr	r2, [r7, #4]
 672 0246 1344     		add	r3, r3, r2
 673              	.L68:
 358:Middlewares/ST/STM32_USB_Device_Library/Core/Src/usbd_ctlreq.c ****           &pdev->ep_out[ep_addr & 0x7FU];
 674              		.loc 1 358 0 is_stmt 0 discriminator 4
 675 0248 BB60     		str	r3, [r7, #8]
 360:Middlewares/ST/STM32_USB_Device_Library/Core/Src/usbd_ctlreq.c **** 
 361:Middlewares/ST/STM32_USB_Device_Library/Core/Src/usbd_ctlreq.c ****           if ((ep_addr == 0x00U) || (ep_addr == 0x80U))
 676              		.loc 1 361 0 is_stmt 1 discriminator 4
 677 024a BB7B     		ldrb	r3, [r7, #14]	@ zero_extendqisi2
 678 024c 002B     		cmp	r3, #0
 679 024e 02D0     		beq	.L69
 680              		.loc 1 361 0 is_stmt 0 discriminator 1
 681 0250 BB7B     		ldrb	r3, [r7, #14]	@ zero_extendqisi2
 682 0252 802B     		cmp	r3, #128
 683 0254 03D1     		bne	.L70
 684              	.L69:
 362:Middlewares/ST/STM32_USB_Device_Library/Core/Src/usbd_ctlreq.c ****           {
 363:Middlewares/ST/STM32_USB_Device_Library/Core/Src/usbd_ctlreq.c ****             pep->status = 0x0000U;
 685              		.loc 1 363 0 is_stmt 1
 686 0256 BB68     		ldr	r3, [r7, #8]
 687 0258 0022     		movs	r2, #0
 688 025a 1A60     		str	r2, [r3]
 689 025c 0EE0     		b	.L71
 690              	.L70:
 364:Middlewares/ST/STM32_USB_Device_Library/Core/Src/usbd_ctlreq.c ****           }
 365:Middlewares/ST/STM32_USB_Device_Library/Core/Src/usbd_ctlreq.c ****           else if(USBD_LL_IsStallEP(pdev, ep_addr))
 691              		.loc 1 365 0
 692 025e BB7B     		ldrb	r3, [r7, #14]	@ zero_extendqisi2
 693 0260 1946     		mov	r1, r3
 694 0262 7868     		ldr	r0, [r7, #4]
 695 0264 FFF7FEFF 		bl	USBD_LL_IsStallEP
 696 0268 0346     		mov	r3, r0
 697 026a 002B     		cmp	r3, #0
 698 026c 03D0     		beq	.L72
 366:Middlewares/ST/STM32_USB_Device_Library/Core/Src/usbd_ctlreq.c ****           {
 367:Middlewares/ST/STM32_USB_Device_Library/Core/Src/usbd_ctlreq.c ****             pep->status = 0x0001U;
 699              		.loc 1 367 0
 700 026e BB68     		ldr	r3, [r7, #8]
 701 0270 0122     		movs	r2, #1
 702 0272 1A60     		str	r2, [r3]
 703 0274 02E0     		b	.L71
 704              	.L72:
 368:Middlewares/ST/STM32_USB_Device_Library/Core/Src/usbd_ctlreq.c ****           }
 369:Middlewares/ST/STM32_USB_Device_Library/Core/Src/usbd_ctlreq.c ****           else
 370:Middlewares/ST/STM32_USB_Device_Library/Core/Src/usbd_ctlreq.c ****           {
 371:Middlewares/ST/STM32_USB_Device_Library/Core/Src/usbd_ctlreq.c ****             pep->status = 0x0000U;
 705              		.loc 1 371 0
 706 0276 BB68     		ldr	r3, [r7, #8]
 707 0278 0022     		movs	r2, #0
 708 027a 1A60     		str	r2, [r3]
ARM GAS  /tmp/cciTHAML.s 			page 20


 709              	.L71:
 372:Middlewares/ST/STM32_USB_Device_Library/Core/Src/usbd_ctlreq.c ****           }
 373:Middlewares/ST/STM32_USB_Device_Library/Core/Src/usbd_ctlreq.c **** 
 374:Middlewares/ST/STM32_USB_Device_Library/Core/Src/usbd_ctlreq.c ****           USBD_CtlSendData (pdev, (uint8_t *)(void *)&pep->status, 2U);
 710              		.loc 1 374 0
 711 027c BB68     		ldr	r3, [r7, #8]
 712 027e 0222     		movs	r2, #2
 713 0280 1946     		mov	r1, r3
 714 0282 7868     		ldr	r0, [r7, #4]
 715 0284 FFF7FEFF 		bl	USBD_CtlSendData
 375:Middlewares/ST/STM32_USB_Device_Library/Core/Src/usbd_ctlreq.c ****           break;
 716              		.loc 1 375 0
 717 0288 04E0     		b	.L62
 718              	.L77:
 376:Middlewares/ST/STM32_USB_Device_Library/Core/Src/usbd_ctlreq.c **** 
 377:Middlewares/ST/STM32_USB_Device_Library/Core/Src/usbd_ctlreq.c ****       default:
 378:Middlewares/ST/STM32_USB_Device_Library/Core/Src/usbd_ctlreq.c ****         USBD_CtlError(pdev, req);
 719              		.loc 1 378 0
 720 028a 3968     		ldr	r1, [r7]
 721 028c 7868     		ldr	r0, [r7, #4]
 722 028e FFF7FEFF 		bl	USBD_CtlError
 379:Middlewares/ST/STM32_USB_Device_Library/Core/Src/usbd_ctlreq.c ****         break;
 723              		.loc 1 379 0
 724 0292 00BF     		nop
 725              	.L62:
 380:Middlewares/ST/STM32_USB_Device_Library/Core/Src/usbd_ctlreq.c ****       }
 381:Middlewares/ST/STM32_USB_Device_Library/Core/Src/usbd_ctlreq.c ****       break;
 726              		.loc 1 381 0
 727 0294 04E0     		b	.L49
 728              	.L74:
 382:Middlewares/ST/STM32_USB_Device_Library/Core/Src/usbd_ctlreq.c **** 
 383:Middlewares/ST/STM32_USB_Device_Library/Core/Src/usbd_ctlreq.c ****     default:
 384:Middlewares/ST/STM32_USB_Device_Library/Core/Src/usbd_ctlreq.c ****       USBD_CtlError(pdev, req);
 729              		.loc 1 384 0
 730 0296 3968     		ldr	r1, [r7]
 731 0298 7868     		ldr	r0, [r7, #4]
 732 029a FFF7FEFF 		bl	USBD_CtlError
 385:Middlewares/ST/STM32_USB_Device_Library/Core/Src/usbd_ctlreq.c ****       break;
 733              		.loc 1 385 0
 734 029e 00BF     		nop
 735              	.L49:
 386:Middlewares/ST/STM32_USB_Device_Library/Core/Src/usbd_ctlreq.c ****     }
 387:Middlewares/ST/STM32_USB_Device_Library/Core/Src/usbd_ctlreq.c ****     break;
 736              		.loc 1 387 0
 737 02a0 04E0     		b	.L35
 738              	.L73:
 388:Middlewares/ST/STM32_USB_Device_Library/Core/Src/usbd_ctlreq.c **** 
 389:Middlewares/ST/STM32_USB_Device_Library/Core/Src/usbd_ctlreq.c ****   default:
 390:Middlewares/ST/STM32_USB_Device_Library/Core/Src/usbd_ctlreq.c ****     USBD_CtlError(pdev, req);
 739              		.loc 1 390 0
 740 02a2 3968     		ldr	r1, [r7]
 741 02a4 7868     		ldr	r0, [r7, #4]
 742 02a6 FFF7FEFF 		bl	USBD_CtlError
 391:Middlewares/ST/STM32_USB_Device_Library/Core/Src/usbd_ctlreq.c ****     break;
 743              		.loc 1 391 0
 744 02aa 00BF     		nop
 745              	.L35:
ARM GAS  /tmp/cciTHAML.s 			page 21


 392:Middlewares/ST/STM32_USB_Device_Library/Core/Src/usbd_ctlreq.c ****   }
 393:Middlewares/ST/STM32_USB_Device_Library/Core/Src/usbd_ctlreq.c **** 
 394:Middlewares/ST/STM32_USB_Device_Library/Core/Src/usbd_ctlreq.c ****   return ret;
 746              		.loc 1 394 0
 747 02ac FB7B     		ldrb	r3, [r7, #15]	@ zero_extendqisi2
 748              	.L37:
 395:Middlewares/ST/STM32_USB_Device_Library/Core/Src/usbd_ctlreq.c **** }
 749              		.loc 1 395 0
 750 02ae 1846     		mov	r0, r3
 751 02b0 1037     		adds	r7, r7, #16
 752              	.LCFI13:
 753              		.cfi_def_cfa_offset 8
 754 02b2 BD46     		mov	sp, r7
 755              	.LCFI14:
 756              		.cfi_def_cfa_register 13
 757              		@ sp needed
 758 02b4 80BD     		pop	{r7, pc}
 759              		.cfi_endproc
 760              	.LFE135:
 762              		.section	.text.USBD_GetDescriptor,"ax",%progbits
 763              		.align	1
 764              		.syntax unified
 765              		.thumb
 766              		.thumb_func
 767              		.fpu fpv4-sp-d16
 769              	USBD_GetDescriptor:
 770              	.LFB136:
 396:Middlewares/ST/STM32_USB_Device_Library/Core/Src/usbd_ctlreq.c **** /**
 397:Middlewares/ST/STM32_USB_Device_Library/Core/Src/usbd_ctlreq.c **** * @brief  USBD_GetDescriptor
 398:Middlewares/ST/STM32_USB_Device_Library/Core/Src/usbd_ctlreq.c **** *         Handle Get Descriptor requests
 399:Middlewares/ST/STM32_USB_Device_Library/Core/Src/usbd_ctlreq.c **** * @param  pdev: device instance
 400:Middlewares/ST/STM32_USB_Device_Library/Core/Src/usbd_ctlreq.c **** * @param  req: usb request
 401:Middlewares/ST/STM32_USB_Device_Library/Core/Src/usbd_ctlreq.c **** * @retval status
 402:Middlewares/ST/STM32_USB_Device_Library/Core/Src/usbd_ctlreq.c **** */
 403:Middlewares/ST/STM32_USB_Device_Library/Core/Src/usbd_ctlreq.c **** static void USBD_GetDescriptor(USBD_HandleTypeDef *pdev ,
 404:Middlewares/ST/STM32_USB_Device_Library/Core/Src/usbd_ctlreq.c ****                                USBD_SetupReqTypedef *req)
 405:Middlewares/ST/STM32_USB_Device_Library/Core/Src/usbd_ctlreq.c **** {
 771              		.loc 1 405 0
 772              		.cfi_startproc
 773              		@ args = 0, pretend = 0, frame = 16
 774              		@ frame_needed = 1, uses_anonymous_args = 0
 775 0000 80B5     		push	{r7, lr}
 776              	.LCFI15:
 777              		.cfi_def_cfa_offset 8
 778              		.cfi_offset 7, -8
 779              		.cfi_offset 14, -4
 780 0002 84B0     		sub	sp, sp, #16
 781              	.LCFI16:
 782              		.cfi_def_cfa_offset 24
 783 0004 00AF     		add	r7, sp, #0
 784              	.LCFI17:
 785              		.cfi_def_cfa_register 7
 786 0006 7860     		str	r0, [r7, #4]
 787 0008 3960     		str	r1, [r7]
 406:Middlewares/ST/STM32_USB_Device_Library/Core/Src/usbd_ctlreq.c ****   uint16_t len;
 407:Middlewares/ST/STM32_USB_Device_Library/Core/Src/usbd_ctlreq.c ****   uint8_t *pbuf;
 408:Middlewares/ST/STM32_USB_Device_Library/Core/Src/usbd_ctlreq.c **** 
ARM GAS  /tmp/cciTHAML.s 			page 22


 409:Middlewares/ST/STM32_USB_Device_Library/Core/Src/usbd_ctlreq.c **** 
 410:Middlewares/ST/STM32_USB_Device_Library/Core/Src/usbd_ctlreq.c ****   switch (req->wValue >> 8)
 788              		.loc 1 410 0
 789 000a 3B68     		ldr	r3, [r7]
 790 000c 5B88     		ldrh	r3, [r3, #2]
 791 000e 1B0A     		lsrs	r3, r3, #8
 792 0010 9BB2     		uxth	r3, r3
 793 0012 013B     		subs	r3, r3, #1
 794 0014 062B     		cmp	r3, #6
 795 0016 00F2C980 		bhi	.L80
 796 001a 01A2     		adr	r2, .L82
 797 001c 52F823F0 		ldr	pc, [r2, r3, lsl #2]
 798              		.p2align 2
 799              	.L82:
 800 0020 3D000000 		.word	.L81+1
 801 0024 55000000 		.word	.L83+1
 802 0028 95000000 		.word	.L84+1
 803 002c AD010000 		.word	.L80+1
 804 0030 AD010000 		.word	.L80+1
 805 0034 59010000 		.word	.L85+1
 806 0038 7F010000 		.word	.L86+1
 807              		.p2align 1
 808              	.L81:
 411:Middlewares/ST/STM32_USB_Device_Library/Core/Src/usbd_ctlreq.c ****   {
 412:Middlewares/ST/STM32_USB_Device_Library/Core/Src/usbd_ctlreq.c **** #if (USBD_LPM_ENABLED == 1U)
 413:Middlewares/ST/STM32_USB_Device_Library/Core/Src/usbd_ctlreq.c ****   case USB_DESC_TYPE_BOS:
 414:Middlewares/ST/STM32_USB_Device_Library/Core/Src/usbd_ctlreq.c ****     pbuf = pdev->pDesc->GetBOSDescriptor(pdev->dev_speed, &len);
 415:Middlewares/ST/STM32_USB_Device_Library/Core/Src/usbd_ctlreq.c ****     break;
 416:Middlewares/ST/STM32_USB_Device_Library/Core/Src/usbd_ctlreq.c **** #endif
 417:Middlewares/ST/STM32_USB_Device_Library/Core/Src/usbd_ctlreq.c ****   case USB_DESC_TYPE_DEVICE:
 418:Middlewares/ST/STM32_USB_Device_Library/Core/Src/usbd_ctlreq.c ****     pbuf = pdev->pDesc->GetDeviceDescriptor(pdev->dev_speed, &len);
 809              		.loc 1 418 0
 810 003c 7B68     		ldr	r3, [r7, #4]
 811 003e D3F88832 		ldr	r3, [r3, #648]
 812 0042 1B68     		ldr	r3, [r3]
 813 0044 7A68     		ldr	r2, [r7, #4]
 814 0046 127C     		ldrb	r2, [r2, #16]	@ zero_extendqisi2
 815 0048 07F10A01 		add	r1, r7, #10
 816 004c 1046     		mov	r0, r2
 817 004e 9847     		blx	r3
 818              	.LVL4:
 819 0050 F860     		str	r0, [r7, #12]
 419:Middlewares/ST/STM32_USB_Device_Library/Core/Src/usbd_ctlreq.c ****     break;
 820              		.loc 1 419 0
 821 0052 B0E0     		b	.L87
 822              	.L83:
 420:Middlewares/ST/STM32_USB_Device_Library/Core/Src/usbd_ctlreq.c **** 
 421:Middlewares/ST/STM32_USB_Device_Library/Core/Src/usbd_ctlreq.c ****   case USB_DESC_TYPE_CONFIGURATION:
 422:Middlewares/ST/STM32_USB_Device_Library/Core/Src/usbd_ctlreq.c ****     if(pdev->dev_speed == USBD_SPEED_HIGH )
 823              		.loc 1 422 0
 824 0054 7B68     		ldr	r3, [r7, #4]
 825 0056 1B7C     		ldrb	r3, [r3, #16]	@ zero_extendqisi2
 826 0058 002B     		cmp	r3, #0
 827 005a 0DD1     		bne	.L88
 423:Middlewares/ST/STM32_USB_Device_Library/Core/Src/usbd_ctlreq.c ****     {
 424:Middlewares/ST/STM32_USB_Device_Library/Core/Src/usbd_ctlreq.c ****       pbuf   = (uint8_t *)pdev->pClass->GetHSConfigDescriptor(&len);
 828              		.loc 1 424 0
ARM GAS  /tmp/cciTHAML.s 			page 23


 829 005c 7B68     		ldr	r3, [r7, #4]
 830 005e D3F88C32 		ldr	r3, [r3, #652]
 831 0062 9B6A     		ldr	r3, [r3, #40]
 832 0064 07F10A02 		add	r2, r7, #10
 833 0068 1046     		mov	r0, r2
 834 006a 9847     		blx	r3
 835              	.LVL5:
 836 006c F860     		str	r0, [r7, #12]
 425:Middlewares/ST/STM32_USB_Device_Library/Core/Src/usbd_ctlreq.c ****       pbuf[1] = USB_DESC_TYPE_CONFIGURATION;
 837              		.loc 1 425 0
 838 006e FB68     		ldr	r3, [r7, #12]
 839 0070 0133     		adds	r3, r3, #1
 840 0072 0222     		movs	r2, #2
 841 0074 1A70     		strb	r2, [r3]
 426:Middlewares/ST/STM32_USB_Device_Library/Core/Src/usbd_ctlreq.c ****     }
 427:Middlewares/ST/STM32_USB_Device_Library/Core/Src/usbd_ctlreq.c ****     else
 428:Middlewares/ST/STM32_USB_Device_Library/Core/Src/usbd_ctlreq.c ****     {
 429:Middlewares/ST/STM32_USB_Device_Library/Core/Src/usbd_ctlreq.c ****       pbuf   = (uint8_t *)pdev->pClass->GetFSConfigDescriptor(&len);
 430:Middlewares/ST/STM32_USB_Device_Library/Core/Src/usbd_ctlreq.c ****       pbuf[1] = USB_DESC_TYPE_CONFIGURATION;
 431:Middlewares/ST/STM32_USB_Device_Library/Core/Src/usbd_ctlreq.c ****     }
 432:Middlewares/ST/STM32_USB_Device_Library/Core/Src/usbd_ctlreq.c ****     break;
 842              		.loc 1 432 0
 843 0076 9EE0     		b	.L87
 844              	.L88:
 429:Middlewares/ST/STM32_USB_Device_Library/Core/Src/usbd_ctlreq.c ****       pbuf[1] = USB_DESC_TYPE_CONFIGURATION;
 845              		.loc 1 429 0
 846 0078 7B68     		ldr	r3, [r7, #4]
 847 007a D3F88C32 		ldr	r3, [r3, #652]
 848 007e DB6A     		ldr	r3, [r3, #44]
 849 0080 07F10A02 		add	r2, r7, #10
 850 0084 1046     		mov	r0, r2
 851 0086 9847     		blx	r3
 852              	.LVL6:
 853 0088 F860     		str	r0, [r7, #12]
 430:Middlewares/ST/STM32_USB_Device_Library/Core/Src/usbd_ctlreq.c ****     }
 854              		.loc 1 430 0
 855 008a FB68     		ldr	r3, [r7, #12]
 856 008c 0133     		adds	r3, r3, #1
 857 008e 0222     		movs	r2, #2
 858 0090 1A70     		strb	r2, [r3]
 859              		.loc 1 432 0
 860 0092 90E0     		b	.L87
 861              	.L84:
 433:Middlewares/ST/STM32_USB_Device_Library/Core/Src/usbd_ctlreq.c **** 
 434:Middlewares/ST/STM32_USB_Device_Library/Core/Src/usbd_ctlreq.c ****   case USB_DESC_TYPE_STRING:
 435:Middlewares/ST/STM32_USB_Device_Library/Core/Src/usbd_ctlreq.c ****     switch ((uint8_t)(req->wValue))
 862              		.loc 1 435 0
 863 0094 3B68     		ldr	r3, [r7]
 864 0096 5B88     		ldrh	r3, [r3, #2]
 865 0098 DBB2     		uxtb	r3, r3
 866 009a 052B     		cmp	r3, #5
 867 009c 56D8     		bhi	.L90
 868 009e 01A2     		adr	r2, .L92
 869 00a0 52F823F0 		ldr	pc, [r2, r3, lsl #2]
 870              		.p2align 2
 871              	.L92:
 872 00a4 BD000000 		.word	.L91+1
ARM GAS  /tmp/cciTHAML.s 			page 24


 873 00a8 D5000000 		.word	.L93+1
 874 00ac ED000000 		.word	.L94+1
 875 00b0 05010000 		.word	.L95+1
 876 00b4 1D010000 		.word	.L96+1
 877 00b8 35010000 		.word	.L97+1
 878              		.p2align 1
 879              	.L91:
 436:Middlewares/ST/STM32_USB_Device_Library/Core/Src/usbd_ctlreq.c ****     {
 437:Middlewares/ST/STM32_USB_Device_Library/Core/Src/usbd_ctlreq.c ****     case USBD_IDX_LANGID_STR:
 438:Middlewares/ST/STM32_USB_Device_Library/Core/Src/usbd_ctlreq.c ****      pbuf = pdev->pDesc->GetLangIDStrDescriptor(pdev->dev_speed, &len);
 880              		.loc 1 438 0
 881 00bc 7B68     		ldr	r3, [r7, #4]
 882 00be D3F88832 		ldr	r3, [r3, #648]
 883 00c2 5B68     		ldr	r3, [r3, #4]
 884 00c4 7A68     		ldr	r2, [r7, #4]
 885 00c6 127C     		ldrb	r2, [r2, #16]	@ zero_extendqisi2
 886 00c8 07F10A01 		add	r1, r7, #10
 887 00cc 1046     		mov	r0, r2
 888 00ce 9847     		blx	r3
 889              	.LVL7:
 890 00d0 F860     		str	r0, [r7, #12]
 439:Middlewares/ST/STM32_USB_Device_Library/Core/Src/usbd_ctlreq.c ****       break;
 891              		.loc 1 439 0
 892 00d2 40E0     		b	.L98
 893              	.L93:
 440:Middlewares/ST/STM32_USB_Device_Library/Core/Src/usbd_ctlreq.c **** 
 441:Middlewares/ST/STM32_USB_Device_Library/Core/Src/usbd_ctlreq.c ****     case USBD_IDX_MFC_STR:
 442:Middlewares/ST/STM32_USB_Device_Library/Core/Src/usbd_ctlreq.c ****       pbuf = pdev->pDesc->GetManufacturerStrDescriptor(pdev->dev_speed, &len);
 894              		.loc 1 442 0
 895 00d4 7B68     		ldr	r3, [r7, #4]
 896 00d6 D3F88832 		ldr	r3, [r3, #648]
 897 00da 9B68     		ldr	r3, [r3, #8]
 898 00dc 7A68     		ldr	r2, [r7, #4]
 899 00de 127C     		ldrb	r2, [r2, #16]	@ zero_extendqisi2
 900 00e0 07F10A01 		add	r1, r7, #10
 901 00e4 1046     		mov	r0, r2
 902 00e6 9847     		blx	r3
 903              	.LVL8:
 904 00e8 F860     		str	r0, [r7, #12]
 443:Middlewares/ST/STM32_USB_Device_Library/Core/Src/usbd_ctlreq.c ****       break;
 905              		.loc 1 443 0
 906 00ea 34E0     		b	.L98
 907              	.L94:
 444:Middlewares/ST/STM32_USB_Device_Library/Core/Src/usbd_ctlreq.c **** 
 445:Middlewares/ST/STM32_USB_Device_Library/Core/Src/usbd_ctlreq.c ****     case USBD_IDX_PRODUCT_STR:
 446:Middlewares/ST/STM32_USB_Device_Library/Core/Src/usbd_ctlreq.c ****       pbuf = pdev->pDesc->GetProductStrDescriptor(pdev->dev_speed, &len);
 908              		.loc 1 446 0
 909 00ec 7B68     		ldr	r3, [r7, #4]
 910 00ee D3F88832 		ldr	r3, [r3, #648]
 911 00f2 DB68     		ldr	r3, [r3, #12]
 912 00f4 7A68     		ldr	r2, [r7, #4]
 913 00f6 127C     		ldrb	r2, [r2, #16]	@ zero_extendqisi2
 914 00f8 07F10A01 		add	r1, r7, #10
 915 00fc 1046     		mov	r0, r2
 916 00fe 9847     		blx	r3
 917              	.LVL9:
 918 0100 F860     		str	r0, [r7, #12]
ARM GAS  /tmp/cciTHAML.s 			page 25


 447:Middlewares/ST/STM32_USB_Device_Library/Core/Src/usbd_ctlreq.c ****       break;
 919              		.loc 1 447 0
 920 0102 28E0     		b	.L98
 921              	.L95:
 448:Middlewares/ST/STM32_USB_Device_Library/Core/Src/usbd_ctlreq.c **** 
 449:Middlewares/ST/STM32_USB_Device_Library/Core/Src/usbd_ctlreq.c ****     case USBD_IDX_SERIAL_STR:
 450:Middlewares/ST/STM32_USB_Device_Library/Core/Src/usbd_ctlreq.c ****       pbuf = pdev->pDesc->GetSerialStrDescriptor(pdev->dev_speed, &len);
 922              		.loc 1 450 0
 923 0104 7B68     		ldr	r3, [r7, #4]
 924 0106 D3F88832 		ldr	r3, [r3, #648]
 925 010a 1B69     		ldr	r3, [r3, #16]
 926 010c 7A68     		ldr	r2, [r7, #4]
 927 010e 127C     		ldrb	r2, [r2, #16]	@ zero_extendqisi2
 928 0110 07F10A01 		add	r1, r7, #10
 929 0114 1046     		mov	r0, r2
 930 0116 9847     		blx	r3
 931              	.LVL10:
 932 0118 F860     		str	r0, [r7, #12]
 451:Middlewares/ST/STM32_USB_Device_Library/Core/Src/usbd_ctlreq.c ****       break;
 933              		.loc 1 451 0
 934 011a 1CE0     		b	.L98
 935              	.L96:
 452:Middlewares/ST/STM32_USB_Device_Library/Core/Src/usbd_ctlreq.c **** 
 453:Middlewares/ST/STM32_USB_Device_Library/Core/Src/usbd_ctlreq.c ****     case USBD_IDX_CONFIG_STR:
 454:Middlewares/ST/STM32_USB_Device_Library/Core/Src/usbd_ctlreq.c ****       pbuf = pdev->pDesc->GetConfigurationStrDescriptor(pdev->dev_speed, &len);
 936              		.loc 1 454 0
 937 011c 7B68     		ldr	r3, [r7, #4]
 938 011e D3F88832 		ldr	r3, [r3, #648]
 939 0122 5B69     		ldr	r3, [r3, #20]
 940 0124 7A68     		ldr	r2, [r7, #4]
 941 0126 127C     		ldrb	r2, [r2, #16]	@ zero_extendqisi2
 942 0128 07F10A01 		add	r1, r7, #10
 943 012c 1046     		mov	r0, r2
 944 012e 9847     		blx	r3
 945              	.LVL11:
 946 0130 F860     		str	r0, [r7, #12]
 455:Middlewares/ST/STM32_USB_Device_Library/Core/Src/usbd_ctlreq.c ****       break;
 947              		.loc 1 455 0
 948 0132 10E0     		b	.L98
 949              	.L97:
 456:Middlewares/ST/STM32_USB_Device_Library/Core/Src/usbd_ctlreq.c **** 
 457:Middlewares/ST/STM32_USB_Device_Library/Core/Src/usbd_ctlreq.c ****     case USBD_IDX_INTERFACE_STR:
 458:Middlewares/ST/STM32_USB_Device_Library/Core/Src/usbd_ctlreq.c ****       pbuf = pdev->pDesc->GetInterfaceStrDescriptor(pdev->dev_speed, &len);
 950              		.loc 1 458 0
 951 0134 7B68     		ldr	r3, [r7, #4]
 952 0136 D3F88832 		ldr	r3, [r3, #648]
 953 013a 9B69     		ldr	r3, [r3, #24]
 954 013c 7A68     		ldr	r2, [r7, #4]
 955 013e 127C     		ldrb	r2, [r2, #16]	@ zero_extendqisi2
 956 0140 07F10A01 		add	r1, r7, #10
 957 0144 1046     		mov	r0, r2
 958 0146 9847     		blx	r3
 959              	.LVL12:
 960 0148 F860     		str	r0, [r7, #12]
 459:Middlewares/ST/STM32_USB_Device_Library/Core/Src/usbd_ctlreq.c ****       break;
 961              		.loc 1 459 0
 962 014a 04E0     		b	.L98
ARM GAS  /tmp/cciTHAML.s 			page 26


 963              	.L90:
 460:Middlewares/ST/STM32_USB_Device_Library/Core/Src/usbd_ctlreq.c **** 
 461:Middlewares/ST/STM32_USB_Device_Library/Core/Src/usbd_ctlreq.c ****     default:
 462:Middlewares/ST/STM32_USB_Device_Library/Core/Src/usbd_ctlreq.c **** #if (USBD_SUPPORT_USER_STRING == 1U)
 463:Middlewares/ST/STM32_USB_Device_Library/Core/Src/usbd_ctlreq.c ****       pbuf = pdev->pClass->GetUsrStrDescriptor(pdev, (req->wValue) , &len);
 464:Middlewares/ST/STM32_USB_Device_Library/Core/Src/usbd_ctlreq.c ****       break;
 465:Middlewares/ST/STM32_USB_Device_Library/Core/Src/usbd_ctlreq.c **** #else
 466:Middlewares/ST/STM32_USB_Device_Library/Core/Src/usbd_ctlreq.c ****        USBD_CtlError(pdev , req);
 964              		.loc 1 466 0
 965 014c 3968     		ldr	r1, [r7]
 966 014e 7868     		ldr	r0, [r7, #4]
 967 0150 FFF7FEFF 		bl	USBD_CtlError
 467:Middlewares/ST/STM32_USB_Device_Library/Core/Src/usbd_ctlreq.c ****       return;
 968              		.loc 1 467 0
 969 0154 4BE0     		b	.L79
 970              	.L98:
 468:Middlewares/ST/STM32_USB_Device_Library/Core/Src/usbd_ctlreq.c **** #endif
 469:Middlewares/ST/STM32_USB_Device_Library/Core/Src/usbd_ctlreq.c ****     }
 470:Middlewares/ST/STM32_USB_Device_Library/Core/Src/usbd_ctlreq.c ****     break;
 971              		.loc 1 470 0
 972 0156 2EE0     		b	.L87
 973              	.L85:
 471:Middlewares/ST/STM32_USB_Device_Library/Core/Src/usbd_ctlreq.c ****   case USB_DESC_TYPE_DEVICE_QUALIFIER:
 472:Middlewares/ST/STM32_USB_Device_Library/Core/Src/usbd_ctlreq.c **** 
 473:Middlewares/ST/STM32_USB_Device_Library/Core/Src/usbd_ctlreq.c ****     if(pdev->dev_speed == USBD_SPEED_HIGH)
 974              		.loc 1 473 0
 975 0158 7B68     		ldr	r3, [r7, #4]
 976 015a 1B7C     		ldrb	r3, [r3, #16]	@ zero_extendqisi2
 977 015c 002B     		cmp	r3, #0
 978 015e 09D1     		bne	.L100
 474:Middlewares/ST/STM32_USB_Device_Library/Core/Src/usbd_ctlreq.c ****     {
 475:Middlewares/ST/STM32_USB_Device_Library/Core/Src/usbd_ctlreq.c ****       pbuf = (uint8_t *)pdev->pClass->GetDeviceQualifierDescriptor(&len);
 979              		.loc 1 475 0
 980 0160 7B68     		ldr	r3, [r7, #4]
 981 0162 D3F88C32 		ldr	r3, [r3, #652]
 982 0166 5B6B     		ldr	r3, [r3, #52]
 983 0168 07F10A02 		add	r2, r7, #10
 984 016c 1046     		mov	r0, r2
 985 016e 9847     		blx	r3
 986              	.LVL13:
 987 0170 F860     		str	r0, [r7, #12]
 476:Middlewares/ST/STM32_USB_Device_Library/Core/Src/usbd_ctlreq.c ****       break;
 988              		.loc 1 476 0
 989 0172 20E0     		b	.L87
 990              	.L100:
 477:Middlewares/ST/STM32_USB_Device_Library/Core/Src/usbd_ctlreq.c ****     }
 478:Middlewares/ST/STM32_USB_Device_Library/Core/Src/usbd_ctlreq.c ****     else
 479:Middlewares/ST/STM32_USB_Device_Library/Core/Src/usbd_ctlreq.c ****     {
 480:Middlewares/ST/STM32_USB_Device_Library/Core/Src/usbd_ctlreq.c ****       USBD_CtlError(pdev , req);
 991              		.loc 1 480 0
 992 0174 3968     		ldr	r1, [r7]
 993 0176 7868     		ldr	r0, [r7, #4]
 994 0178 FFF7FEFF 		bl	USBD_CtlError
 481:Middlewares/ST/STM32_USB_Device_Library/Core/Src/usbd_ctlreq.c ****       return;
 995              		.loc 1 481 0
 996 017c 37E0     		b	.L79
 997              	.L86:
ARM GAS  /tmp/cciTHAML.s 			page 27


 482:Middlewares/ST/STM32_USB_Device_Library/Core/Src/usbd_ctlreq.c ****     }
 483:Middlewares/ST/STM32_USB_Device_Library/Core/Src/usbd_ctlreq.c **** 
 484:Middlewares/ST/STM32_USB_Device_Library/Core/Src/usbd_ctlreq.c ****   case USB_DESC_TYPE_OTHER_SPEED_CONFIGURATION:
 485:Middlewares/ST/STM32_USB_Device_Library/Core/Src/usbd_ctlreq.c ****     if(pdev->dev_speed == USBD_SPEED_HIGH  )
 998              		.loc 1 485 0
 999 017e 7B68     		ldr	r3, [r7, #4]
 1000 0180 1B7C     		ldrb	r3, [r3, #16]	@ zero_extendqisi2
 1001 0182 002B     		cmp	r3, #0
 1002 0184 0DD1     		bne	.L101
 486:Middlewares/ST/STM32_USB_Device_Library/Core/Src/usbd_ctlreq.c ****     {
 487:Middlewares/ST/STM32_USB_Device_Library/Core/Src/usbd_ctlreq.c ****       pbuf   = (uint8_t *)pdev->pClass->GetOtherSpeedConfigDescriptor(&len);
 1003              		.loc 1 487 0
 1004 0186 7B68     		ldr	r3, [r7, #4]
 1005 0188 D3F88C32 		ldr	r3, [r3, #652]
 1006 018c 1B6B     		ldr	r3, [r3, #48]
 1007 018e 07F10A02 		add	r2, r7, #10
 1008 0192 1046     		mov	r0, r2
 1009 0194 9847     		blx	r3
 1010              	.LVL14:
 1011 0196 F860     		str	r0, [r7, #12]
 488:Middlewares/ST/STM32_USB_Device_Library/Core/Src/usbd_ctlreq.c ****       pbuf[1] = USB_DESC_TYPE_OTHER_SPEED_CONFIGURATION;
 1012              		.loc 1 488 0
 1013 0198 FB68     		ldr	r3, [r7, #12]
 1014 019a 0133     		adds	r3, r3, #1
 1015 019c 0722     		movs	r2, #7
 1016 019e 1A70     		strb	r2, [r3]
 489:Middlewares/ST/STM32_USB_Device_Library/Core/Src/usbd_ctlreq.c ****       break;
 1017              		.loc 1 489 0
 1018 01a0 09E0     		b	.L87
 1019              	.L101:
 490:Middlewares/ST/STM32_USB_Device_Library/Core/Src/usbd_ctlreq.c ****     }
 491:Middlewares/ST/STM32_USB_Device_Library/Core/Src/usbd_ctlreq.c ****     else
 492:Middlewares/ST/STM32_USB_Device_Library/Core/Src/usbd_ctlreq.c ****     {
 493:Middlewares/ST/STM32_USB_Device_Library/Core/Src/usbd_ctlreq.c ****       USBD_CtlError(pdev , req);
 1020              		.loc 1 493 0
 1021 01a2 3968     		ldr	r1, [r7]
 1022 01a4 7868     		ldr	r0, [r7, #4]
 1023 01a6 FFF7FEFF 		bl	USBD_CtlError
 494:Middlewares/ST/STM32_USB_Device_Library/Core/Src/usbd_ctlreq.c ****       return;
 1024              		.loc 1 494 0
 1025 01aa 20E0     		b	.L79
 1026              	.L80:
 495:Middlewares/ST/STM32_USB_Device_Library/Core/Src/usbd_ctlreq.c ****     }
 496:Middlewares/ST/STM32_USB_Device_Library/Core/Src/usbd_ctlreq.c **** 
 497:Middlewares/ST/STM32_USB_Device_Library/Core/Src/usbd_ctlreq.c ****   default:
 498:Middlewares/ST/STM32_USB_Device_Library/Core/Src/usbd_ctlreq.c ****      USBD_CtlError(pdev , req);
 1027              		.loc 1 498 0
 1028 01ac 3968     		ldr	r1, [r7]
 1029 01ae 7868     		ldr	r0, [r7, #4]
 1030 01b0 FFF7FEFF 		bl	USBD_CtlError
 499:Middlewares/ST/STM32_USB_Device_Library/Core/Src/usbd_ctlreq.c ****     return;
 1031              		.loc 1 499 0
 1032 01b4 1BE0     		b	.L79
 1033              	.L87:
 500:Middlewares/ST/STM32_USB_Device_Library/Core/Src/usbd_ctlreq.c ****   }
 501:Middlewares/ST/STM32_USB_Device_Library/Core/Src/usbd_ctlreq.c **** 
 502:Middlewares/ST/STM32_USB_Device_Library/Core/Src/usbd_ctlreq.c ****   if((len != 0U) && (req->wLength != 0U))
ARM GAS  /tmp/cciTHAML.s 			page 28


 1034              		.loc 1 502 0
 1035 01b6 7B89     		ldrh	r3, [r7, #10]
 1036 01b8 002B     		cmp	r3, #0
 1037 01ba 11D0     		beq	.L102
 1038              		.loc 1 502 0 is_stmt 0 discriminator 1
 1039 01bc 3B68     		ldr	r3, [r7]
 1040 01be DB88     		ldrh	r3, [r3, #6]
 1041 01c0 002B     		cmp	r3, #0
 1042 01c2 0DD0     		beq	.L102
 503:Middlewares/ST/STM32_USB_Device_Library/Core/Src/usbd_ctlreq.c ****   {
 504:Middlewares/ST/STM32_USB_Device_Library/Core/Src/usbd_ctlreq.c **** 
 505:Middlewares/ST/STM32_USB_Device_Library/Core/Src/usbd_ctlreq.c ****     len = MIN(len, req->wLength);
 1043              		.loc 1 505 0 is_stmt 1
 1044 01c4 3B68     		ldr	r3, [r7]
 1045 01c6 DA88     		ldrh	r2, [r3, #6]
 1046 01c8 7B89     		ldrh	r3, [r7, #10]
 1047 01ca 9342     		cmp	r3, r2
 1048 01cc 28BF     		it	cs
 1049 01ce 1346     		movcs	r3, r2
 1050 01d0 9BB2     		uxth	r3, r3
 1051 01d2 7B81     		strh	r3, [r7, #10]	@ movhi
 506:Middlewares/ST/STM32_USB_Device_Library/Core/Src/usbd_ctlreq.c **** 
 507:Middlewares/ST/STM32_USB_Device_Library/Core/Src/usbd_ctlreq.c ****     USBD_CtlSendData (pdev, pbuf, len);
 1052              		.loc 1 507 0
 1053 01d4 7B89     		ldrh	r3, [r7, #10]
 1054 01d6 1A46     		mov	r2, r3
 1055 01d8 F968     		ldr	r1, [r7, #12]
 1056 01da 7868     		ldr	r0, [r7, #4]
 1057 01dc FFF7FEFF 		bl	USBD_CtlSendData
 1058              	.L102:
 508:Middlewares/ST/STM32_USB_Device_Library/Core/Src/usbd_ctlreq.c ****   }
 509:Middlewares/ST/STM32_USB_Device_Library/Core/Src/usbd_ctlreq.c **** 
 510:Middlewares/ST/STM32_USB_Device_Library/Core/Src/usbd_ctlreq.c ****   if(req->wLength == 0U)
 1059              		.loc 1 510 0
 1060 01e0 3B68     		ldr	r3, [r7]
 1061 01e2 DB88     		ldrh	r3, [r3, #6]
 1062 01e4 002B     		cmp	r3, #0
 1063 01e6 02D1     		bne	.L79
 511:Middlewares/ST/STM32_USB_Device_Library/Core/Src/usbd_ctlreq.c ****   {
 512:Middlewares/ST/STM32_USB_Device_Library/Core/Src/usbd_ctlreq.c ****    USBD_CtlSendStatus(pdev);
 1064              		.loc 1 512 0
 1065 01e8 7868     		ldr	r0, [r7, #4]
 1066 01ea FFF7FEFF 		bl	USBD_CtlSendStatus
 1067              	.L79:
 513:Middlewares/ST/STM32_USB_Device_Library/Core/Src/usbd_ctlreq.c ****   }
 514:Middlewares/ST/STM32_USB_Device_Library/Core/Src/usbd_ctlreq.c **** }
 1068              		.loc 1 514 0
 1069 01ee 1037     		adds	r7, r7, #16
 1070              	.LCFI18:
 1071              		.cfi_def_cfa_offset 8
 1072 01f0 BD46     		mov	sp, r7
 1073              	.LCFI19:
 1074              		.cfi_def_cfa_register 13
 1075              		@ sp needed
 1076 01f2 80BD     		pop	{r7, pc}
 1077              		.cfi_endproc
 1078              	.LFE136:
ARM GAS  /tmp/cciTHAML.s 			page 29


 1080              		.section	.text.USBD_SetAddress,"ax",%progbits
 1081              		.align	1
 1082              		.syntax unified
 1083              		.thumb
 1084              		.thumb_func
 1085              		.fpu fpv4-sp-d16
 1087              	USBD_SetAddress:
 1088              	.LFB137:
 515:Middlewares/ST/STM32_USB_Device_Library/Core/Src/usbd_ctlreq.c **** 
 516:Middlewares/ST/STM32_USB_Device_Library/Core/Src/usbd_ctlreq.c **** /**
 517:Middlewares/ST/STM32_USB_Device_Library/Core/Src/usbd_ctlreq.c **** * @brief  USBD_SetAddress
 518:Middlewares/ST/STM32_USB_Device_Library/Core/Src/usbd_ctlreq.c **** *         Set device address
 519:Middlewares/ST/STM32_USB_Device_Library/Core/Src/usbd_ctlreq.c **** * @param  pdev: device instance
 520:Middlewares/ST/STM32_USB_Device_Library/Core/Src/usbd_ctlreq.c **** * @param  req: usb request
 521:Middlewares/ST/STM32_USB_Device_Library/Core/Src/usbd_ctlreq.c **** * @retval status
 522:Middlewares/ST/STM32_USB_Device_Library/Core/Src/usbd_ctlreq.c **** */
 523:Middlewares/ST/STM32_USB_Device_Library/Core/Src/usbd_ctlreq.c **** static void USBD_SetAddress(USBD_HandleTypeDef *pdev ,
 524:Middlewares/ST/STM32_USB_Device_Library/Core/Src/usbd_ctlreq.c ****                             USBD_SetupReqTypedef *req)
 525:Middlewares/ST/STM32_USB_Device_Library/Core/Src/usbd_ctlreq.c **** {
 1089              		.loc 1 525 0
 1090              		.cfi_startproc
 1091              		@ args = 0, pretend = 0, frame = 16
 1092              		@ frame_needed = 1, uses_anonymous_args = 0
 1093 0000 80B5     		push	{r7, lr}
 1094              	.LCFI20:
 1095              		.cfi_def_cfa_offset 8
 1096              		.cfi_offset 7, -8
 1097              		.cfi_offset 14, -4
 1098 0002 84B0     		sub	sp, sp, #16
 1099              	.LCFI21:
 1100              		.cfi_def_cfa_offset 24
 1101 0004 00AF     		add	r7, sp, #0
 1102              	.LCFI22:
 1103              		.cfi_def_cfa_register 7
 1104 0006 7860     		str	r0, [r7, #4]
 1105 0008 3960     		str	r1, [r7]
 526:Middlewares/ST/STM32_USB_Device_Library/Core/Src/usbd_ctlreq.c ****   uint8_t  dev_addr;
 527:Middlewares/ST/STM32_USB_Device_Library/Core/Src/usbd_ctlreq.c **** 
 528:Middlewares/ST/STM32_USB_Device_Library/Core/Src/usbd_ctlreq.c ****   if ((req->wIndex == 0U) && (req->wLength == 0U) && (req->wValue < 128U))
 1106              		.loc 1 528 0
 1107 000a 3B68     		ldr	r3, [r7]
 1108 000c 9B88     		ldrh	r3, [r3, #4]
 1109 000e 002B     		cmp	r3, #0
 1110 0010 30D1     		bne	.L106
 1111              		.loc 1 528 0 is_stmt 0 discriminator 1
 1112 0012 3B68     		ldr	r3, [r7]
 1113 0014 DB88     		ldrh	r3, [r3, #6]
 1114 0016 002B     		cmp	r3, #0
 1115 0018 2CD1     		bne	.L106
 1116              		.loc 1 528 0 discriminator 2
 1117 001a 3B68     		ldr	r3, [r7]
 1118 001c 5B88     		ldrh	r3, [r3, #2]
 1119 001e 7F2B     		cmp	r3, #127
 1120 0020 28D8     		bhi	.L106
 529:Middlewares/ST/STM32_USB_Device_Library/Core/Src/usbd_ctlreq.c ****   {
 530:Middlewares/ST/STM32_USB_Device_Library/Core/Src/usbd_ctlreq.c ****     dev_addr = (uint8_t)(req->wValue) & 0x7FU;
 1121              		.loc 1 530 0 is_stmt 1
ARM GAS  /tmp/cciTHAML.s 			page 30


 1122 0022 3B68     		ldr	r3, [r7]
 1123 0024 5B88     		ldrh	r3, [r3, #2]
 1124 0026 DBB2     		uxtb	r3, r3
 1125 0028 03F07F03 		and	r3, r3, #127
 1126 002c FB73     		strb	r3, [r7, #15]
 531:Middlewares/ST/STM32_USB_Device_Library/Core/Src/usbd_ctlreq.c **** 
 532:Middlewares/ST/STM32_USB_Device_Library/Core/Src/usbd_ctlreq.c ****     if (pdev->dev_state == USBD_STATE_CONFIGURED)
 1127              		.loc 1 532 0
 1128 002e 7B68     		ldr	r3, [r7, #4]
 1129 0030 93F87432 		ldrb	r3, [r3, #628]	@ zero_extendqisi2
 1130 0034 032B     		cmp	r3, #3
 1131 0036 04D1     		bne	.L107
 533:Middlewares/ST/STM32_USB_Device_Library/Core/Src/usbd_ctlreq.c ****     {
 534:Middlewares/ST/STM32_USB_Device_Library/Core/Src/usbd_ctlreq.c ****       USBD_CtlError(pdev , req);
 1132              		.loc 1 534 0
 1133 0038 3968     		ldr	r1, [r7]
 1134 003a 7868     		ldr	r0, [r7, #4]
 1135 003c FFF7FEFF 		bl	USBD_CtlError
 532:Middlewares/ST/STM32_USB_Device_Library/Core/Src/usbd_ctlreq.c ****     {
 1136              		.loc 1 532 0
 1137 0040 1CE0     		b	.L110
 1138              	.L107:
 535:Middlewares/ST/STM32_USB_Device_Library/Core/Src/usbd_ctlreq.c ****     }
 536:Middlewares/ST/STM32_USB_Device_Library/Core/Src/usbd_ctlreq.c ****     else
 537:Middlewares/ST/STM32_USB_Device_Library/Core/Src/usbd_ctlreq.c ****     {
 538:Middlewares/ST/STM32_USB_Device_Library/Core/Src/usbd_ctlreq.c ****       pdev->dev_address = dev_addr;
 1139              		.loc 1 538 0
 1140 0042 7B68     		ldr	r3, [r7, #4]
 1141 0044 FA7B     		ldrb	r2, [r7, #15]
 1142 0046 83F87622 		strb	r2, [r3, #630]
 539:Middlewares/ST/STM32_USB_Device_Library/Core/Src/usbd_ctlreq.c ****       USBD_LL_SetUSBAddress(pdev, dev_addr);
 1143              		.loc 1 539 0
 1144 004a FB7B     		ldrb	r3, [r7, #15]	@ zero_extendqisi2
 1145 004c 1946     		mov	r1, r3
 1146 004e 7868     		ldr	r0, [r7, #4]
 1147 0050 FFF7FEFF 		bl	USBD_LL_SetUSBAddress
 540:Middlewares/ST/STM32_USB_Device_Library/Core/Src/usbd_ctlreq.c ****       USBD_CtlSendStatus(pdev);
 1148              		.loc 1 540 0
 1149 0054 7868     		ldr	r0, [r7, #4]
 1150 0056 FFF7FEFF 		bl	USBD_CtlSendStatus
 541:Middlewares/ST/STM32_USB_Device_Library/Core/Src/usbd_ctlreq.c **** 
 542:Middlewares/ST/STM32_USB_Device_Library/Core/Src/usbd_ctlreq.c ****       if (dev_addr != 0U)
 1151              		.loc 1 542 0
 1152 005a FB7B     		ldrb	r3, [r7, #15]	@ zero_extendqisi2
 1153 005c 002B     		cmp	r3, #0
 1154 005e 04D0     		beq	.L109
 543:Middlewares/ST/STM32_USB_Device_Library/Core/Src/usbd_ctlreq.c ****       {
 544:Middlewares/ST/STM32_USB_Device_Library/Core/Src/usbd_ctlreq.c ****         pdev->dev_state = USBD_STATE_ADDRESSED;
 1155              		.loc 1 544 0
 1156 0060 7B68     		ldr	r3, [r7, #4]
 1157 0062 0222     		movs	r2, #2
 1158 0064 83F87422 		strb	r2, [r3, #628]
 532:Middlewares/ST/STM32_USB_Device_Library/Core/Src/usbd_ctlreq.c ****     {
 1159              		.loc 1 532 0
 1160 0068 08E0     		b	.L110
 1161              	.L109:
 545:Middlewares/ST/STM32_USB_Device_Library/Core/Src/usbd_ctlreq.c ****       }
ARM GAS  /tmp/cciTHAML.s 			page 31


 546:Middlewares/ST/STM32_USB_Device_Library/Core/Src/usbd_ctlreq.c ****       else
 547:Middlewares/ST/STM32_USB_Device_Library/Core/Src/usbd_ctlreq.c ****       {
 548:Middlewares/ST/STM32_USB_Device_Library/Core/Src/usbd_ctlreq.c ****         pdev->dev_state = USBD_STATE_DEFAULT;
 1162              		.loc 1 548 0
 1163 006a 7B68     		ldr	r3, [r7, #4]
 1164 006c 0122     		movs	r2, #1
 1165 006e 83F87422 		strb	r2, [r3, #628]
 532:Middlewares/ST/STM32_USB_Device_Library/Core/Src/usbd_ctlreq.c ****     {
 1166              		.loc 1 532 0
 1167 0072 03E0     		b	.L110
 1168              	.L106:
 549:Middlewares/ST/STM32_USB_Device_Library/Core/Src/usbd_ctlreq.c ****       }
 550:Middlewares/ST/STM32_USB_Device_Library/Core/Src/usbd_ctlreq.c ****     }
 551:Middlewares/ST/STM32_USB_Device_Library/Core/Src/usbd_ctlreq.c ****   }
 552:Middlewares/ST/STM32_USB_Device_Library/Core/Src/usbd_ctlreq.c ****   else
 553:Middlewares/ST/STM32_USB_Device_Library/Core/Src/usbd_ctlreq.c ****   {
 554:Middlewares/ST/STM32_USB_Device_Library/Core/Src/usbd_ctlreq.c ****     USBD_CtlError(pdev, req);
 1169              		.loc 1 554 0
 1170 0074 3968     		ldr	r1, [r7]
 1171 0076 7868     		ldr	r0, [r7, #4]
 1172 0078 FFF7FEFF 		bl	USBD_CtlError
 1173              	.L110:
 555:Middlewares/ST/STM32_USB_Device_Library/Core/Src/usbd_ctlreq.c ****   }
 556:Middlewares/ST/STM32_USB_Device_Library/Core/Src/usbd_ctlreq.c **** }
 1174              		.loc 1 556 0
 1175 007c 00BF     		nop
 1176 007e 1037     		adds	r7, r7, #16
 1177              	.LCFI23:
 1178              		.cfi_def_cfa_offset 8
 1179 0080 BD46     		mov	sp, r7
 1180              	.LCFI24:
 1181              		.cfi_def_cfa_register 13
 1182              		@ sp needed
 1183 0082 80BD     		pop	{r7, pc}
 1184              		.cfi_endproc
 1185              	.LFE137:
 1187              		.section	.text.USBD_SetConfig,"ax",%progbits
 1188              		.align	1
 1189              		.syntax unified
 1190              		.thumb
 1191              		.thumb_func
 1192              		.fpu fpv4-sp-d16
 1194              	USBD_SetConfig:
 1195              	.LFB138:
 557:Middlewares/ST/STM32_USB_Device_Library/Core/Src/usbd_ctlreq.c **** 
 558:Middlewares/ST/STM32_USB_Device_Library/Core/Src/usbd_ctlreq.c **** /**
 559:Middlewares/ST/STM32_USB_Device_Library/Core/Src/usbd_ctlreq.c **** * @brief  USBD_SetConfig
 560:Middlewares/ST/STM32_USB_Device_Library/Core/Src/usbd_ctlreq.c **** *         Handle Set device configuration request
 561:Middlewares/ST/STM32_USB_Device_Library/Core/Src/usbd_ctlreq.c **** * @param  pdev: device instance
 562:Middlewares/ST/STM32_USB_Device_Library/Core/Src/usbd_ctlreq.c **** * @param  req: usb request
 563:Middlewares/ST/STM32_USB_Device_Library/Core/Src/usbd_ctlreq.c **** * @retval status
 564:Middlewares/ST/STM32_USB_Device_Library/Core/Src/usbd_ctlreq.c **** */
 565:Middlewares/ST/STM32_USB_Device_Library/Core/Src/usbd_ctlreq.c **** static void USBD_SetConfig(USBD_HandleTypeDef *pdev, USBD_SetupReqTypedef *req)
 566:Middlewares/ST/STM32_USB_Device_Library/Core/Src/usbd_ctlreq.c **** {
 1196              		.loc 1 566 0
 1197              		.cfi_startproc
 1198              		@ args = 0, pretend = 0, frame = 8
ARM GAS  /tmp/cciTHAML.s 			page 32


 1199              		@ frame_needed = 1, uses_anonymous_args = 0
 1200 0000 80B5     		push	{r7, lr}
 1201              	.LCFI25:
 1202              		.cfi_def_cfa_offset 8
 1203              		.cfi_offset 7, -8
 1204              		.cfi_offset 14, -4
 1205 0002 82B0     		sub	sp, sp, #8
 1206              	.LCFI26:
 1207              		.cfi_def_cfa_offset 16
 1208 0004 00AF     		add	r7, sp, #0
 1209              	.LCFI27:
 1210              		.cfi_def_cfa_register 7
 1211 0006 7860     		str	r0, [r7, #4]
 1212 0008 3960     		str	r1, [r7]
 567:Middlewares/ST/STM32_USB_Device_Library/Core/Src/usbd_ctlreq.c ****   static uint8_t cfgidx;
 568:Middlewares/ST/STM32_USB_Device_Library/Core/Src/usbd_ctlreq.c **** 
 569:Middlewares/ST/STM32_USB_Device_Library/Core/Src/usbd_ctlreq.c ****   cfgidx = (uint8_t)(req->wValue);
 1213              		.loc 1 569 0
 1214 000a 3B68     		ldr	r3, [r7]
 1215 000c 5B88     		ldrh	r3, [r3, #2]
 1216 000e DAB2     		uxtb	r2, r3
 1217 0010 414B     		ldr	r3, .L125
 1218 0012 1A70     		strb	r2, [r3]
 570:Middlewares/ST/STM32_USB_Device_Library/Core/Src/usbd_ctlreq.c **** 
 571:Middlewares/ST/STM32_USB_Device_Library/Core/Src/usbd_ctlreq.c ****   if (cfgidx > USBD_MAX_NUM_CONFIGURATION)
 1219              		.loc 1 571 0
 1220 0014 404B     		ldr	r3, .L125
 1221 0016 1B78     		ldrb	r3, [r3]	@ zero_extendqisi2
 1222 0018 012B     		cmp	r3, #1
 1223 001a 04D9     		bls	.L112
 572:Middlewares/ST/STM32_USB_Device_Library/Core/Src/usbd_ctlreq.c ****   {
 573:Middlewares/ST/STM32_USB_Device_Library/Core/Src/usbd_ctlreq.c ****     USBD_CtlError(pdev, req);
 1224              		.loc 1 573 0
 1225 001c 3968     		ldr	r1, [r7]
 1226 001e 7868     		ldr	r0, [r7, #4]
 1227 0020 FFF7FEFF 		bl	USBD_CtlError
 1228 0024 75E0     		b	.L111
 1229              	.L112:
 574:Middlewares/ST/STM32_USB_Device_Library/Core/Src/usbd_ctlreq.c ****   }
 575:Middlewares/ST/STM32_USB_Device_Library/Core/Src/usbd_ctlreq.c ****   else
 576:Middlewares/ST/STM32_USB_Device_Library/Core/Src/usbd_ctlreq.c ****   {
 577:Middlewares/ST/STM32_USB_Device_Library/Core/Src/usbd_ctlreq.c ****     switch (pdev->dev_state)
 1230              		.loc 1 577 0
 1231 0026 7B68     		ldr	r3, [r7, #4]
 1232 0028 93F87432 		ldrb	r3, [r3, #628]	@ zero_extendqisi2
 1233 002c 022B     		cmp	r3, #2
 1234 002e 02D0     		beq	.L115
 1235 0030 032B     		cmp	r3, #3
 1236 0032 23D0     		beq	.L116
 1237 0034 62E0     		b	.L124
 1238              	.L115:
 578:Middlewares/ST/STM32_USB_Device_Library/Core/Src/usbd_ctlreq.c ****     {
 579:Middlewares/ST/STM32_USB_Device_Library/Core/Src/usbd_ctlreq.c ****     case USBD_STATE_ADDRESSED:
 580:Middlewares/ST/STM32_USB_Device_Library/Core/Src/usbd_ctlreq.c ****       if (cfgidx)
 1239              		.loc 1 580 0
 1240 0036 384B     		ldr	r3, .L125
 1241 0038 1B78     		ldrb	r3, [r3]	@ zero_extendqisi2
ARM GAS  /tmp/cciTHAML.s 			page 33


 1242 003a 002B     		cmp	r3, #0
 1243 003c 1AD0     		beq	.L117
 581:Middlewares/ST/STM32_USB_Device_Library/Core/Src/usbd_ctlreq.c ****       {
 582:Middlewares/ST/STM32_USB_Device_Library/Core/Src/usbd_ctlreq.c ****         pdev->dev_config = cfgidx;
 1244              		.loc 1 582 0
 1245 003e 364B     		ldr	r3, .L125
 1246 0040 1B78     		ldrb	r3, [r3]	@ zero_extendqisi2
 1247 0042 1A46     		mov	r2, r3
 1248 0044 7B68     		ldr	r3, [r7, #4]
 1249 0046 5A60     		str	r2, [r3, #4]
 583:Middlewares/ST/STM32_USB_Device_Library/Core/Src/usbd_ctlreq.c ****         pdev->dev_state = USBD_STATE_CONFIGURED;
 1250              		.loc 1 583 0
 1251 0048 7B68     		ldr	r3, [r7, #4]
 1252 004a 0322     		movs	r2, #3
 1253 004c 83F87422 		strb	r2, [r3, #628]
 584:Middlewares/ST/STM32_USB_Device_Library/Core/Src/usbd_ctlreq.c ****         if(USBD_SetClassConfig(pdev, cfgidx) == USBD_FAIL)
 1254              		.loc 1 584 0
 1255 0050 314B     		ldr	r3, .L125
 1256 0052 1B78     		ldrb	r3, [r3]	@ zero_extendqisi2
 1257 0054 1946     		mov	r1, r3
 1258 0056 7868     		ldr	r0, [r7, #4]
 1259 0058 FFF7FEFF 		bl	USBD_SetClassConfig
 1260 005c 0346     		mov	r3, r0
 1261 005e 022B     		cmp	r3, #2
 1262 0060 04D1     		bne	.L118
 585:Middlewares/ST/STM32_USB_Device_Library/Core/Src/usbd_ctlreq.c ****         {
 586:Middlewares/ST/STM32_USB_Device_Library/Core/Src/usbd_ctlreq.c ****           USBD_CtlError(pdev, req);
 1263              		.loc 1 586 0
 1264 0062 3968     		ldr	r1, [r7]
 1265 0064 7868     		ldr	r0, [r7, #4]
 1266 0066 FFF7FEFF 		bl	USBD_CtlError
 587:Middlewares/ST/STM32_USB_Device_Library/Core/Src/usbd_ctlreq.c ****           return;
 1267              		.loc 1 587 0
 1268 006a 52E0     		b	.L111
 1269              	.L118:
 588:Middlewares/ST/STM32_USB_Device_Library/Core/Src/usbd_ctlreq.c ****         }
 589:Middlewares/ST/STM32_USB_Device_Library/Core/Src/usbd_ctlreq.c ****         USBD_CtlSendStatus(pdev);
 1270              		.loc 1 589 0
 1271 006c 7868     		ldr	r0, [r7, #4]
 1272 006e FFF7FEFF 		bl	USBD_CtlSendStatus
 590:Middlewares/ST/STM32_USB_Device_Library/Core/Src/usbd_ctlreq.c ****       }
 591:Middlewares/ST/STM32_USB_Device_Library/Core/Src/usbd_ctlreq.c ****       else
 592:Middlewares/ST/STM32_USB_Device_Library/Core/Src/usbd_ctlreq.c ****       {
 593:Middlewares/ST/STM32_USB_Device_Library/Core/Src/usbd_ctlreq.c ****         USBD_CtlSendStatus(pdev);
 594:Middlewares/ST/STM32_USB_Device_Library/Core/Src/usbd_ctlreq.c ****       }
 595:Middlewares/ST/STM32_USB_Device_Library/Core/Src/usbd_ctlreq.c ****       break;
 1273              		.loc 1 595 0
 1274 0072 4EE0     		b	.L111
 1275              	.L117:
 593:Middlewares/ST/STM32_USB_Device_Library/Core/Src/usbd_ctlreq.c ****       }
 1276              		.loc 1 593 0
 1277 0074 7868     		ldr	r0, [r7, #4]
 1278 0076 FFF7FEFF 		bl	USBD_CtlSendStatus
 1279              		.loc 1 595 0
 1280 007a 4AE0     		b	.L111
 1281              	.L116:
 596:Middlewares/ST/STM32_USB_Device_Library/Core/Src/usbd_ctlreq.c **** 
ARM GAS  /tmp/cciTHAML.s 			page 34


 597:Middlewares/ST/STM32_USB_Device_Library/Core/Src/usbd_ctlreq.c ****     case USBD_STATE_CONFIGURED:
 598:Middlewares/ST/STM32_USB_Device_Library/Core/Src/usbd_ctlreq.c ****       if (cfgidx == 0U)
 1282              		.loc 1 598 0
 1283 007c 264B     		ldr	r3, .L125
 1284 007e 1B78     		ldrb	r3, [r3]	@ zero_extendqisi2
 1285 0080 002B     		cmp	r3, #0
 1286 0082 12D1     		bne	.L120
 599:Middlewares/ST/STM32_USB_Device_Library/Core/Src/usbd_ctlreq.c ****       {
 600:Middlewares/ST/STM32_USB_Device_Library/Core/Src/usbd_ctlreq.c ****         pdev->dev_state = USBD_STATE_ADDRESSED;
 1287              		.loc 1 600 0
 1288 0084 7B68     		ldr	r3, [r7, #4]
 1289 0086 0222     		movs	r2, #2
 1290 0088 83F87422 		strb	r2, [r3, #628]
 601:Middlewares/ST/STM32_USB_Device_Library/Core/Src/usbd_ctlreq.c ****         pdev->dev_config = cfgidx;
 1291              		.loc 1 601 0
 1292 008c 224B     		ldr	r3, .L125
 1293 008e 1B78     		ldrb	r3, [r3]	@ zero_extendqisi2
 1294 0090 1A46     		mov	r2, r3
 1295 0092 7B68     		ldr	r3, [r7, #4]
 1296 0094 5A60     		str	r2, [r3, #4]
 602:Middlewares/ST/STM32_USB_Device_Library/Core/Src/usbd_ctlreq.c ****         USBD_ClrClassConfig(pdev, cfgidx);
 1297              		.loc 1 602 0
 1298 0096 204B     		ldr	r3, .L125
 1299 0098 1B78     		ldrb	r3, [r3]	@ zero_extendqisi2
 1300 009a 1946     		mov	r1, r3
 1301 009c 7868     		ldr	r0, [r7, #4]
 1302 009e FFF7FEFF 		bl	USBD_ClrClassConfig
 603:Middlewares/ST/STM32_USB_Device_Library/Core/Src/usbd_ctlreq.c ****         USBD_CtlSendStatus(pdev);
 1303              		.loc 1 603 0
 1304 00a2 7868     		ldr	r0, [r7, #4]
 1305 00a4 FFF7FEFF 		bl	USBD_CtlSendStatus
 604:Middlewares/ST/STM32_USB_Device_Library/Core/Src/usbd_ctlreq.c ****       }
 605:Middlewares/ST/STM32_USB_Device_Library/Core/Src/usbd_ctlreq.c ****       else if (cfgidx != pdev->dev_config)
 606:Middlewares/ST/STM32_USB_Device_Library/Core/Src/usbd_ctlreq.c ****       {
 607:Middlewares/ST/STM32_USB_Device_Library/Core/Src/usbd_ctlreq.c ****         /* Clear old configuration */
 608:Middlewares/ST/STM32_USB_Device_Library/Core/Src/usbd_ctlreq.c ****         USBD_ClrClassConfig(pdev, (uint8_t)pdev->dev_config);
 609:Middlewares/ST/STM32_USB_Device_Library/Core/Src/usbd_ctlreq.c **** 
 610:Middlewares/ST/STM32_USB_Device_Library/Core/Src/usbd_ctlreq.c ****         /* set new configuration */
 611:Middlewares/ST/STM32_USB_Device_Library/Core/Src/usbd_ctlreq.c ****         pdev->dev_config = cfgidx;
 612:Middlewares/ST/STM32_USB_Device_Library/Core/Src/usbd_ctlreq.c ****         if(USBD_SetClassConfig(pdev, cfgidx) == USBD_FAIL)
 613:Middlewares/ST/STM32_USB_Device_Library/Core/Src/usbd_ctlreq.c ****         {
 614:Middlewares/ST/STM32_USB_Device_Library/Core/Src/usbd_ctlreq.c ****           USBD_CtlError(pdev, req);
 615:Middlewares/ST/STM32_USB_Device_Library/Core/Src/usbd_ctlreq.c ****           return;
 616:Middlewares/ST/STM32_USB_Device_Library/Core/Src/usbd_ctlreq.c ****         }
 617:Middlewares/ST/STM32_USB_Device_Library/Core/Src/usbd_ctlreq.c ****         USBD_CtlSendStatus(pdev);
 618:Middlewares/ST/STM32_USB_Device_Library/Core/Src/usbd_ctlreq.c ****       }
 619:Middlewares/ST/STM32_USB_Device_Library/Core/Src/usbd_ctlreq.c ****       else
 620:Middlewares/ST/STM32_USB_Device_Library/Core/Src/usbd_ctlreq.c ****       {
 621:Middlewares/ST/STM32_USB_Device_Library/Core/Src/usbd_ctlreq.c ****         USBD_CtlSendStatus(pdev);
 622:Middlewares/ST/STM32_USB_Device_Library/Core/Src/usbd_ctlreq.c ****       }
 623:Middlewares/ST/STM32_USB_Device_Library/Core/Src/usbd_ctlreq.c ****       break;
 1306              		.loc 1 623 0
 1307 00a8 33E0     		b	.L111
 1308              	.L120:
 605:Middlewares/ST/STM32_USB_Device_Library/Core/Src/usbd_ctlreq.c ****       {
 1309              		.loc 1 605 0
 1310 00aa 1B4B     		ldr	r3, .L125
ARM GAS  /tmp/cciTHAML.s 			page 35


 1311 00ac 1B78     		ldrb	r3, [r3]	@ zero_extendqisi2
 1312 00ae 1A46     		mov	r2, r3
 1313 00b0 7B68     		ldr	r3, [r7, #4]
 1314 00b2 5B68     		ldr	r3, [r3, #4]
 1315 00b4 9A42     		cmp	r2, r3
 1316 00b6 1DD0     		beq	.L122
 608:Middlewares/ST/STM32_USB_Device_Library/Core/Src/usbd_ctlreq.c **** 
 1317              		.loc 1 608 0
 1318 00b8 7B68     		ldr	r3, [r7, #4]
 1319 00ba 5B68     		ldr	r3, [r3, #4]
 1320 00bc DBB2     		uxtb	r3, r3
 1321 00be 1946     		mov	r1, r3
 1322 00c0 7868     		ldr	r0, [r7, #4]
 1323 00c2 FFF7FEFF 		bl	USBD_ClrClassConfig
 611:Middlewares/ST/STM32_USB_Device_Library/Core/Src/usbd_ctlreq.c ****         if(USBD_SetClassConfig(pdev, cfgidx) == USBD_FAIL)
 1324              		.loc 1 611 0
 1325 00c6 144B     		ldr	r3, .L125
 1326 00c8 1B78     		ldrb	r3, [r3]	@ zero_extendqisi2
 1327 00ca 1A46     		mov	r2, r3
 1328 00cc 7B68     		ldr	r3, [r7, #4]
 1329 00ce 5A60     		str	r2, [r3, #4]
 612:Middlewares/ST/STM32_USB_Device_Library/Core/Src/usbd_ctlreq.c ****         {
 1330              		.loc 1 612 0
 1331 00d0 114B     		ldr	r3, .L125
 1332 00d2 1B78     		ldrb	r3, [r3]	@ zero_extendqisi2
 1333 00d4 1946     		mov	r1, r3
 1334 00d6 7868     		ldr	r0, [r7, #4]
 1335 00d8 FFF7FEFF 		bl	USBD_SetClassConfig
 1336 00dc 0346     		mov	r3, r0
 1337 00de 022B     		cmp	r3, #2
 1338 00e0 04D1     		bne	.L123
 614:Middlewares/ST/STM32_USB_Device_Library/Core/Src/usbd_ctlreq.c ****           return;
 1339              		.loc 1 614 0
 1340 00e2 3968     		ldr	r1, [r7]
 1341 00e4 7868     		ldr	r0, [r7, #4]
 1342 00e6 FFF7FEFF 		bl	USBD_CtlError
 615:Middlewares/ST/STM32_USB_Device_Library/Core/Src/usbd_ctlreq.c ****         }
 1343              		.loc 1 615 0
 1344 00ea 12E0     		b	.L111
 1345              	.L123:
 617:Middlewares/ST/STM32_USB_Device_Library/Core/Src/usbd_ctlreq.c ****       }
 1346              		.loc 1 617 0
 1347 00ec 7868     		ldr	r0, [r7, #4]
 1348 00ee FFF7FEFF 		bl	USBD_CtlSendStatus
 1349              		.loc 1 623 0
 1350 00f2 0EE0     		b	.L111
 1351              	.L122:
 621:Middlewares/ST/STM32_USB_Device_Library/Core/Src/usbd_ctlreq.c ****       }
 1352              		.loc 1 621 0
 1353 00f4 7868     		ldr	r0, [r7, #4]
 1354 00f6 FFF7FEFF 		bl	USBD_CtlSendStatus
 1355              		.loc 1 623 0
 1356 00fa 0AE0     		b	.L111
 1357              	.L124:
 624:Middlewares/ST/STM32_USB_Device_Library/Core/Src/usbd_ctlreq.c **** 
 625:Middlewares/ST/STM32_USB_Device_Library/Core/Src/usbd_ctlreq.c ****     default:
 626:Middlewares/ST/STM32_USB_Device_Library/Core/Src/usbd_ctlreq.c ****       USBD_CtlError(pdev, req);
ARM GAS  /tmp/cciTHAML.s 			page 36


 1358              		.loc 1 626 0
 1359 00fc 3968     		ldr	r1, [r7]
 1360 00fe 7868     		ldr	r0, [r7, #4]
 1361 0100 FFF7FEFF 		bl	USBD_CtlError
 627:Middlewares/ST/STM32_USB_Device_Library/Core/Src/usbd_ctlreq.c ****       USBD_ClrClassConfig(pdev, cfgidx);
 1362              		.loc 1 627 0
 1363 0104 044B     		ldr	r3, .L125
 1364 0106 1B78     		ldrb	r3, [r3]	@ zero_extendqisi2
 1365 0108 1946     		mov	r1, r3
 1366 010a 7868     		ldr	r0, [r7, #4]
 1367 010c FFF7FEFF 		bl	USBD_ClrClassConfig
 628:Middlewares/ST/STM32_USB_Device_Library/Core/Src/usbd_ctlreq.c ****       break;
 1368              		.loc 1 628 0
 1369 0110 00BF     		nop
 1370              	.L111:
 629:Middlewares/ST/STM32_USB_Device_Library/Core/Src/usbd_ctlreq.c ****     }
 630:Middlewares/ST/STM32_USB_Device_Library/Core/Src/usbd_ctlreq.c ****   }
 631:Middlewares/ST/STM32_USB_Device_Library/Core/Src/usbd_ctlreq.c **** }
 1371              		.loc 1 631 0
 1372 0112 0837     		adds	r7, r7, #8
 1373              	.LCFI28:
 1374              		.cfi_def_cfa_offset 8
 1375 0114 BD46     		mov	sp, r7
 1376              	.LCFI29:
 1377              		.cfi_def_cfa_register 13
 1378              		@ sp needed
 1379 0116 80BD     		pop	{r7, pc}
 1380              	.L126:
 1381              		.align	2
 1382              	.L125:
 1383 0118 00000000 		.word	cfgidx.9779
 1384              		.cfi_endproc
 1385              	.LFE138:
 1387              		.section	.text.USBD_GetConfig,"ax",%progbits
 1388              		.align	1
 1389              		.syntax unified
 1390              		.thumb
 1391              		.thumb_func
 1392              		.fpu fpv4-sp-d16
 1394              	USBD_GetConfig:
 1395              	.LFB139:
 632:Middlewares/ST/STM32_USB_Device_Library/Core/Src/usbd_ctlreq.c **** 
 633:Middlewares/ST/STM32_USB_Device_Library/Core/Src/usbd_ctlreq.c **** /**
 634:Middlewares/ST/STM32_USB_Device_Library/Core/Src/usbd_ctlreq.c **** * @brief  USBD_GetConfig
 635:Middlewares/ST/STM32_USB_Device_Library/Core/Src/usbd_ctlreq.c **** *         Handle Get device configuration request
 636:Middlewares/ST/STM32_USB_Device_Library/Core/Src/usbd_ctlreq.c **** * @param  pdev: device instance
 637:Middlewares/ST/STM32_USB_Device_Library/Core/Src/usbd_ctlreq.c **** * @param  req: usb request
 638:Middlewares/ST/STM32_USB_Device_Library/Core/Src/usbd_ctlreq.c **** * @retval status
 639:Middlewares/ST/STM32_USB_Device_Library/Core/Src/usbd_ctlreq.c **** */
 640:Middlewares/ST/STM32_USB_Device_Library/Core/Src/usbd_ctlreq.c **** static void USBD_GetConfig(USBD_HandleTypeDef *pdev, USBD_SetupReqTypedef *req)
 641:Middlewares/ST/STM32_USB_Device_Library/Core/Src/usbd_ctlreq.c **** {
 1396              		.loc 1 641 0
 1397              		.cfi_startproc
 1398              		@ args = 0, pretend = 0, frame = 8
 1399              		@ frame_needed = 1, uses_anonymous_args = 0
 1400 0000 80B5     		push	{r7, lr}
 1401              	.LCFI30:
ARM GAS  /tmp/cciTHAML.s 			page 37


 1402              		.cfi_def_cfa_offset 8
 1403              		.cfi_offset 7, -8
 1404              		.cfi_offset 14, -4
 1405 0002 82B0     		sub	sp, sp, #8
 1406              	.LCFI31:
 1407              		.cfi_def_cfa_offset 16
 1408 0004 00AF     		add	r7, sp, #0
 1409              	.LCFI32:
 1410              		.cfi_def_cfa_register 7
 1411 0006 7860     		str	r0, [r7, #4]
 1412 0008 3960     		str	r1, [r7]
 642:Middlewares/ST/STM32_USB_Device_Library/Core/Src/usbd_ctlreq.c ****   if (req->wLength != 1U)
 1413              		.loc 1 642 0
 1414 000a 3B68     		ldr	r3, [r7]
 1415 000c DB88     		ldrh	r3, [r3, #6]
 1416 000e 012B     		cmp	r3, #1
 1417 0010 04D0     		beq	.L128
 643:Middlewares/ST/STM32_USB_Device_Library/Core/Src/usbd_ctlreq.c ****   {
 644:Middlewares/ST/STM32_USB_Device_Library/Core/Src/usbd_ctlreq.c ****     USBD_CtlError(pdev , req);
 1418              		.loc 1 644 0
 1419 0012 3968     		ldr	r1, [r7]
 1420 0014 7868     		ldr	r0, [r7, #4]
 1421 0016 FFF7FEFF 		bl	USBD_CtlError
 645:Middlewares/ST/STM32_USB_Device_Library/Core/Src/usbd_ctlreq.c ****   }
 646:Middlewares/ST/STM32_USB_Device_Library/Core/Src/usbd_ctlreq.c ****   else
 647:Middlewares/ST/STM32_USB_Device_Library/Core/Src/usbd_ctlreq.c ****   {
 648:Middlewares/ST/STM32_USB_Device_Library/Core/Src/usbd_ctlreq.c ****     switch (pdev->dev_state)
 649:Middlewares/ST/STM32_USB_Device_Library/Core/Src/usbd_ctlreq.c ****     {
 650:Middlewares/ST/STM32_USB_Device_Library/Core/Src/usbd_ctlreq.c ****     case USBD_STATE_DEFAULT:
 651:Middlewares/ST/STM32_USB_Device_Library/Core/Src/usbd_ctlreq.c ****     case USBD_STATE_ADDRESSED:
 652:Middlewares/ST/STM32_USB_Device_Library/Core/Src/usbd_ctlreq.c ****       pdev->dev_default_config = 0U;
 653:Middlewares/ST/STM32_USB_Device_Library/Core/Src/usbd_ctlreq.c ****       USBD_CtlSendData (pdev, (uint8_t *)(void *)&pdev->dev_default_config, 1U);
 654:Middlewares/ST/STM32_USB_Device_Library/Core/Src/usbd_ctlreq.c ****       break;
 655:Middlewares/ST/STM32_USB_Device_Library/Core/Src/usbd_ctlreq.c **** 
 656:Middlewares/ST/STM32_USB_Device_Library/Core/Src/usbd_ctlreq.c ****     case USBD_STATE_CONFIGURED:
 657:Middlewares/ST/STM32_USB_Device_Library/Core/Src/usbd_ctlreq.c ****       USBD_CtlSendData (pdev, (uint8_t *)(void *)&pdev->dev_config, 1U);
 658:Middlewares/ST/STM32_USB_Device_Library/Core/Src/usbd_ctlreq.c ****       break;
 659:Middlewares/ST/STM32_USB_Device_Library/Core/Src/usbd_ctlreq.c **** 
 660:Middlewares/ST/STM32_USB_Device_Library/Core/Src/usbd_ctlreq.c ****     default:
 661:Middlewares/ST/STM32_USB_Device_Library/Core/Src/usbd_ctlreq.c ****       USBD_CtlError(pdev , req);
 662:Middlewares/ST/STM32_USB_Device_Library/Core/Src/usbd_ctlreq.c ****       break;
 663:Middlewares/ST/STM32_USB_Device_Library/Core/Src/usbd_ctlreq.c ****     }
 664:Middlewares/ST/STM32_USB_Device_Library/Core/Src/usbd_ctlreq.c ****   }
 665:Middlewares/ST/STM32_USB_Device_Library/Core/Src/usbd_ctlreq.c **** }
 1422              		.loc 1 665 0
 1423 001a 21E0     		b	.L133
 1424              	.L128:
 648:Middlewares/ST/STM32_USB_Device_Library/Core/Src/usbd_ctlreq.c ****     {
 1425              		.loc 1 648 0
 1426 001c 7B68     		ldr	r3, [r7, #4]
 1427 001e 93F87432 		ldrb	r3, [r3, #628]	@ zero_extendqisi2
 1428 0022 012B     		cmp	r3, #1
 1429 0024 17DB     		blt	.L130
 1430 0026 022B     		cmp	r3, #2
 1431 0028 02DD     		ble	.L131
 1432 002a 032B     		cmp	r3, #3
 1433 002c 0BD0     		beq	.L132
ARM GAS  /tmp/cciTHAML.s 			page 38


 1434 002e 12E0     		b	.L130
 1435              	.L131:
 652:Middlewares/ST/STM32_USB_Device_Library/Core/Src/usbd_ctlreq.c ****       USBD_CtlSendData (pdev, (uint8_t *)(void *)&pdev->dev_default_config, 1U);
 1436              		.loc 1 652 0
 1437 0030 7B68     		ldr	r3, [r7, #4]
 1438 0032 0022     		movs	r2, #0
 1439 0034 9A60     		str	r2, [r3, #8]
 653:Middlewares/ST/STM32_USB_Device_Library/Core/Src/usbd_ctlreq.c ****       break;
 1440              		.loc 1 653 0
 1441 0036 7B68     		ldr	r3, [r7, #4]
 1442 0038 0833     		adds	r3, r3, #8
 1443 003a 0122     		movs	r2, #1
 1444 003c 1946     		mov	r1, r3
 1445 003e 7868     		ldr	r0, [r7, #4]
 1446 0040 FFF7FEFF 		bl	USBD_CtlSendData
 654:Middlewares/ST/STM32_USB_Device_Library/Core/Src/usbd_ctlreq.c **** 
 1447              		.loc 1 654 0
 1448 0044 0CE0     		b	.L129
 1449              	.L132:
 657:Middlewares/ST/STM32_USB_Device_Library/Core/Src/usbd_ctlreq.c ****       break;
 1450              		.loc 1 657 0
 1451 0046 7B68     		ldr	r3, [r7, #4]
 1452 0048 0433     		adds	r3, r3, #4
 1453 004a 0122     		movs	r2, #1
 1454 004c 1946     		mov	r1, r3
 1455 004e 7868     		ldr	r0, [r7, #4]
 1456 0050 FFF7FEFF 		bl	USBD_CtlSendData
 658:Middlewares/ST/STM32_USB_Device_Library/Core/Src/usbd_ctlreq.c **** 
 1457              		.loc 1 658 0
 1458 0054 04E0     		b	.L129
 1459              	.L130:
 661:Middlewares/ST/STM32_USB_Device_Library/Core/Src/usbd_ctlreq.c ****       break;
 1460              		.loc 1 661 0
 1461 0056 3968     		ldr	r1, [r7]
 1462 0058 7868     		ldr	r0, [r7, #4]
 1463 005a FFF7FEFF 		bl	USBD_CtlError
 662:Middlewares/ST/STM32_USB_Device_Library/Core/Src/usbd_ctlreq.c ****     }
 1464              		.loc 1 662 0
 1465 005e 00BF     		nop
 1466              	.L129:
 1467              	.L133:
 1468              		.loc 1 665 0
 1469 0060 00BF     		nop
 1470 0062 0837     		adds	r7, r7, #8
 1471              	.LCFI33:
 1472              		.cfi_def_cfa_offset 8
 1473 0064 BD46     		mov	sp, r7
 1474              	.LCFI34:
 1475              		.cfi_def_cfa_register 13
 1476              		@ sp needed
 1477 0066 80BD     		pop	{r7, pc}
 1478              		.cfi_endproc
 1479              	.LFE139:
 1481              		.section	.text.USBD_GetStatus,"ax",%progbits
 1482              		.align	1
 1483              		.syntax unified
 1484              		.thumb
ARM GAS  /tmp/cciTHAML.s 			page 39


 1485              		.thumb_func
 1486              		.fpu fpv4-sp-d16
 1488              	USBD_GetStatus:
 1489              	.LFB140:
 666:Middlewares/ST/STM32_USB_Device_Library/Core/Src/usbd_ctlreq.c **** 
 667:Middlewares/ST/STM32_USB_Device_Library/Core/Src/usbd_ctlreq.c **** /**
 668:Middlewares/ST/STM32_USB_Device_Library/Core/Src/usbd_ctlreq.c **** * @brief  USBD_GetStatus
 669:Middlewares/ST/STM32_USB_Device_Library/Core/Src/usbd_ctlreq.c **** *         Handle Get Status request
 670:Middlewares/ST/STM32_USB_Device_Library/Core/Src/usbd_ctlreq.c **** * @param  pdev: device instance
 671:Middlewares/ST/STM32_USB_Device_Library/Core/Src/usbd_ctlreq.c **** * @param  req: usb request
 672:Middlewares/ST/STM32_USB_Device_Library/Core/Src/usbd_ctlreq.c **** * @retval status
 673:Middlewares/ST/STM32_USB_Device_Library/Core/Src/usbd_ctlreq.c **** */
 674:Middlewares/ST/STM32_USB_Device_Library/Core/Src/usbd_ctlreq.c **** static void USBD_GetStatus(USBD_HandleTypeDef *pdev, USBD_SetupReqTypedef *req)
 675:Middlewares/ST/STM32_USB_Device_Library/Core/Src/usbd_ctlreq.c **** {
 1490              		.loc 1 675 0
 1491              		.cfi_startproc
 1492              		@ args = 0, pretend = 0, frame = 8
 1493              		@ frame_needed = 1, uses_anonymous_args = 0
 1494 0000 80B5     		push	{r7, lr}
 1495              	.LCFI35:
 1496              		.cfi_def_cfa_offset 8
 1497              		.cfi_offset 7, -8
 1498              		.cfi_offset 14, -4
 1499 0002 82B0     		sub	sp, sp, #8
 1500              	.LCFI36:
 1501              		.cfi_def_cfa_offset 16
 1502 0004 00AF     		add	r7, sp, #0
 1503              	.LCFI37:
 1504              		.cfi_def_cfa_register 7
 1505 0006 7860     		str	r0, [r7, #4]
 1506 0008 3960     		str	r1, [r7]
 676:Middlewares/ST/STM32_USB_Device_Library/Core/Src/usbd_ctlreq.c ****   switch (pdev->dev_state)
 1507              		.loc 1 676 0
 1508 000a 7B68     		ldr	r3, [r7, #4]
 1509 000c 93F87432 		ldrb	r3, [r3, #628]	@ zero_extendqisi2
 1510 0010 013B     		subs	r3, r3, #1
 1511 0012 022B     		cmp	r3, #2
 1512 0014 1ED8     		bhi	.L135
 677:Middlewares/ST/STM32_USB_Device_Library/Core/Src/usbd_ctlreq.c ****   {
 678:Middlewares/ST/STM32_USB_Device_Library/Core/Src/usbd_ctlreq.c ****   case USBD_STATE_DEFAULT:
 679:Middlewares/ST/STM32_USB_Device_Library/Core/Src/usbd_ctlreq.c ****   case USBD_STATE_ADDRESSED:
 680:Middlewares/ST/STM32_USB_Device_Library/Core/Src/usbd_ctlreq.c ****   case USBD_STATE_CONFIGURED:
 681:Middlewares/ST/STM32_USB_Device_Library/Core/Src/usbd_ctlreq.c ****     if(req->wLength != 0x2U)
 1513              		.loc 1 681 0
 1514 0016 3B68     		ldr	r3, [r7]
 1515 0018 DB88     		ldrh	r3, [r3, #6]
 1516 001a 022B     		cmp	r3, #2
 1517 001c 04D0     		beq	.L137
 682:Middlewares/ST/STM32_USB_Device_Library/Core/Src/usbd_ctlreq.c ****     {
 683:Middlewares/ST/STM32_USB_Device_Library/Core/Src/usbd_ctlreq.c ****       USBD_CtlError(pdev, req);
 1518              		.loc 1 683 0
 1519 001e 3968     		ldr	r1, [r7]
 1520 0020 7868     		ldr	r0, [r7, #4]
 1521 0022 FFF7FEFF 		bl	USBD_CtlError
 684:Middlewares/ST/STM32_USB_Device_Library/Core/Src/usbd_ctlreq.c ****       break;
 1522              		.loc 1 684 0
 1523 0026 1AE0     		b	.L138
ARM GAS  /tmp/cciTHAML.s 			page 40


 1524              	.L137:
 685:Middlewares/ST/STM32_USB_Device_Library/Core/Src/usbd_ctlreq.c ****     }
 686:Middlewares/ST/STM32_USB_Device_Library/Core/Src/usbd_ctlreq.c **** 
 687:Middlewares/ST/STM32_USB_Device_Library/Core/Src/usbd_ctlreq.c **** #if ( USBD_SELF_POWERED == 1U)
 688:Middlewares/ST/STM32_USB_Device_Library/Core/Src/usbd_ctlreq.c ****     pdev->dev_config_status = USB_CONFIG_SELF_POWERED;
 1525              		.loc 1 688 0
 1526 0028 7B68     		ldr	r3, [r7, #4]
 1527 002a 0122     		movs	r2, #1
 1528 002c DA60     		str	r2, [r3, #12]
 689:Middlewares/ST/STM32_USB_Device_Library/Core/Src/usbd_ctlreq.c **** #else
 690:Middlewares/ST/STM32_USB_Device_Library/Core/Src/usbd_ctlreq.c ****     pdev->dev_config_status = 0U;
 691:Middlewares/ST/STM32_USB_Device_Library/Core/Src/usbd_ctlreq.c **** #endif
 692:Middlewares/ST/STM32_USB_Device_Library/Core/Src/usbd_ctlreq.c **** 
 693:Middlewares/ST/STM32_USB_Device_Library/Core/Src/usbd_ctlreq.c ****     if (pdev->dev_remote_wakeup)
 1529              		.loc 1 693 0
 1530 002e 7B68     		ldr	r3, [r7, #4]
 1531 0030 D3F87C32 		ldr	r3, [r3, #636]
 1532 0034 002B     		cmp	r3, #0
 1533 0036 05D0     		beq	.L139
 694:Middlewares/ST/STM32_USB_Device_Library/Core/Src/usbd_ctlreq.c ****     {
 695:Middlewares/ST/STM32_USB_Device_Library/Core/Src/usbd_ctlreq.c ****       pdev->dev_config_status |= USB_CONFIG_REMOTE_WAKEUP;
 1534              		.loc 1 695 0
 1535 0038 7B68     		ldr	r3, [r7, #4]
 1536 003a DB68     		ldr	r3, [r3, #12]
 1537 003c 43F00202 		orr	r2, r3, #2
 1538 0040 7B68     		ldr	r3, [r7, #4]
 1539 0042 DA60     		str	r2, [r3, #12]
 1540              	.L139:
 696:Middlewares/ST/STM32_USB_Device_Library/Core/Src/usbd_ctlreq.c ****     }
 697:Middlewares/ST/STM32_USB_Device_Library/Core/Src/usbd_ctlreq.c **** 
 698:Middlewares/ST/STM32_USB_Device_Library/Core/Src/usbd_ctlreq.c ****     USBD_CtlSendData (pdev, (uint8_t *)(void *)&pdev->dev_config_status, 2U);
 1541              		.loc 1 698 0
 1542 0044 7B68     		ldr	r3, [r7, #4]
 1543 0046 0C33     		adds	r3, r3, #12
 1544 0048 0222     		movs	r2, #2
 1545 004a 1946     		mov	r1, r3
 1546 004c 7868     		ldr	r0, [r7, #4]
 1547 004e FFF7FEFF 		bl	USBD_CtlSendData
 699:Middlewares/ST/STM32_USB_Device_Library/Core/Src/usbd_ctlreq.c ****     break;
 1548              		.loc 1 699 0
 1549 0052 04E0     		b	.L138
 1550              	.L135:
 700:Middlewares/ST/STM32_USB_Device_Library/Core/Src/usbd_ctlreq.c **** 
 701:Middlewares/ST/STM32_USB_Device_Library/Core/Src/usbd_ctlreq.c ****   default :
 702:Middlewares/ST/STM32_USB_Device_Library/Core/Src/usbd_ctlreq.c ****     USBD_CtlError(pdev , req);
 1551              		.loc 1 702 0
 1552 0054 3968     		ldr	r1, [r7]
 1553 0056 7868     		ldr	r0, [r7, #4]
 1554 0058 FFF7FEFF 		bl	USBD_CtlError
 703:Middlewares/ST/STM32_USB_Device_Library/Core/Src/usbd_ctlreq.c ****     break;
 1555              		.loc 1 703 0
 1556 005c 00BF     		nop
 1557              	.L138:
 704:Middlewares/ST/STM32_USB_Device_Library/Core/Src/usbd_ctlreq.c ****   }
 705:Middlewares/ST/STM32_USB_Device_Library/Core/Src/usbd_ctlreq.c **** }
 1558              		.loc 1 705 0
 1559 005e 00BF     		nop
ARM GAS  /tmp/cciTHAML.s 			page 41


 1560 0060 0837     		adds	r7, r7, #8
 1561              	.LCFI38:
 1562              		.cfi_def_cfa_offset 8
 1563 0062 BD46     		mov	sp, r7
 1564              	.LCFI39:
 1565              		.cfi_def_cfa_register 13
 1566              		@ sp needed
 1567 0064 80BD     		pop	{r7, pc}
 1568              		.cfi_endproc
 1569              	.LFE140:
 1571              		.section	.text.USBD_SetFeature,"ax",%progbits
 1572              		.align	1
 1573              		.syntax unified
 1574              		.thumb
 1575              		.thumb_func
 1576              		.fpu fpv4-sp-d16
 1578              	USBD_SetFeature:
 1579              	.LFB141:
 706:Middlewares/ST/STM32_USB_Device_Library/Core/Src/usbd_ctlreq.c **** 
 707:Middlewares/ST/STM32_USB_Device_Library/Core/Src/usbd_ctlreq.c **** 
 708:Middlewares/ST/STM32_USB_Device_Library/Core/Src/usbd_ctlreq.c **** /**
 709:Middlewares/ST/STM32_USB_Device_Library/Core/Src/usbd_ctlreq.c **** * @brief  USBD_SetFeature
 710:Middlewares/ST/STM32_USB_Device_Library/Core/Src/usbd_ctlreq.c **** *         Handle Set device feature request
 711:Middlewares/ST/STM32_USB_Device_Library/Core/Src/usbd_ctlreq.c **** * @param  pdev: device instance
 712:Middlewares/ST/STM32_USB_Device_Library/Core/Src/usbd_ctlreq.c **** * @param  req: usb request
 713:Middlewares/ST/STM32_USB_Device_Library/Core/Src/usbd_ctlreq.c **** * @retval status
 714:Middlewares/ST/STM32_USB_Device_Library/Core/Src/usbd_ctlreq.c **** */
 715:Middlewares/ST/STM32_USB_Device_Library/Core/Src/usbd_ctlreq.c **** static void USBD_SetFeature(USBD_HandleTypeDef *pdev ,
 716:Middlewares/ST/STM32_USB_Device_Library/Core/Src/usbd_ctlreq.c ****                             USBD_SetupReqTypedef *req)
 717:Middlewares/ST/STM32_USB_Device_Library/Core/Src/usbd_ctlreq.c **** {
 1580              		.loc 1 717 0
 1581              		.cfi_startproc
 1582              		@ args = 0, pretend = 0, frame = 8
 1583              		@ frame_needed = 1, uses_anonymous_args = 0
 1584 0000 80B5     		push	{r7, lr}
 1585              	.LCFI40:
 1586              		.cfi_def_cfa_offset 8
 1587              		.cfi_offset 7, -8
 1588              		.cfi_offset 14, -4
 1589 0002 82B0     		sub	sp, sp, #8
 1590              	.LCFI41:
 1591              		.cfi_def_cfa_offset 16
 1592 0004 00AF     		add	r7, sp, #0
 1593              	.LCFI42:
 1594              		.cfi_def_cfa_register 7
 1595 0006 7860     		str	r0, [r7, #4]
 1596 0008 3960     		str	r1, [r7]
 718:Middlewares/ST/STM32_USB_Device_Library/Core/Src/usbd_ctlreq.c **** 
 719:Middlewares/ST/STM32_USB_Device_Library/Core/Src/usbd_ctlreq.c ****   if (req->wValue == USB_FEATURE_REMOTE_WAKEUP)
 1597              		.loc 1 719 0
 1598 000a 3B68     		ldr	r3, [r7]
 1599 000c 5B88     		ldrh	r3, [r3, #2]
 1600 000e 012B     		cmp	r3, #1
 1601 0010 06D1     		bne	.L142
 720:Middlewares/ST/STM32_USB_Device_Library/Core/Src/usbd_ctlreq.c ****   {
 721:Middlewares/ST/STM32_USB_Device_Library/Core/Src/usbd_ctlreq.c ****     pdev->dev_remote_wakeup = 1U;
 1602              		.loc 1 721 0
ARM GAS  /tmp/cciTHAML.s 			page 42


 1603 0012 7B68     		ldr	r3, [r7, #4]
 1604 0014 0122     		movs	r2, #1
 1605 0016 C3F87C22 		str	r2, [r3, #636]
 722:Middlewares/ST/STM32_USB_Device_Library/Core/Src/usbd_ctlreq.c ****     USBD_CtlSendStatus(pdev);
 1606              		.loc 1 722 0
 1607 001a 7868     		ldr	r0, [r7, #4]
 1608 001c FFF7FEFF 		bl	USBD_CtlSendStatus
 1609              	.L142:
 723:Middlewares/ST/STM32_USB_Device_Library/Core/Src/usbd_ctlreq.c ****   }
 724:Middlewares/ST/STM32_USB_Device_Library/Core/Src/usbd_ctlreq.c **** 
 725:Middlewares/ST/STM32_USB_Device_Library/Core/Src/usbd_ctlreq.c **** }
 1610              		.loc 1 725 0
 1611 0020 00BF     		nop
 1612 0022 0837     		adds	r7, r7, #8
 1613              	.LCFI43:
 1614              		.cfi_def_cfa_offset 8
 1615 0024 BD46     		mov	sp, r7
 1616              	.LCFI44:
 1617              		.cfi_def_cfa_register 13
 1618              		@ sp needed
 1619 0026 80BD     		pop	{r7, pc}
 1620              		.cfi_endproc
 1621              	.LFE141:
 1623              		.section	.text.USBD_ClrFeature,"ax",%progbits
 1624              		.align	1
 1625              		.syntax unified
 1626              		.thumb
 1627              		.thumb_func
 1628              		.fpu fpv4-sp-d16
 1630              	USBD_ClrFeature:
 1631              	.LFB142:
 726:Middlewares/ST/STM32_USB_Device_Library/Core/Src/usbd_ctlreq.c **** 
 727:Middlewares/ST/STM32_USB_Device_Library/Core/Src/usbd_ctlreq.c **** 
 728:Middlewares/ST/STM32_USB_Device_Library/Core/Src/usbd_ctlreq.c **** /**
 729:Middlewares/ST/STM32_USB_Device_Library/Core/Src/usbd_ctlreq.c **** * @brief  USBD_ClrFeature
 730:Middlewares/ST/STM32_USB_Device_Library/Core/Src/usbd_ctlreq.c **** *         Handle clear device feature request
 731:Middlewares/ST/STM32_USB_Device_Library/Core/Src/usbd_ctlreq.c **** * @param  pdev: device instance
 732:Middlewares/ST/STM32_USB_Device_Library/Core/Src/usbd_ctlreq.c **** * @param  req: usb request
 733:Middlewares/ST/STM32_USB_Device_Library/Core/Src/usbd_ctlreq.c **** * @retval status
 734:Middlewares/ST/STM32_USB_Device_Library/Core/Src/usbd_ctlreq.c **** */
 735:Middlewares/ST/STM32_USB_Device_Library/Core/Src/usbd_ctlreq.c **** static void USBD_ClrFeature(USBD_HandleTypeDef *pdev ,
 736:Middlewares/ST/STM32_USB_Device_Library/Core/Src/usbd_ctlreq.c ****                             USBD_SetupReqTypedef *req)
 737:Middlewares/ST/STM32_USB_Device_Library/Core/Src/usbd_ctlreq.c **** {
 1632              		.loc 1 737 0
 1633              		.cfi_startproc
 1634              		@ args = 0, pretend = 0, frame = 8
 1635              		@ frame_needed = 1, uses_anonymous_args = 0
 1636 0000 80B5     		push	{r7, lr}
 1637              	.LCFI45:
 1638              		.cfi_def_cfa_offset 8
 1639              		.cfi_offset 7, -8
 1640              		.cfi_offset 14, -4
 1641 0002 82B0     		sub	sp, sp, #8
 1642              	.LCFI46:
 1643              		.cfi_def_cfa_offset 16
 1644 0004 00AF     		add	r7, sp, #0
 1645              	.LCFI47:
ARM GAS  /tmp/cciTHAML.s 			page 43


 1646              		.cfi_def_cfa_register 7
 1647 0006 7860     		str	r0, [r7, #4]
 1648 0008 3960     		str	r1, [r7]
 738:Middlewares/ST/STM32_USB_Device_Library/Core/Src/usbd_ctlreq.c ****   switch (pdev->dev_state)
 1649              		.loc 1 738 0
 1650 000a 7B68     		ldr	r3, [r7, #4]
 1651 000c 93F87432 		ldrb	r3, [r3, #628]	@ zero_extendqisi2
 1652 0010 013B     		subs	r3, r3, #1
 1653 0012 022B     		cmp	r3, #2
 1654 0014 0BD8     		bhi	.L144
 739:Middlewares/ST/STM32_USB_Device_Library/Core/Src/usbd_ctlreq.c ****   {
 740:Middlewares/ST/STM32_USB_Device_Library/Core/Src/usbd_ctlreq.c ****   case USBD_STATE_DEFAULT:
 741:Middlewares/ST/STM32_USB_Device_Library/Core/Src/usbd_ctlreq.c ****   case USBD_STATE_ADDRESSED:
 742:Middlewares/ST/STM32_USB_Device_Library/Core/Src/usbd_ctlreq.c ****   case USBD_STATE_CONFIGURED:
 743:Middlewares/ST/STM32_USB_Device_Library/Core/Src/usbd_ctlreq.c ****     if (req->wValue == USB_FEATURE_REMOTE_WAKEUP)
 1655              		.loc 1 743 0
 1656 0016 3B68     		ldr	r3, [r7]
 1657 0018 5B88     		ldrh	r3, [r3, #2]
 1658 001a 012B     		cmp	r3, #1
 1659 001c 0CD1     		bne	.L148
 744:Middlewares/ST/STM32_USB_Device_Library/Core/Src/usbd_ctlreq.c ****     {
 745:Middlewares/ST/STM32_USB_Device_Library/Core/Src/usbd_ctlreq.c ****       pdev->dev_remote_wakeup = 0U;
 1660              		.loc 1 745 0
 1661 001e 7B68     		ldr	r3, [r7, #4]
 1662 0020 0022     		movs	r2, #0
 1663 0022 C3F87C22 		str	r2, [r3, #636]
 746:Middlewares/ST/STM32_USB_Device_Library/Core/Src/usbd_ctlreq.c ****       USBD_CtlSendStatus(pdev);
 1664              		.loc 1 746 0
 1665 0026 7868     		ldr	r0, [r7, #4]
 1666 0028 FFF7FEFF 		bl	USBD_CtlSendStatus
 747:Middlewares/ST/STM32_USB_Device_Library/Core/Src/usbd_ctlreq.c ****     }
 748:Middlewares/ST/STM32_USB_Device_Library/Core/Src/usbd_ctlreq.c ****     break;
 1667              		.loc 1 748 0
 1668 002c 04E0     		b	.L148
 1669              	.L144:
 749:Middlewares/ST/STM32_USB_Device_Library/Core/Src/usbd_ctlreq.c **** 
 750:Middlewares/ST/STM32_USB_Device_Library/Core/Src/usbd_ctlreq.c ****   default :
 751:Middlewares/ST/STM32_USB_Device_Library/Core/Src/usbd_ctlreq.c ****      USBD_CtlError(pdev , req);
 1670              		.loc 1 751 0
 1671 002e 3968     		ldr	r1, [r7]
 1672 0030 7868     		ldr	r0, [r7, #4]
 1673 0032 FFF7FEFF 		bl	USBD_CtlError
 752:Middlewares/ST/STM32_USB_Device_Library/Core/Src/usbd_ctlreq.c ****     break;
 1674              		.loc 1 752 0
 1675 0036 00E0     		b	.L147
 1676              	.L148:
 748:Middlewares/ST/STM32_USB_Device_Library/Core/Src/usbd_ctlreq.c **** 
 1677              		.loc 1 748 0
 1678 0038 00BF     		nop
 1679              	.L147:
 753:Middlewares/ST/STM32_USB_Device_Library/Core/Src/usbd_ctlreq.c ****   }
 754:Middlewares/ST/STM32_USB_Device_Library/Core/Src/usbd_ctlreq.c **** }
 1680              		.loc 1 754 0
 1681 003a 00BF     		nop
 1682 003c 0837     		adds	r7, r7, #8
 1683              	.LCFI48:
 1684              		.cfi_def_cfa_offset 8
ARM GAS  /tmp/cciTHAML.s 			page 44


 1685 003e BD46     		mov	sp, r7
 1686              	.LCFI49:
 1687              		.cfi_def_cfa_register 13
 1688              		@ sp needed
 1689 0040 80BD     		pop	{r7, pc}
 1690              		.cfi_endproc
 1691              	.LFE142:
 1693              		.section	.text.USBD_ParseSetupRequest,"ax",%progbits
 1694              		.align	1
 1695              		.global	USBD_ParseSetupRequest
 1696              		.syntax unified
 1697              		.thumb
 1698              		.thumb_func
 1699              		.fpu fpv4-sp-d16
 1701              	USBD_ParseSetupRequest:
 1702              	.LFB143:
 755:Middlewares/ST/STM32_USB_Device_Library/Core/Src/usbd_ctlreq.c **** 
 756:Middlewares/ST/STM32_USB_Device_Library/Core/Src/usbd_ctlreq.c **** /**
 757:Middlewares/ST/STM32_USB_Device_Library/Core/Src/usbd_ctlreq.c **** * @brief  USBD_ParseSetupRequest
 758:Middlewares/ST/STM32_USB_Device_Library/Core/Src/usbd_ctlreq.c **** *         Copy buffer into setup structure
 759:Middlewares/ST/STM32_USB_Device_Library/Core/Src/usbd_ctlreq.c **** * @param  pdev: device instance
 760:Middlewares/ST/STM32_USB_Device_Library/Core/Src/usbd_ctlreq.c **** * @param  req: usb request
 761:Middlewares/ST/STM32_USB_Device_Library/Core/Src/usbd_ctlreq.c **** * @retval None
 762:Middlewares/ST/STM32_USB_Device_Library/Core/Src/usbd_ctlreq.c **** */
 763:Middlewares/ST/STM32_USB_Device_Library/Core/Src/usbd_ctlreq.c **** 
 764:Middlewares/ST/STM32_USB_Device_Library/Core/Src/usbd_ctlreq.c **** void USBD_ParseSetupRequest(USBD_SetupReqTypedef *req, uint8_t *pdata)
 765:Middlewares/ST/STM32_USB_Device_Library/Core/Src/usbd_ctlreq.c **** {
 1703              		.loc 1 765 0
 1704              		.cfi_startproc
 1705              		@ args = 0, pretend = 0, frame = 8
 1706              		@ frame_needed = 1, uses_anonymous_args = 0
 1707              		@ link register save eliminated.
 1708 0000 80B4     		push	{r7}
 1709              	.LCFI50:
 1710              		.cfi_def_cfa_offset 4
 1711              		.cfi_offset 7, -4
 1712 0002 83B0     		sub	sp, sp, #12
 1713              	.LCFI51:
 1714              		.cfi_def_cfa_offset 16
 1715 0004 00AF     		add	r7, sp, #0
 1716              	.LCFI52:
 1717              		.cfi_def_cfa_register 7
 1718 0006 7860     		str	r0, [r7, #4]
 1719 0008 3960     		str	r1, [r7]
 766:Middlewares/ST/STM32_USB_Device_Library/Core/Src/usbd_ctlreq.c ****   req->bmRequest     = *(uint8_t *)  (pdata);
 1720              		.loc 1 766 0
 1721 000a 3B68     		ldr	r3, [r7]
 1722 000c 1A78     		ldrb	r2, [r3]	@ zero_extendqisi2
 1723 000e 7B68     		ldr	r3, [r7, #4]
 1724 0010 1A70     		strb	r2, [r3]
 767:Middlewares/ST/STM32_USB_Device_Library/Core/Src/usbd_ctlreq.c ****   req->bRequest      = *(uint8_t *)  (pdata +  1);
 1725              		.loc 1 767 0
 1726 0012 3B68     		ldr	r3, [r7]
 1727 0014 5A78     		ldrb	r2, [r3, #1]	@ zero_extendqisi2
 1728 0016 7B68     		ldr	r3, [r7, #4]
 1729 0018 5A70     		strb	r2, [r3, #1]
 768:Middlewares/ST/STM32_USB_Device_Library/Core/Src/usbd_ctlreq.c ****   req->wValue        = SWAPBYTE      (pdata +  2);
ARM GAS  /tmp/cciTHAML.s 			page 45


 1730              		.loc 1 768 0
 1731 001a 3B68     		ldr	r3, [r7]
 1732 001c 0233     		adds	r3, r3, #2
 1733 001e 1B78     		ldrb	r3, [r3]	@ zero_extendqisi2
 1734 0020 9AB2     		uxth	r2, r3
 1735 0022 3B68     		ldr	r3, [r7]
 1736 0024 0333     		adds	r3, r3, #3
 1737 0026 1B78     		ldrb	r3, [r3]	@ zero_extendqisi2
 1738 0028 9BB2     		uxth	r3, r3
 1739 002a 1B02     		lsls	r3, r3, #8
 1740 002c 9BB2     		uxth	r3, r3
 1741 002e 1344     		add	r3, r3, r2
 1742 0030 9AB2     		uxth	r2, r3
 1743 0032 7B68     		ldr	r3, [r7, #4]
 1744 0034 5A80     		strh	r2, [r3, #2]	@ movhi
 769:Middlewares/ST/STM32_USB_Device_Library/Core/Src/usbd_ctlreq.c ****   req->wIndex        = SWAPBYTE      (pdata +  4);
 1745              		.loc 1 769 0
 1746 0036 3B68     		ldr	r3, [r7]
 1747 0038 0433     		adds	r3, r3, #4
 1748 003a 1B78     		ldrb	r3, [r3]	@ zero_extendqisi2
 1749 003c 9AB2     		uxth	r2, r3
 1750 003e 3B68     		ldr	r3, [r7]
 1751 0040 0533     		adds	r3, r3, #5
 1752 0042 1B78     		ldrb	r3, [r3]	@ zero_extendqisi2
 1753 0044 9BB2     		uxth	r3, r3
 1754 0046 1B02     		lsls	r3, r3, #8
 1755 0048 9BB2     		uxth	r3, r3
 1756 004a 1344     		add	r3, r3, r2
 1757 004c 9AB2     		uxth	r2, r3
 1758 004e 7B68     		ldr	r3, [r7, #4]
 1759 0050 9A80     		strh	r2, [r3, #4]	@ movhi
 770:Middlewares/ST/STM32_USB_Device_Library/Core/Src/usbd_ctlreq.c ****   req->wLength       = SWAPBYTE      (pdata +  6);
 1760              		.loc 1 770 0
 1761 0052 3B68     		ldr	r3, [r7]
 1762 0054 0633     		adds	r3, r3, #6
 1763 0056 1B78     		ldrb	r3, [r3]	@ zero_extendqisi2
 1764 0058 9AB2     		uxth	r2, r3
 1765 005a 3B68     		ldr	r3, [r7]
 1766 005c 0733     		adds	r3, r3, #7
 1767 005e 1B78     		ldrb	r3, [r3]	@ zero_extendqisi2
 1768 0060 9BB2     		uxth	r3, r3
 1769 0062 1B02     		lsls	r3, r3, #8
 1770 0064 9BB2     		uxth	r3, r3
 1771 0066 1344     		add	r3, r3, r2
 1772 0068 9AB2     		uxth	r2, r3
 1773 006a 7B68     		ldr	r3, [r7, #4]
 1774 006c DA80     		strh	r2, [r3, #6]	@ movhi
 771:Middlewares/ST/STM32_USB_Device_Library/Core/Src/usbd_ctlreq.c **** 
 772:Middlewares/ST/STM32_USB_Device_Library/Core/Src/usbd_ctlreq.c **** }
 1775              		.loc 1 772 0
 1776 006e 00BF     		nop
 1777 0070 0C37     		adds	r7, r7, #12
 1778              	.LCFI53:
 1779              		.cfi_def_cfa_offset 4
 1780 0072 BD46     		mov	sp, r7
 1781              	.LCFI54:
 1782              		.cfi_def_cfa_register 13
ARM GAS  /tmp/cciTHAML.s 			page 46


 1783              		@ sp needed
 1784 0074 5DF8047B 		ldr	r7, [sp], #4
 1785              	.LCFI55:
 1786              		.cfi_restore 7
 1787              		.cfi_def_cfa_offset 0
 1788 0078 7047     		bx	lr
 1789              		.cfi_endproc
 1790              	.LFE143:
 1792              		.section	.text.USBD_CtlError,"ax",%progbits
 1793              		.align	1
 1794              		.global	USBD_CtlError
 1795              		.syntax unified
 1796              		.thumb
 1797              		.thumb_func
 1798              		.fpu fpv4-sp-d16
 1800              	USBD_CtlError:
 1801              	.LFB144:
 773:Middlewares/ST/STM32_USB_Device_Library/Core/Src/usbd_ctlreq.c **** 
 774:Middlewares/ST/STM32_USB_Device_Library/Core/Src/usbd_ctlreq.c **** /**
 775:Middlewares/ST/STM32_USB_Device_Library/Core/Src/usbd_ctlreq.c **** * @brief  USBD_CtlError
 776:Middlewares/ST/STM32_USB_Device_Library/Core/Src/usbd_ctlreq.c **** *         Handle USB low level Error
 777:Middlewares/ST/STM32_USB_Device_Library/Core/Src/usbd_ctlreq.c **** * @param  pdev: device instance
 778:Middlewares/ST/STM32_USB_Device_Library/Core/Src/usbd_ctlreq.c **** * @param  req: usb request
 779:Middlewares/ST/STM32_USB_Device_Library/Core/Src/usbd_ctlreq.c **** * @retval None
 780:Middlewares/ST/STM32_USB_Device_Library/Core/Src/usbd_ctlreq.c **** */
 781:Middlewares/ST/STM32_USB_Device_Library/Core/Src/usbd_ctlreq.c **** 
 782:Middlewares/ST/STM32_USB_Device_Library/Core/Src/usbd_ctlreq.c **** void USBD_CtlError( USBD_HandleTypeDef *pdev ,
 783:Middlewares/ST/STM32_USB_Device_Library/Core/Src/usbd_ctlreq.c ****                             USBD_SetupReqTypedef *req)
 784:Middlewares/ST/STM32_USB_Device_Library/Core/Src/usbd_ctlreq.c **** {
 1802              		.loc 1 784 0
 1803              		.cfi_startproc
 1804              		@ args = 0, pretend = 0, frame = 8
 1805              		@ frame_needed = 1, uses_anonymous_args = 0
 1806 0000 80B5     		push	{r7, lr}
 1807              	.LCFI56:
 1808              		.cfi_def_cfa_offset 8
 1809              		.cfi_offset 7, -8
 1810              		.cfi_offset 14, -4
 1811 0002 82B0     		sub	sp, sp, #8
 1812              	.LCFI57:
 1813              		.cfi_def_cfa_offset 16
 1814 0004 00AF     		add	r7, sp, #0
 1815              	.LCFI58:
 1816              		.cfi_def_cfa_register 7
 1817 0006 7860     		str	r0, [r7, #4]
 1818 0008 3960     		str	r1, [r7]
 785:Middlewares/ST/STM32_USB_Device_Library/Core/Src/usbd_ctlreq.c ****   USBD_LL_StallEP(pdev , 0x80U);
 1819              		.loc 1 785 0
 1820 000a 8021     		movs	r1, #128
 1821 000c 7868     		ldr	r0, [r7, #4]
 1822 000e FFF7FEFF 		bl	USBD_LL_StallEP
 786:Middlewares/ST/STM32_USB_Device_Library/Core/Src/usbd_ctlreq.c ****   USBD_LL_StallEP(pdev , 0U);
 1823              		.loc 1 786 0
 1824 0012 0021     		movs	r1, #0
 1825 0014 7868     		ldr	r0, [r7, #4]
 1826 0016 FFF7FEFF 		bl	USBD_LL_StallEP
 787:Middlewares/ST/STM32_USB_Device_Library/Core/Src/usbd_ctlreq.c **** }
ARM GAS  /tmp/cciTHAML.s 			page 47


 1827              		.loc 1 787 0
 1828 001a 00BF     		nop
 1829 001c 0837     		adds	r7, r7, #8
 1830              	.LCFI59:
 1831              		.cfi_def_cfa_offset 8
 1832 001e BD46     		mov	sp, r7
 1833              	.LCFI60:
 1834              		.cfi_def_cfa_register 13
 1835              		@ sp needed
 1836 0020 80BD     		pop	{r7, pc}
 1837              		.cfi_endproc
 1838              	.LFE144:
 1840              		.section	.text.USBD_GetString,"ax",%progbits
 1841              		.align	1
 1842              		.global	USBD_GetString
 1843              		.syntax unified
 1844              		.thumb
 1845              		.thumb_func
 1846              		.fpu fpv4-sp-d16
 1848              	USBD_GetString:
 1849              	.LFB145:
 788:Middlewares/ST/STM32_USB_Device_Library/Core/Src/usbd_ctlreq.c **** 
 789:Middlewares/ST/STM32_USB_Device_Library/Core/Src/usbd_ctlreq.c **** 
 790:Middlewares/ST/STM32_USB_Device_Library/Core/Src/usbd_ctlreq.c **** /**
 791:Middlewares/ST/STM32_USB_Device_Library/Core/Src/usbd_ctlreq.c ****   * @brief  USBD_GetString
 792:Middlewares/ST/STM32_USB_Device_Library/Core/Src/usbd_ctlreq.c ****   *         Convert Ascii string into unicode one
 793:Middlewares/ST/STM32_USB_Device_Library/Core/Src/usbd_ctlreq.c ****   * @param  desc : descriptor buffer
 794:Middlewares/ST/STM32_USB_Device_Library/Core/Src/usbd_ctlreq.c ****   * @param  unicode : Formatted string buffer (unicode)
 795:Middlewares/ST/STM32_USB_Device_Library/Core/Src/usbd_ctlreq.c ****   * @param  len : descriptor length
 796:Middlewares/ST/STM32_USB_Device_Library/Core/Src/usbd_ctlreq.c ****   * @retval None
 797:Middlewares/ST/STM32_USB_Device_Library/Core/Src/usbd_ctlreq.c ****   */
 798:Middlewares/ST/STM32_USB_Device_Library/Core/Src/usbd_ctlreq.c **** void USBD_GetString(uint8_t *desc, uint8_t *unicode, uint16_t *len)
 799:Middlewares/ST/STM32_USB_Device_Library/Core/Src/usbd_ctlreq.c **** {
 1850              		.loc 1 799 0
 1851              		.cfi_startproc
 1852              		@ args = 0, pretend = 0, frame = 24
 1853              		@ frame_needed = 1, uses_anonymous_args = 0
 1854 0000 80B5     		push	{r7, lr}
 1855              	.LCFI61:
 1856              		.cfi_def_cfa_offset 8
 1857              		.cfi_offset 7, -8
 1858              		.cfi_offset 14, -4
 1859 0002 86B0     		sub	sp, sp, #24
 1860              	.LCFI62:
 1861              		.cfi_def_cfa_offset 32
 1862 0004 00AF     		add	r7, sp, #0
 1863              	.LCFI63:
 1864              		.cfi_def_cfa_register 7
 1865 0006 F860     		str	r0, [r7, #12]
 1866 0008 B960     		str	r1, [r7, #8]
 1867 000a 7A60     		str	r2, [r7, #4]
 800:Middlewares/ST/STM32_USB_Device_Library/Core/Src/usbd_ctlreq.c ****   uint8_t idx = 0U;
 1868              		.loc 1 800 0
 1869 000c 0023     		movs	r3, #0
 1870 000e FB75     		strb	r3, [r7, #23]
 801:Middlewares/ST/STM32_USB_Device_Library/Core/Src/usbd_ctlreq.c **** 
 802:Middlewares/ST/STM32_USB_Device_Library/Core/Src/usbd_ctlreq.c ****   if (desc != NULL)
ARM GAS  /tmp/cciTHAML.s 			page 48


 1871              		.loc 1 802 0
 1872 0010 FB68     		ldr	r3, [r7, #12]
 1873 0012 002B     		cmp	r3, #0
 1874 0014 32D0     		beq	.L155
 803:Middlewares/ST/STM32_USB_Device_Library/Core/Src/usbd_ctlreq.c ****   {
 804:Middlewares/ST/STM32_USB_Device_Library/Core/Src/usbd_ctlreq.c ****     *len = (uint16_t)USBD_GetLen(desc) * 2U + 2U;
 1875              		.loc 1 804 0
 1876 0016 F868     		ldr	r0, [r7, #12]
 1877 0018 FFF7FEFF 		bl	USBD_GetLen
 1878 001c 0346     		mov	r3, r0
 1879 001e 0133     		adds	r3, r3, #1
 1880 0020 9BB2     		uxth	r3, r3
 1881 0022 5B00     		lsls	r3, r3, #1
 1882 0024 9AB2     		uxth	r2, r3
 1883 0026 7B68     		ldr	r3, [r7, #4]
 1884 0028 1A80     		strh	r2, [r3]	@ movhi
 805:Middlewares/ST/STM32_USB_Device_Library/Core/Src/usbd_ctlreq.c ****     unicode[idx++] = *(uint8_t *)(void *)len;
 1885              		.loc 1 805 0
 1886 002a FB7D     		ldrb	r3, [r7, #23]	@ zero_extendqisi2
 1887 002c 5A1C     		adds	r2, r3, #1
 1888 002e FA75     		strb	r2, [r7, #23]
 1889 0030 1A46     		mov	r2, r3
 1890 0032 BB68     		ldr	r3, [r7, #8]
 1891 0034 1344     		add	r3, r3, r2
 1892 0036 7A68     		ldr	r2, [r7, #4]
 1893 0038 1278     		ldrb	r2, [r2]	@ zero_extendqisi2
 1894 003a 1A70     		strb	r2, [r3]
 806:Middlewares/ST/STM32_USB_Device_Library/Core/Src/usbd_ctlreq.c ****     unicode[idx++] = USB_DESC_TYPE_STRING;
 1895              		.loc 1 806 0
 1896 003c FB7D     		ldrb	r3, [r7, #23]	@ zero_extendqisi2
 1897 003e 5A1C     		adds	r2, r3, #1
 1898 0040 FA75     		strb	r2, [r7, #23]
 1899 0042 1A46     		mov	r2, r3
 1900 0044 BB68     		ldr	r3, [r7, #8]
 1901 0046 1344     		add	r3, r3, r2
 1902 0048 0322     		movs	r2, #3
 1903 004a 1A70     		strb	r2, [r3]
 807:Middlewares/ST/STM32_USB_Device_Library/Core/Src/usbd_ctlreq.c **** 
 808:Middlewares/ST/STM32_USB_Device_Library/Core/Src/usbd_ctlreq.c ****     while (*desc != '\0')
 1904              		.loc 1 808 0
 1905 004c 12E0     		b	.L153
 1906              	.L154:
 809:Middlewares/ST/STM32_USB_Device_Library/Core/Src/usbd_ctlreq.c ****     {
 810:Middlewares/ST/STM32_USB_Device_Library/Core/Src/usbd_ctlreq.c ****       unicode[idx++] = *desc++;
 1907              		.loc 1 810 0
 1908 004e FB68     		ldr	r3, [r7, #12]
 1909 0050 5A1C     		adds	r2, r3, #1
 1910 0052 FA60     		str	r2, [r7, #12]
 1911 0054 FA7D     		ldrb	r2, [r7, #23]	@ zero_extendqisi2
 1912 0056 511C     		adds	r1, r2, #1
 1913 0058 F975     		strb	r1, [r7, #23]
 1914 005a 1146     		mov	r1, r2
 1915 005c BA68     		ldr	r2, [r7, #8]
 1916 005e 0A44     		add	r2, r2, r1
 1917 0060 1B78     		ldrb	r3, [r3]	@ zero_extendqisi2
 1918 0062 1370     		strb	r3, [r2]
 811:Middlewares/ST/STM32_USB_Device_Library/Core/Src/usbd_ctlreq.c ****       unicode[idx++] =  0U;
ARM GAS  /tmp/cciTHAML.s 			page 49


 1919              		.loc 1 811 0
 1920 0064 FB7D     		ldrb	r3, [r7, #23]	@ zero_extendqisi2
 1921 0066 5A1C     		adds	r2, r3, #1
 1922 0068 FA75     		strb	r2, [r7, #23]
 1923 006a 1A46     		mov	r2, r3
 1924 006c BB68     		ldr	r3, [r7, #8]
 1925 006e 1344     		add	r3, r3, r2
 1926 0070 0022     		movs	r2, #0
 1927 0072 1A70     		strb	r2, [r3]
 1928              	.L153:
 808:Middlewares/ST/STM32_USB_Device_Library/Core/Src/usbd_ctlreq.c ****     {
 1929              		.loc 1 808 0
 1930 0074 FB68     		ldr	r3, [r7, #12]
 1931 0076 1B78     		ldrb	r3, [r3]	@ zero_extendqisi2
 1932 0078 002B     		cmp	r3, #0
 1933 007a E8D1     		bne	.L154
 1934              	.L155:
 812:Middlewares/ST/STM32_USB_Device_Library/Core/Src/usbd_ctlreq.c ****     }
 813:Middlewares/ST/STM32_USB_Device_Library/Core/Src/usbd_ctlreq.c ****   }
 814:Middlewares/ST/STM32_USB_Device_Library/Core/Src/usbd_ctlreq.c **** }
 1935              		.loc 1 814 0
 1936 007c 00BF     		nop
 1937 007e 1837     		adds	r7, r7, #24
 1938              	.LCFI64:
 1939              		.cfi_def_cfa_offset 8
 1940 0080 BD46     		mov	sp, r7
 1941              	.LCFI65:
 1942              		.cfi_def_cfa_register 13
 1943              		@ sp needed
 1944 0082 80BD     		pop	{r7, pc}
 1945              		.cfi_endproc
 1946              	.LFE145:
 1948              		.section	.text.USBD_GetLen,"ax",%progbits
 1949              		.align	1
 1950              		.syntax unified
 1951              		.thumb
 1952              		.thumb_func
 1953              		.fpu fpv4-sp-d16
 1955              	USBD_GetLen:
 1956              	.LFB146:
 815:Middlewares/ST/STM32_USB_Device_Library/Core/Src/usbd_ctlreq.c **** 
 816:Middlewares/ST/STM32_USB_Device_Library/Core/Src/usbd_ctlreq.c **** /**
 817:Middlewares/ST/STM32_USB_Device_Library/Core/Src/usbd_ctlreq.c ****   * @brief  USBD_GetLen
 818:Middlewares/ST/STM32_USB_Device_Library/Core/Src/usbd_ctlreq.c ****   *         return the string length
 819:Middlewares/ST/STM32_USB_Device_Library/Core/Src/usbd_ctlreq.c ****    * @param  buf : pointer to the ascii string buffer
 820:Middlewares/ST/STM32_USB_Device_Library/Core/Src/usbd_ctlreq.c ****   * @retval string length
 821:Middlewares/ST/STM32_USB_Device_Library/Core/Src/usbd_ctlreq.c ****   */
 822:Middlewares/ST/STM32_USB_Device_Library/Core/Src/usbd_ctlreq.c **** static uint8_t USBD_GetLen(uint8_t *buf)
 823:Middlewares/ST/STM32_USB_Device_Library/Core/Src/usbd_ctlreq.c **** {
 1957              		.loc 1 823 0
 1958              		.cfi_startproc
 1959              		@ args = 0, pretend = 0, frame = 16
 1960              		@ frame_needed = 1, uses_anonymous_args = 0
 1961              		@ link register save eliminated.
 1962 0000 80B4     		push	{r7}
 1963              	.LCFI66:
 1964              		.cfi_def_cfa_offset 4
ARM GAS  /tmp/cciTHAML.s 			page 50


 1965              		.cfi_offset 7, -4
 1966 0002 85B0     		sub	sp, sp, #20
 1967              	.LCFI67:
 1968              		.cfi_def_cfa_offset 24
 1969 0004 00AF     		add	r7, sp, #0
 1970              	.LCFI68:
 1971              		.cfi_def_cfa_register 7
 1972 0006 7860     		str	r0, [r7, #4]
 824:Middlewares/ST/STM32_USB_Device_Library/Core/Src/usbd_ctlreq.c ****     uint8_t  len = 0U;
 1973              		.loc 1 824 0
 1974 0008 0023     		movs	r3, #0
 1975 000a FB73     		strb	r3, [r7, #15]
 825:Middlewares/ST/STM32_USB_Device_Library/Core/Src/usbd_ctlreq.c **** 
 826:Middlewares/ST/STM32_USB_Device_Library/Core/Src/usbd_ctlreq.c ****     while (*buf != '\0')
 1976              		.loc 1 826 0
 1977 000c 05E0     		b	.L157
 1978              	.L158:
 827:Middlewares/ST/STM32_USB_Device_Library/Core/Src/usbd_ctlreq.c ****     {
 828:Middlewares/ST/STM32_USB_Device_Library/Core/Src/usbd_ctlreq.c ****         len++;
 1979              		.loc 1 828 0
 1980 000e FB7B     		ldrb	r3, [r7, #15]	@ zero_extendqisi2
 1981 0010 0133     		adds	r3, r3, #1
 1982 0012 FB73     		strb	r3, [r7, #15]
 829:Middlewares/ST/STM32_USB_Device_Library/Core/Src/usbd_ctlreq.c ****         buf++;
 1983              		.loc 1 829 0
 1984 0014 7B68     		ldr	r3, [r7, #4]
 1985 0016 0133     		adds	r3, r3, #1
 1986 0018 7B60     		str	r3, [r7, #4]
 1987              	.L157:
 826:Middlewares/ST/STM32_USB_Device_Library/Core/Src/usbd_ctlreq.c ****     {
 1988              		.loc 1 826 0
 1989 001a 7B68     		ldr	r3, [r7, #4]
 1990 001c 1B78     		ldrb	r3, [r3]	@ zero_extendqisi2
 1991 001e 002B     		cmp	r3, #0
 1992 0020 F5D1     		bne	.L158
 830:Middlewares/ST/STM32_USB_Device_Library/Core/Src/usbd_ctlreq.c ****     }
 831:Middlewares/ST/STM32_USB_Device_Library/Core/Src/usbd_ctlreq.c **** 
 832:Middlewares/ST/STM32_USB_Device_Library/Core/Src/usbd_ctlreq.c ****     return len;
 1993              		.loc 1 832 0
 1994 0022 FB7B     		ldrb	r3, [r7, #15]	@ zero_extendqisi2
 833:Middlewares/ST/STM32_USB_Device_Library/Core/Src/usbd_ctlreq.c **** }
 1995              		.loc 1 833 0
 1996 0024 1846     		mov	r0, r3
 1997 0026 1437     		adds	r7, r7, #20
 1998              	.LCFI69:
 1999              		.cfi_def_cfa_offset 4
 2000 0028 BD46     		mov	sp, r7
 2001              	.LCFI70:
 2002              		.cfi_def_cfa_register 13
 2003              		@ sp needed
 2004 002a 5DF8047B 		ldr	r7, [sp], #4
 2005              	.LCFI71:
 2006              		.cfi_restore 7
 2007              		.cfi_def_cfa_offset 0
 2008 002e 7047     		bx	lr
 2009              		.cfi_endproc
 2010              	.LFE146:
ARM GAS  /tmp/cciTHAML.s 			page 51


 2012              		.section	.bss.cfgidx.9779,"aw",%nobits
 2015              	cfgidx.9779:
 2016 0000 00       		.space	1
 2017              		.text
 2018              	.Letext0:
 2019              		.file 2 "/usr/arm-none-eabi/include/machine/_default_types.h"
 2020              		.file 3 "/usr/arm-none-eabi/include/sys/lock.h"
 2021              		.file 4 "/usr/arm-none-eabi/include/sys/_types.h"
 2022              		.file 5 "/usr/lib/gcc/arm-none-eabi/7.3.1/include/stddef.h"
 2023              		.file 6 "/usr/arm-none-eabi/include/sys/reent.h"
 2024              		.file 7 "/usr/arm-none-eabi/include/sys/_stdint.h"
 2025              		.file 8 "/usr/arm-none-eabi/include/stdlib.h"
 2026              		.file 9 "Drivers/CMSIS/Include/core_cm4.h"
 2027              		.file 10 "Drivers/CMSIS/Device/ST/STM32F4xx/Include/system_stm32f4xx.h"
 2028              		.file 11 "Drivers/STM32F4xx_HAL_Driver/Inc/stm32f4xx_hal.h"
 2029              		.file 12 "la/sampling.h"
 2030              		.file 13 "Middlewares/ST/STM32_USB_Device_Library/Core/Inc/usbd_def.h"
ARM GAS  /tmp/cciTHAML.s 			page 52


DEFINED SYMBOLS
                            *ABS*:0000000000000000 usbd_ctlreq.c
                            *COM*:0000000000000004 triggerMask
                            *COM*:0000000000000004 triggerValue
                            *COM*:0000000000000002 flags
                            *COM*:0000000000000002 period
                            *COM*:0000000000000004 transferSize
     /tmp/cciTHAML.s:23     .text.USBD_StdDevReq:0000000000000000 $t
     /tmp/cciTHAML.s:30     .text.USBD_StdDevReq:0000000000000000 USBD_StdDevReq
     /tmp/cciTHAML.s:85     .text.USBD_StdDevReq:0000000000000044 $d
     /tmp/cciTHAML.s:95     .text.USBD_StdDevReq:000000000000006c $t
     /tmp/cciTHAML.s:769    .text.USBD_GetDescriptor:0000000000000000 USBD_GetDescriptor
     /tmp/cciTHAML.s:1087   .text.USBD_SetAddress:0000000000000000 USBD_SetAddress
     /tmp/cciTHAML.s:1194   .text.USBD_SetConfig:0000000000000000 USBD_SetConfig
     /tmp/cciTHAML.s:1394   .text.USBD_GetConfig:0000000000000000 USBD_GetConfig
     /tmp/cciTHAML.s:1488   .text.USBD_GetStatus:0000000000000000 USBD_GetStatus
     /tmp/cciTHAML.s:1578   .text.USBD_SetFeature:0000000000000000 USBD_SetFeature
     /tmp/cciTHAML.s:1630   .text.USBD_ClrFeature:0000000000000000 USBD_ClrFeature
     /tmp/cciTHAML.s:1800   .text.USBD_CtlError:0000000000000000 USBD_CtlError
     /tmp/cciTHAML.s:179    .text.USBD_StdItfReq:0000000000000000 $t
     /tmp/cciTHAML.s:186    .text.USBD_StdItfReq:0000000000000000 USBD_StdItfReq
     /tmp/cciTHAML.s:299    .text.USBD_StdEPReq:0000000000000000 $t
     /tmp/cciTHAML.s:306    .text.USBD_StdEPReq:0000000000000000 USBD_StdEPReq
     /tmp/cciTHAML.s:763    .text.USBD_GetDescriptor:0000000000000000 $t
     /tmp/cciTHAML.s:800    .text.USBD_GetDescriptor:0000000000000020 $d
     /tmp/cciTHAML.s:807    .text.USBD_GetDescriptor:000000000000003c $t
     /tmp/cciTHAML.s:872    .text.USBD_GetDescriptor:00000000000000a4 $d
     /tmp/cciTHAML.s:878    .text.USBD_GetDescriptor:00000000000000bc $t
     /tmp/cciTHAML.s:1081   .text.USBD_SetAddress:0000000000000000 $t
     /tmp/cciTHAML.s:1188   .text.USBD_SetConfig:0000000000000000 $t
     /tmp/cciTHAML.s:1383   .text.USBD_SetConfig:0000000000000118 $d
     /tmp/cciTHAML.s:2015   .bss.cfgidx.9779:0000000000000000 cfgidx.9779
     /tmp/cciTHAML.s:1388   .text.USBD_GetConfig:0000000000000000 $t
     /tmp/cciTHAML.s:1482   .text.USBD_GetStatus:0000000000000000 $t
     /tmp/cciTHAML.s:1572   .text.USBD_SetFeature:0000000000000000 $t
     /tmp/cciTHAML.s:1624   .text.USBD_ClrFeature:0000000000000000 $t
     /tmp/cciTHAML.s:1694   .text.USBD_ParseSetupRequest:0000000000000000 $t
     /tmp/cciTHAML.s:1701   .text.USBD_ParseSetupRequest:0000000000000000 USBD_ParseSetupRequest
     /tmp/cciTHAML.s:1793   .text.USBD_CtlError:0000000000000000 $t
     /tmp/cciTHAML.s:1841   .text.USBD_GetString:0000000000000000 $t
     /tmp/cciTHAML.s:1848   .text.USBD_GetString:0000000000000000 USBD_GetString
     /tmp/cciTHAML.s:1955   .text.USBD_GetLen:0000000000000000 USBD_GetLen
     /tmp/cciTHAML.s:1949   .text.USBD_GetLen:0000000000000000 $t
     /tmp/cciTHAML.s:2016   .bss.cfgidx.9779:0000000000000000 $d

UNDEFINED SYMBOLS
USBD_CtlSendStatus
USBD_LL_StallEP
USBD_LL_ClearStallEP
USBD_CtlSendData
USBD_LL_IsStallEP
USBD_LL_SetUSBAddress
USBD_SetClassConfig
USBD_ClrClassConfig
