ARM GAS  /tmp/ccYcsBME.s 			page 1


   1              		.cpu cortex-m4
   2              		.eabi_attribute 27, 1
   3              		.eabi_attribute 28, 1
   4              		.eabi_attribute 20, 1
   5              		.eabi_attribute 21, 1
   6              		.eabi_attribute 23, 3
   7              		.eabi_attribute 24, 1
   8              		.eabi_attribute 25, 1
   9              		.eabi_attribute 26, 1
  10              		.eabi_attribute 30, 6
  11              		.eabi_attribute 34, 1
  12              		.eabi_attribute 18, 4
  13              		.file	"usbd_core.c"
  14              		.text
  15              	.Ltext0:
  16              		.cfi_sections	.debug_frame
  17              		.comm	triggerMask,4,4
  18              		.comm	triggerValue,4,4
  19              		.comm	flags,2,2
  20              		.comm	period,2,2
  21              		.comm	transferSize,4,4
  22              		.section	.text.USBD_Init,"ax",%progbits
  23              		.align	1
  24              		.global	USBD_Init
  25              		.syntax unified
  26              		.thumb
  27              		.thumb_func
  28              		.fpu fpv4-sp-d16
  30              	USBD_Init:
  31              	.LFB133:
  32              		.file 1 "Middlewares/ST/STM32_USB_Device_Library/Core/Src/usbd_core.c"
   1:Middlewares/ST/STM32_USB_Device_Library/Core/Src/usbd_core.c **** /**
   2:Middlewares/ST/STM32_USB_Device_Library/Core/Src/usbd_core.c ****   ******************************************************************************
   3:Middlewares/ST/STM32_USB_Device_Library/Core/Src/usbd_core.c ****   * @file    usbd_core.c
   4:Middlewares/ST/STM32_USB_Device_Library/Core/Src/usbd_core.c ****   * @author  MCD Application Team
   5:Middlewares/ST/STM32_USB_Device_Library/Core/Src/usbd_core.c ****   * @brief   This file provides all the USBD core functions.
   6:Middlewares/ST/STM32_USB_Device_Library/Core/Src/usbd_core.c ****   ******************************************************************************
   7:Middlewares/ST/STM32_USB_Device_Library/Core/Src/usbd_core.c ****   * @attention
   8:Middlewares/ST/STM32_USB_Device_Library/Core/Src/usbd_core.c ****   *
   9:Middlewares/ST/STM32_USB_Device_Library/Core/Src/usbd_core.c ****   * <h2><center>&copy; Copyright (c) 2015 STMicroelectronics.
  10:Middlewares/ST/STM32_USB_Device_Library/Core/Src/usbd_core.c ****   * All rights reserved.</center></h2>
  11:Middlewares/ST/STM32_USB_Device_Library/Core/Src/usbd_core.c ****   *
  12:Middlewares/ST/STM32_USB_Device_Library/Core/Src/usbd_core.c ****   * This software component is licensed by ST under Ultimate Liberty license
  13:Middlewares/ST/STM32_USB_Device_Library/Core/Src/usbd_core.c ****   * SLA0044, the "License"; You may not use this file except in compliance with
  14:Middlewares/ST/STM32_USB_Device_Library/Core/Src/usbd_core.c ****   * the License. You may obtain a copy of the License at:
  15:Middlewares/ST/STM32_USB_Device_Library/Core/Src/usbd_core.c ****   *                      http://www.st.com/SLA0044
  16:Middlewares/ST/STM32_USB_Device_Library/Core/Src/usbd_core.c ****   *
  17:Middlewares/ST/STM32_USB_Device_Library/Core/Src/usbd_core.c ****   ******************************************************************************
  18:Middlewares/ST/STM32_USB_Device_Library/Core/Src/usbd_core.c ****   */
  19:Middlewares/ST/STM32_USB_Device_Library/Core/Src/usbd_core.c **** 
  20:Middlewares/ST/STM32_USB_Device_Library/Core/Src/usbd_core.c **** /* Includes ------------------------------------------------------------------*/
  21:Middlewares/ST/STM32_USB_Device_Library/Core/Src/usbd_core.c **** #include "usbd_core.h"
  22:Middlewares/ST/STM32_USB_Device_Library/Core/Src/usbd_core.c **** 
  23:Middlewares/ST/STM32_USB_Device_Library/Core/Src/usbd_core.c **** /** @addtogroup STM32_USBD_DEVICE_LIBRARY
  24:Middlewares/ST/STM32_USB_Device_Library/Core/Src/usbd_core.c **** * @{
  25:Middlewares/ST/STM32_USB_Device_Library/Core/Src/usbd_core.c **** */
  26:Middlewares/ST/STM32_USB_Device_Library/Core/Src/usbd_core.c **** 
ARM GAS  /tmp/ccYcsBME.s 			page 2


  27:Middlewares/ST/STM32_USB_Device_Library/Core/Src/usbd_core.c **** 
  28:Middlewares/ST/STM32_USB_Device_Library/Core/Src/usbd_core.c **** /** @defgroup USBD_CORE
  29:Middlewares/ST/STM32_USB_Device_Library/Core/Src/usbd_core.c **** * @brief usbd core module
  30:Middlewares/ST/STM32_USB_Device_Library/Core/Src/usbd_core.c **** * @{
  31:Middlewares/ST/STM32_USB_Device_Library/Core/Src/usbd_core.c **** */
  32:Middlewares/ST/STM32_USB_Device_Library/Core/Src/usbd_core.c **** 
  33:Middlewares/ST/STM32_USB_Device_Library/Core/Src/usbd_core.c **** /** @defgroup USBD_CORE_Private_TypesDefinitions
  34:Middlewares/ST/STM32_USB_Device_Library/Core/Src/usbd_core.c **** * @{
  35:Middlewares/ST/STM32_USB_Device_Library/Core/Src/usbd_core.c **** */
  36:Middlewares/ST/STM32_USB_Device_Library/Core/Src/usbd_core.c **** /**
  37:Middlewares/ST/STM32_USB_Device_Library/Core/Src/usbd_core.c **** * @}
  38:Middlewares/ST/STM32_USB_Device_Library/Core/Src/usbd_core.c **** */
  39:Middlewares/ST/STM32_USB_Device_Library/Core/Src/usbd_core.c **** 
  40:Middlewares/ST/STM32_USB_Device_Library/Core/Src/usbd_core.c **** 
  41:Middlewares/ST/STM32_USB_Device_Library/Core/Src/usbd_core.c **** /** @defgroup USBD_CORE_Private_Defines
  42:Middlewares/ST/STM32_USB_Device_Library/Core/Src/usbd_core.c **** * @{
  43:Middlewares/ST/STM32_USB_Device_Library/Core/Src/usbd_core.c **** */
  44:Middlewares/ST/STM32_USB_Device_Library/Core/Src/usbd_core.c **** 
  45:Middlewares/ST/STM32_USB_Device_Library/Core/Src/usbd_core.c **** /**
  46:Middlewares/ST/STM32_USB_Device_Library/Core/Src/usbd_core.c **** * @}
  47:Middlewares/ST/STM32_USB_Device_Library/Core/Src/usbd_core.c **** */
  48:Middlewares/ST/STM32_USB_Device_Library/Core/Src/usbd_core.c **** 
  49:Middlewares/ST/STM32_USB_Device_Library/Core/Src/usbd_core.c **** 
  50:Middlewares/ST/STM32_USB_Device_Library/Core/Src/usbd_core.c **** /** @defgroup USBD_CORE_Private_Macros
  51:Middlewares/ST/STM32_USB_Device_Library/Core/Src/usbd_core.c **** * @{
  52:Middlewares/ST/STM32_USB_Device_Library/Core/Src/usbd_core.c **** */
  53:Middlewares/ST/STM32_USB_Device_Library/Core/Src/usbd_core.c **** /**
  54:Middlewares/ST/STM32_USB_Device_Library/Core/Src/usbd_core.c **** * @}
  55:Middlewares/ST/STM32_USB_Device_Library/Core/Src/usbd_core.c **** */
  56:Middlewares/ST/STM32_USB_Device_Library/Core/Src/usbd_core.c **** 
  57:Middlewares/ST/STM32_USB_Device_Library/Core/Src/usbd_core.c **** 
  58:Middlewares/ST/STM32_USB_Device_Library/Core/Src/usbd_core.c **** 
  59:Middlewares/ST/STM32_USB_Device_Library/Core/Src/usbd_core.c **** 
  60:Middlewares/ST/STM32_USB_Device_Library/Core/Src/usbd_core.c **** /** @defgroup USBD_CORE_Private_FunctionPrototypes
  61:Middlewares/ST/STM32_USB_Device_Library/Core/Src/usbd_core.c **** * @{
  62:Middlewares/ST/STM32_USB_Device_Library/Core/Src/usbd_core.c **** */
  63:Middlewares/ST/STM32_USB_Device_Library/Core/Src/usbd_core.c **** 
  64:Middlewares/ST/STM32_USB_Device_Library/Core/Src/usbd_core.c **** /**
  65:Middlewares/ST/STM32_USB_Device_Library/Core/Src/usbd_core.c **** * @}
  66:Middlewares/ST/STM32_USB_Device_Library/Core/Src/usbd_core.c **** */
  67:Middlewares/ST/STM32_USB_Device_Library/Core/Src/usbd_core.c **** 
  68:Middlewares/ST/STM32_USB_Device_Library/Core/Src/usbd_core.c **** /** @defgroup USBD_CORE_Private_Variables
  69:Middlewares/ST/STM32_USB_Device_Library/Core/Src/usbd_core.c **** * @{
  70:Middlewares/ST/STM32_USB_Device_Library/Core/Src/usbd_core.c **** */
  71:Middlewares/ST/STM32_USB_Device_Library/Core/Src/usbd_core.c **** 
  72:Middlewares/ST/STM32_USB_Device_Library/Core/Src/usbd_core.c **** /**
  73:Middlewares/ST/STM32_USB_Device_Library/Core/Src/usbd_core.c **** * @}
  74:Middlewares/ST/STM32_USB_Device_Library/Core/Src/usbd_core.c **** */
  75:Middlewares/ST/STM32_USB_Device_Library/Core/Src/usbd_core.c **** 
  76:Middlewares/ST/STM32_USB_Device_Library/Core/Src/usbd_core.c **** /** @defgroup USBD_CORE_Private_Functions
  77:Middlewares/ST/STM32_USB_Device_Library/Core/Src/usbd_core.c **** * @{
  78:Middlewares/ST/STM32_USB_Device_Library/Core/Src/usbd_core.c **** */
  79:Middlewares/ST/STM32_USB_Device_Library/Core/Src/usbd_core.c **** 
  80:Middlewares/ST/STM32_USB_Device_Library/Core/Src/usbd_core.c **** /**
  81:Middlewares/ST/STM32_USB_Device_Library/Core/Src/usbd_core.c **** * @brief  USBD_Init
  82:Middlewares/ST/STM32_USB_Device_Library/Core/Src/usbd_core.c **** *         Initializes the device stack and load the class driver
  83:Middlewares/ST/STM32_USB_Device_Library/Core/Src/usbd_core.c **** * @param  pdev: device instance
ARM GAS  /tmp/ccYcsBME.s 			page 3


  84:Middlewares/ST/STM32_USB_Device_Library/Core/Src/usbd_core.c **** * @param  pdesc: Descriptor structure address
  85:Middlewares/ST/STM32_USB_Device_Library/Core/Src/usbd_core.c **** * @param  id: Low level core index
  86:Middlewares/ST/STM32_USB_Device_Library/Core/Src/usbd_core.c **** * @retval None
  87:Middlewares/ST/STM32_USB_Device_Library/Core/Src/usbd_core.c **** */
  88:Middlewares/ST/STM32_USB_Device_Library/Core/Src/usbd_core.c **** USBD_StatusTypeDef USBD_Init(USBD_HandleTypeDef *pdev, USBD_DescriptorsTypeDef *pdesc, uint8_t id)
  89:Middlewares/ST/STM32_USB_Device_Library/Core/Src/usbd_core.c **** {
  33              		.loc 1 89 0
  34              		.cfi_startproc
  35              		@ args = 0, pretend = 0, frame = 16
  36              		@ frame_needed = 1, uses_anonymous_args = 0
  37 0000 80B5     		push	{r7, lr}
  38              	.LCFI0:
  39              		.cfi_def_cfa_offset 8
  40              		.cfi_offset 7, -8
  41              		.cfi_offset 14, -4
  42 0002 84B0     		sub	sp, sp, #16
  43              	.LCFI1:
  44              		.cfi_def_cfa_offset 24
  45 0004 00AF     		add	r7, sp, #0
  46              	.LCFI2:
  47              		.cfi_def_cfa_register 7
  48 0006 F860     		str	r0, [r7, #12]
  49 0008 B960     		str	r1, [r7, #8]
  50 000a 1346     		mov	r3, r2
  51 000c FB71     		strb	r3, [r7, #7]
  90:Middlewares/ST/STM32_USB_Device_Library/Core/Src/usbd_core.c ****   /* Check whether the USB Host handle is valid */
  91:Middlewares/ST/STM32_USB_Device_Library/Core/Src/usbd_core.c ****   if(pdev == NULL)
  52              		.loc 1 91 0
  53 000e FB68     		ldr	r3, [r7, #12]
  54 0010 002B     		cmp	r3, #0
  55 0012 01D1     		bne	.L2
  92:Middlewares/ST/STM32_USB_Device_Library/Core/Src/usbd_core.c ****   {
  93:Middlewares/ST/STM32_USB_Device_Library/Core/Src/usbd_core.c **** #if (USBD_DEBUG_LEVEL > 1U)
  94:Middlewares/ST/STM32_USB_Device_Library/Core/Src/usbd_core.c ****     USBD_ErrLog("Invalid Device handle");
  95:Middlewares/ST/STM32_USB_Device_Library/Core/Src/usbd_core.c **** #endif
  96:Middlewares/ST/STM32_USB_Device_Library/Core/Src/usbd_core.c ****     return USBD_FAIL;
  56              		.loc 1 96 0
  57 0014 0223     		movs	r3, #2
  58 0016 1AE0     		b	.L3
  59              	.L2:
  97:Middlewares/ST/STM32_USB_Device_Library/Core/Src/usbd_core.c ****   }
  98:Middlewares/ST/STM32_USB_Device_Library/Core/Src/usbd_core.c **** 
  99:Middlewares/ST/STM32_USB_Device_Library/Core/Src/usbd_core.c ****   /* Unlink previous class*/
 100:Middlewares/ST/STM32_USB_Device_Library/Core/Src/usbd_core.c ****   if(pdev->pClass != NULL)
  60              		.loc 1 100 0
  61 0018 FB68     		ldr	r3, [r7, #12]
  62 001a D3F88C32 		ldr	r3, [r3, #652]
  63 001e 002B     		cmp	r3, #0
  64 0020 03D0     		beq	.L4
 101:Middlewares/ST/STM32_USB_Device_Library/Core/Src/usbd_core.c ****   {
 102:Middlewares/ST/STM32_USB_Device_Library/Core/Src/usbd_core.c ****     pdev->pClass = NULL;
  65              		.loc 1 102 0
  66 0022 FB68     		ldr	r3, [r7, #12]
  67 0024 0022     		movs	r2, #0
  68 0026 C3F88C22 		str	r2, [r3, #652]
  69              	.L4:
 103:Middlewares/ST/STM32_USB_Device_Library/Core/Src/usbd_core.c ****   }
ARM GAS  /tmp/ccYcsBME.s 			page 4


 104:Middlewares/ST/STM32_USB_Device_Library/Core/Src/usbd_core.c **** 
 105:Middlewares/ST/STM32_USB_Device_Library/Core/Src/usbd_core.c ****   /* Assign USBD Descriptors */
 106:Middlewares/ST/STM32_USB_Device_Library/Core/Src/usbd_core.c ****   if(pdesc != NULL)
  70              		.loc 1 106 0
  71 002a BB68     		ldr	r3, [r7, #8]
  72 002c 002B     		cmp	r3, #0
  73 002e 03D0     		beq	.L5
 107:Middlewares/ST/STM32_USB_Device_Library/Core/Src/usbd_core.c ****   {
 108:Middlewares/ST/STM32_USB_Device_Library/Core/Src/usbd_core.c ****     pdev->pDesc = pdesc;
  74              		.loc 1 108 0
  75 0030 FB68     		ldr	r3, [r7, #12]
  76 0032 BA68     		ldr	r2, [r7, #8]
  77 0034 C3F88822 		str	r2, [r3, #648]
  78              	.L5:
 109:Middlewares/ST/STM32_USB_Device_Library/Core/Src/usbd_core.c ****   }
 110:Middlewares/ST/STM32_USB_Device_Library/Core/Src/usbd_core.c **** 
 111:Middlewares/ST/STM32_USB_Device_Library/Core/Src/usbd_core.c ****   /* Set Device initial State */
 112:Middlewares/ST/STM32_USB_Device_Library/Core/Src/usbd_core.c ****   pdev->dev_state  = USBD_STATE_DEFAULT;
  79              		.loc 1 112 0
  80 0038 FB68     		ldr	r3, [r7, #12]
  81 003a 0122     		movs	r2, #1
  82 003c 83F87422 		strb	r2, [r3, #628]
 113:Middlewares/ST/STM32_USB_Device_Library/Core/Src/usbd_core.c ****   pdev->id = id;
  83              		.loc 1 113 0
  84 0040 FB68     		ldr	r3, [r7, #12]
  85 0042 FA79     		ldrb	r2, [r7, #7]
  86 0044 1A70     		strb	r2, [r3]
 114:Middlewares/ST/STM32_USB_Device_Library/Core/Src/usbd_core.c ****   /* Initialize low level driver */
 115:Middlewares/ST/STM32_USB_Device_Library/Core/Src/usbd_core.c ****   USBD_LL_Init(pdev);
  87              		.loc 1 115 0
  88 0046 F868     		ldr	r0, [r7, #12]
  89 0048 FFF7FEFF 		bl	USBD_LL_Init
 116:Middlewares/ST/STM32_USB_Device_Library/Core/Src/usbd_core.c **** 
 117:Middlewares/ST/STM32_USB_Device_Library/Core/Src/usbd_core.c ****   return USBD_OK;
  90              		.loc 1 117 0
  91 004c 0023     		movs	r3, #0
  92              	.L3:
 118:Middlewares/ST/STM32_USB_Device_Library/Core/Src/usbd_core.c **** }
  93              		.loc 1 118 0
  94 004e 1846     		mov	r0, r3
  95 0050 1037     		adds	r7, r7, #16
  96              	.LCFI3:
  97              		.cfi_def_cfa_offset 8
  98 0052 BD46     		mov	sp, r7
  99              	.LCFI4:
 100              		.cfi_def_cfa_register 13
 101              		@ sp needed
 102 0054 80BD     		pop	{r7, pc}
 103              		.cfi_endproc
 104              	.LFE133:
 106              		.section	.text.USBD_DeInit,"ax",%progbits
 107              		.align	1
 108              		.global	USBD_DeInit
 109              		.syntax unified
 110              		.thumb
 111              		.thumb_func
 112              		.fpu fpv4-sp-d16
ARM GAS  /tmp/ccYcsBME.s 			page 5


 114              	USBD_DeInit:
 115              	.LFB134:
 119:Middlewares/ST/STM32_USB_Device_Library/Core/Src/usbd_core.c **** 
 120:Middlewares/ST/STM32_USB_Device_Library/Core/Src/usbd_core.c **** /**
 121:Middlewares/ST/STM32_USB_Device_Library/Core/Src/usbd_core.c **** * @brief  USBD_DeInit
 122:Middlewares/ST/STM32_USB_Device_Library/Core/Src/usbd_core.c **** *         Re-Initialize th device library
 123:Middlewares/ST/STM32_USB_Device_Library/Core/Src/usbd_core.c **** * @param  pdev: device instance
 124:Middlewares/ST/STM32_USB_Device_Library/Core/Src/usbd_core.c **** * @retval status: status
 125:Middlewares/ST/STM32_USB_Device_Library/Core/Src/usbd_core.c **** */
 126:Middlewares/ST/STM32_USB_Device_Library/Core/Src/usbd_core.c **** USBD_StatusTypeDef USBD_DeInit(USBD_HandleTypeDef *pdev)
 127:Middlewares/ST/STM32_USB_Device_Library/Core/Src/usbd_core.c **** {
 116              		.loc 1 127 0
 117              		.cfi_startproc
 118              		@ args = 0, pretend = 0, frame = 8
 119              		@ frame_needed = 1, uses_anonymous_args = 0
 120 0000 80B5     		push	{r7, lr}
 121              	.LCFI5:
 122              		.cfi_def_cfa_offset 8
 123              		.cfi_offset 7, -8
 124              		.cfi_offset 14, -4
 125 0002 82B0     		sub	sp, sp, #8
 126              	.LCFI6:
 127              		.cfi_def_cfa_offset 16
 128 0004 00AF     		add	r7, sp, #0
 129              	.LCFI7:
 130              		.cfi_def_cfa_register 7
 131 0006 7860     		str	r0, [r7, #4]
 128:Middlewares/ST/STM32_USB_Device_Library/Core/Src/usbd_core.c ****   /* Set Default State */
 129:Middlewares/ST/STM32_USB_Device_Library/Core/Src/usbd_core.c ****   pdev->dev_state  = USBD_STATE_DEFAULT;
 132              		.loc 1 129 0
 133 0008 7B68     		ldr	r3, [r7, #4]
 134 000a 0122     		movs	r2, #1
 135 000c 83F87422 		strb	r2, [r3, #628]
 130:Middlewares/ST/STM32_USB_Device_Library/Core/Src/usbd_core.c **** 
 131:Middlewares/ST/STM32_USB_Device_Library/Core/Src/usbd_core.c ****   /* Free Class Resources */
 132:Middlewares/ST/STM32_USB_Device_Library/Core/Src/usbd_core.c ****   pdev->pClass->DeInit(pdev, (uint8_t)pdev->dev_config);
 136              		.loc 1 132 0
 137 0010 7B68     		ldr	r3, [r7, #4]
 138 0012 D3F88C32 		ldr	r3, [r3, #652]
 139 0016 5B68     		ldr	r3, [r3, #4]
 140 0018 7A68     		ldr	r2, [r7, #4]
 141 001a 5268     		ldr	r2, [r2, #4]
 142 001c D2B2     		uxtb	r2, r2
 143 001e 1146     		mov	r1, r2
 144 0020 7868     		ldr	r0, [r7, #4]
 145 0022 9847     		blx	r3
 146              	.LVL0:
 133:Middlewares/ST/STM32_USB_Device_Library/Core/Src/usbd_core.c **** 
 134:Middlewares/ST/STM32_USB_Device_Library/Core/Src/usbd_core.c ****     /* Stop the low level driver  */
 135:Middlewares/ST/STM32_USB_Device_Library/Core/Src/usbd_core.c ****   USBD_LL_Stop(pdev);
 147              		.loc 1 135 0
 148 0024 7868     		ldr	r0, [r7, #4]
 149 0026 FFF7FEFF 		bl	USBD_LL_Stop
 136:Middlewares/ST/STM32_USB_Device_Library/Core/Src/usbd_core.c **** 
 137:Middlewares/ST/STM32_USB_Device_Library/Core/Src/usbd_core.c ****   /* Initialize low level driver */
 138:Middlewares/ST/STM32_USB_Device_Library/Core/Src/usbd_core.c ****   USBD_LL_DeInit(pdev);
 150              		.loc 1 138 0
ARM GAS  /tmp/ccYcsBME.s 			page 6


 151 002a 7868     		ldr	r0, [r7, #4]
 152 002c FFF7FEFF 		bl	USBD_LL_DeInit
 139:Middlewares/ST/STM32_USB_Device_Library/Core/Src/usbd_core.c **** 
 140:Middlewares/ST/STM32_USB_Device_Library/Core/Src/usbd_core.c ****   return USBD_OK;
 153              		.loc 1 140 0
 154 0030 0023     		movs	r3, #0
 141:Middlewares/ST/STM32_USB_Device_Library/Core/Src/usbd_core.c **** }
 155              		.loc 1 141 0
 156 0032 1846     		mov	r0, r3
 157 0034 0837     		adds	r7, r7, #8
 158              	.LCFI8:
 159              		.cfi_def_cfa_offset 8
 160 0036 BD46     		mov	sp, r7
 161              	.LCFI9:
 162              		.cfi_def_cfa_register 13
 163              		@ sp needed
 164 0038 80BD     		pop	{r7, pc}
 165              		.cfi_endproc
 166              	.LFE134:
 168              		.section	.text.USBD_RegisterClass,"ax",%progbits
 169              		.align	1
 170              		.global	USBD_RegisterClass
 171              		.syntax unified
 172              		.thumb
 173              		.thumb_func
 174              		.fpu fpv4-sp-d16
 176              	USBD_RegisterClass:
 177              	.LFB135:
 142:Middlewares/ST/STM32_USB_Device_Library/Core/Src/usbd_core.c **** 
 143:Middlewares/ST/STM32_USB_Device_Library/Core/Src/usbd_core.c **** /**
 144:Middlewares/ST/STM32_USB_Device_Library/Core/Src/usbd_core.c ****   * @brief  USBD_RegisterClass
 145:Middlewares/ST/STM32_USB_Device_Library/Core/Src/usbd_core.c ****   *         Link class driver to Device Core.
 146:Middlewares/ST/STM32_USB_Device_Library/Core/Src/usbd_core.c ****   * @param  pDevice : Device Handle
 147:Middlewares/ST/STM32_USB_Device_Library/Core/Src/usbd_core.c ****   * @param  pclass: Class handle
 148:Middlewares/ST/STM32_USB_Device_Library/Core/Src/usbd_core.c ****   * @retval USBD Status
 149:Middlewares/ST/STM32_USB_Device_Library/Core/Src/usbd_core.c ****   */
 150:Middlewares/ST/STM32_USB_Device_Library/Core/Src/usbd_core.c **** USBD_StatusTypeDef  USBD_RegisterClass(USBD_HandleTypeDef *pdev, USBD_ClassTypeDef *pclass)
 151:Middlewares/ST/STM32_USB_Device_Library/Core/Src/usbd_core.c **** {
 178              		.loc 1 151 0
 179              		.cfi_startproc
 180              		@ args = 0, pretend = 0, frame = 16
 181              		@ frame_needed = 1, uses_anonymous_args = 0
 182              		@ link register save eliminated.
 183 0000 80B4     		push	{r7}
 184              	.LCFI10:
 185              		.cfi_def_cfa_offset 4
 186              		.cfi_offset 7, -4
 187 0002 85B0     		sub	sp, sp, #20
 188              	.LCFI11:
 189              		.cfi_def_cfa_offset 24
 190 0004 00AF     		add	r7, sp, #0
 191              	.LCFI12:
 192              		.cfi_def_cfa_register 7
 193 0006 7860     		str	r0, [r7, #4]
 194 0008 3960     		str	r1, [r7]
 152:Middlewares/ST/STM32_USB_Device_Library/Core/Src/usbd_core.c ****   USBD_StatusTypeDef   status = USBD_OK;
 195              		.loc 1 152 0
ARM GAS  /tmp/ccYcsBME.s 			page 7


 196 000a 0023     		movs	r3, #0
 197 000c FB73     		strb	r3, [r7, #15]
 153:Middlewares/ST/STM32_USB_Device_Library/Core/Src/usbd_core.c ****   if(pclass != 0)
 198              		.loc 1 153 0
 199 000e 3B68     		ldr	r3, [r7]
 200 0010 002B     		cmp	r3, #0
 201 0012 06D0     		beq	.L9
 154:Middlewares/ST/STM32_USB_Device_Library/Core/Src/usbd_core.c ****   {
 155:Middlewares/ST/STM32_USB_Device_Library/Core/Src/usbd_core.c ****     /* link the class to the USB Device handle */
 156:Middlewares/ST/STM32_USB_Device_Library/Core/Src/usbd_core.c ****     pdev->pClass = pclass;
 202              		.loc 1 156 0
 203 0014 7B68     		ldr	r3, [r7, #4]
 204 0016 3A68     		ldr	r2, [r7]
 205 0018 C3F88C22 		str	r2, [r3, #652]
 157:Middlewares/ST/STM32_USB_Device_Library/Core/Src/usbd_core.c ****     status = USBD_OK;
 206              		.loc 1 157 0
 207 001c 0023     		movs	r3, #0
 208 001e FB73     		strb	r3, [r7, #15]
 209 0020 01E0     		b	.L10
 210              	.L9:
 158:Middlewares/ST/STM32_USB_Device_Library/Core/Src/usbd_core.c ****   }
 159:Middlewares/ST/STM32_USB_Device_Library/Core/Src/usbd_core.c ****   else
 160:Middlewares/ST/STM32_USB_Device_Library/Core/Src/usbd_core.c ****   {
 161:Middlewares/ST/STM32_USB_Device_Library/Core/Src/usbd_core.c **** #if (USBD_DEBUG_LEVEL > 1U)
 162:Middlewares/ST/STM32_USB_Device_Library/Core/Src/usbd_core.c ****     USBD_ErrLog("Invalid Class handle");
 163:Middlewares/ST/STM32_USB_Device_Library/Core/Src/usbd_core.c **** #endif
 164:Middlewares/ST/STM32_USB_Device_Library/Core/Src/usbd_core.c ****     status = USBD_FAIL;
 211              		.loc 1 164 0
 212 0022 0223     		movs	r3, #2
 213 0024 FB73     		strb	r3, [r7, #15]
 214              	.L10:
 165:Middlewares/ST/STM32_USB_Device_Library/Core/Src/usbd_core.c ****   }
 166:Middlewares/ST/STM32_USB_Device_Library/Core/Src/usbd_core.c **** 
 167:Middlewares/ST/STM32_USB_Device_Library/Core/Src/usbd_core.c ****   return status;
 215              		.loc 1 167 0
 216 0026 FB7B     		ldrb	r3, [r7, #15]	@ zero_extendqisi2
 168:Middlewares/ST/STM32_USB_Device_Library/Core/Src/usbd_core.c **** }
 217              		.loc 1 168 0
 218 0028 1846     		mov	r0, r3
 219 002a 1437     		adds	r7, r7, #20
 220              	.LCFI13:
 221              		.cfi_def_cfa_offset 4
 222 002c BD46     		mov	sp, r7
 223              	.LCFI14:
 224              		.cfi_def_cfa_register 13
 225              		@ sp needed
 226 002e 5DF8047B 		ldr	r7, [sp], #4
 227              	.LCFI15:
 228              		.cfi_restore 7
 229              		.cfi_def_cfa_offset 0
 230 0032 7047     		bx	lr
 231              		.cfi_endproc
 232              	.LFE135:
 234              		.section	.text.USBD_Start,"ax",%progbits
 235              		.align	1
 236              		.global	USBD_Start
 237              		.syntax unified
ARM GAS  /tmp/ccYcsBME.s 			page 8


 238              		.thumb
 239              		.thumb_func
 240              		.fpu fpv4-sp-d16
 242              	USBD_Start:
 243              	.LFB136:
 169:Middlewares/ST/STM32_USB_Device_Library/Core/Src/usbd_core.c **** 
 170:Middlewares/ST/STM32_USB_Device_Library/Core/Src/usbd_core.c **** /**
 171:Middlewares/ST/STM32_USB_Device_Library/Core/Src/usbd_core.c ****   * @brief  USBD_Start
 172:Middlewares/ST/STM32_USB_Device_Library/Core/Src/usbd_core.c ****   *         Start the USB Device Core.
 173:Middlewares/ST/STM32_USB_Device_Library/Core/Src/usbd_core.c ****   * @param  pdev: Device Handle
 174:Middlewares/ST/STM32_USB_Device_Library/Core/Src/usbd_core.c ****   * @retval USBD Status
 175:Middlewares/ST/STM32_USB_Device_Library/Core/Src/usbd_core.c ****   */
 176:Middlewares/ST/STM32_USB_Device_Library/Core/Src/usbd_core.c **** USBD_StatusTypeDef  USBD_Start  (USBD_HandleTypeDef *pdev)
 177:Middlewares/ST/STM32_USB_Device_Library/Core/Src/usbd_core.c **** {
 244              		.loc 1 177 0
 245              		.cfi_startproc
 246              		@ args = 0, pretend = 0, frame = 8
 247              		@ frame_needed = 1, uses_anonymous_args = 0
 248 0000 80B5     		push	{r7, lr}
 249              	.LCFI16:
 250              		.cfi_def_cfa_offset 8
 251              		.cfi_offset 7, -8
 252              		.cfi_offset 14, -4
 253 0002 82B0     		sub	sp, sp, #8
 254              	.LCFI17:
 255              		.cfi_def_cfa_offset 16
 256 0004 00AF     		add	r7, sp, #0
 257              	.LCFI18:
 258              		.cfi_def_cfa_register 7
 259 0006 7860     		str	r0, [r7, #4]
 178:Middlewares/ST/STM32_USB_Device_Library/Core/Src/usbd_core.c **** 
 179:Middlewares/ST/STM32_USB_Device_Library/Core/Src/usbd_core.c ****   /* Start the low level driver  */
 180:Middlewares/ST/STM32_USB_Device_Library/Core/Src/usbd_core.c ****   USBD_LL_Start(pdev);
 260              		.loc 1 180 0
 261 0008 7868     		ldr	r0, [r7, #4]
 262 000a FFF7FEFF 		bl	USBD_LL_Start
 181:Middlewares/ST/STM32_USB_Device_Library/Core/Src/usbd_core.c **** 
 182:Middlewares/ST/STM32_USB_Device_Library/Core/Src/usbd_core.c ****   return USBD_OK;
 263              		.loc 1 182 0
 264 000e 0023     		movs	r3, #0
 183:Middlewares/ST/STM32_USB_Device_Library/Core/Src/usbd_core.c **** }
 265              		.loc 1 183 0
 266 0010 1846     		mov	r0, r3
 267 0012 0837     		adds	r7, r7, #8
 268              	.LCFI19:
 269              		.cfi_def_cfa_offset 8
 270 0014 BD46     		mov	sp, r7
 271              	.LCFI20:
 272              		.cfi_def_cfa_register 13
 273              		@ sp needed
 274 0016 80BD     		pop	{r7, pc}
 275              		.cfi_endproc
 276              	.LFE136:
 278              		.section	.text.USBD_Stop,"ax",%progbits
 279              		.align	1
 280              		.global	USBD_Stop
 281              		.syntax unified
ARM GAS  /tmp/ccYcsBME.s 			page 9


 282              		.thumb
 283              		.thumb_func
 284              		.fpu fpv4-sp-d16
 286              	USBD_Stop:
 287              	.LFB137:
 184:Middlewares/ST/STM32_USB_Device_Library/Core/Src/usbd_core.c **** 
 185:Middlewares/ST/STM32_USB_Device_Library/Core/Src/usbd_core.c **** /**
 186:Middlewares/ST/STM32_USB_Device_Library/Core/Src/usbd_core.c ****   * @brief  USBD_Stop
 187:Middlewares/ST/STM32_USB_Device_Library/Core/Src/usbd_core.c ****   *         Stop the USB Device Core.
 188:Middlewares/ST/STM32_USB_Device_Library/Core/Src/usbd_core.c ****   * @param  pdev: Device Handle
 189:Middlewares/ST/STM32_USB_Device_Library/Core/Src/usbd_core.c ****   * @retval USBD Status
 190:Middlewares/ST/STM32_USB_Device_Library/Core/Src/usbd_core.c ****   */
 191:Middlewares/ST/STM32_USB_Device_Library/Core/Src/usbd_core.c **** USBD_StatusTypeDef  USBD_Stop   (USBD_HandleTypeDef *pdev)
 192:Middlewares/ST/STM32_USB_Device_Library/Core/Src/usbd_core.c **** {
 288              		.loc 1 192 0
 289              		.cfi_startproc
 290              		@ args = 0, pretend = 0, frame = 8
 291              		@ frame_needed = 1, uses_anonymous_args = 0
 292 0000 80B5     		push	{r7, lr}
 293              	.LCFI21:
 294              		.cfi_def_cfa_offset 8
 295              		.cfi_offset 7, -8
 296              		.cfi_offset 14, -4
 297 0002 82B0     		sub	sp, sp, #8
 298              	.LCFI22:
 299              		.cfi_def_cfa_offset 16
 300 0004 00AF     		add	r7, sp, #0
 301              	.LCFI23:
 302              		.cfi_def_cfa_register 7
 303 0006 7860     		str	r0, [r7, #4]
 193:Middlewares/ST/STM32_USB_Device_Library/Core/Src/usbd_core.c ****   /* Free Class Resources */
 194:Middlewares/ST/STM32_USB_Device_Library/Core/Src/usbd_core.c ****   pdev->pClass->DeInit(pdev, (uint8_t)pdev->dev_config);
 304              		.loc 1 194 0
 305 0008 7B68     		ldr	r3, [r7, #4]
 306 000a D3F88C32 		ldr	r3, [r3, #652]
 307 000e 5B68     		ldr	r3, [r3, #4]
 308 0010 7A68     		ldr	r2, [r7, #4]
 309 0012 5268     		ldr	r2, [r2, #4]
 310 0014 D2B2     		uxtb	r2, r2
 311 0016 1146     		mov	r1, r2
 312 0018 7868     		ldr	r0, [r7, #4]
 313 001a 9847     		blx	r3
 314              	.LVL1:
 195:Middlewares/ST/STM32_USB_Device_Library/Core/Src/usbd_core.c **** 
 196:Middlewares/ST/STM32_USB_Device_Library/Core/Src/usbd_core.c ****   /* Stop the low level driver  */
 197:Middlewares/ST/STM32_USB_Device_Library/Core/Src/usbd_core.c ****   USBD_LL_Stop(pdev);
 315              		.loc 1 197 0
 316 001c 7868     		ldr	r0, [r7, #4]
 317 001e FFF7FEFF 		bl	USBD_LL_Stop
 198:Middlewares/ST/STM32_USB_Device_Library/Core/Src/usbd_core.c **** 
 199:Middlewares/ST/STM32_USB_Device_Library/Core/Src/usbd_core.c ****   return USBD_OK;
 318              		.loc 1 199 0
 319 0022 0023     		movs	r3, #0
 200:Middlewares/ST/STM32_USB_Device_Library/Core/Src/usbd_core.c **** }
 320              		.loc 1 200 0
 321 0024 1846     		mov	r0, r3
 322 0026 0837     		adds	r7, r7, #8
ARM GAS  /tmp/ccYcsBME.s 			page 10


 323              	.LCFI24:
 324              		.cfi_def_cfa_offset 8
 325 0028 BD46     		mov	sp, r7
 326              	.LCFI25:
 327              		.cfi_def_cfa_register 13
 328              		@ sp needed
 329 002a 80BD     		pop	{r7, pc}
 330              		.cfi_endproc
 331              	.LFE137:
 333              		.section	.text.USBD_RunTestMode,"ax",%progbits
 334              		.align	1
 335              		.global	USBD_RunTestMode
 336              		.syntax unified
 337              		.thumb
 338              		.thumb_func
 339              		.fpu fpv4-sp-d16
 341              	USBD_RunTestMode:
 342              	.LFB138:
 201:Middlewares/ST/STM32_USB_Device_Library/Core/Src/usbd_core.c **** 
 202:Middlewares/ST/STM32_USB_Device_Library/Core/Src/usbd_core.c **** /**
 203:Middlewares/ST/STM32_USB_Device_Library/Core/Src/usbd_core.c **** * @brief  USBD_RunTestMode
 204:Middlewares/ST/STM32_USB_Device_Library/Core/Src/usbd_core.c **** *         Launch test mode process
 205:Middlewares/ST/STM32_USB_Device_Library/Core/Src/usbd_core.c **** * @param  pdev: device instance
 206:Middlewares/ST/STM32_USB_Device_Library/Core/Src/usbd_core.c **** * @retval status
 207:Middlewares/ST/STM32_USB_Device_Library/Core/Src/usbd_core.c **** */
 208:Middlewares/ST/STM32_USB_Device_Library/Core/Src/usbd_core.c **** USBD_StatusTypeDef  USBD_RunTestMode (USBD_HandleTypeDef  *pdev)
 209:Middlewares/ST/STM32_USB_Device_Library/Core/Src/usbd_core.c **** {
 343              		.loc 1 209 0
 344              		.cfi_startproc
 345              		@ args = 0, pretend = 0, frame = 8
 346              		@ frame_needed = 1, uses_anonymous_args = 0
 347              		@ link register save eliminated.
 348 0000 80B4     		push	{r7}
 349              	.LCFI26:
 350              		.cfi_def_cfa_offset 4
 351              		.cfi_offset 7, -4
 352 0002 83B0     		sub	sp, sp, #12
 353              	.LCFI27:
 354              		.cfi_def_cfa_offset 16
 355 0004 00AF     		add	r7, sp, #0
 356              	.LCFI28:
 357              		.cfi_def_cfa_register 7
 358 0006 7860     		str	r0, [r7, #4]
 210:Middlewares/ST/STM32_USB_Device_Library/Core/Src/usbd_core.c ****   /* Prevent unused argument compilation warning */
 211:Middlewares/ST/STM32_USB_Device_Library/Core/Src/usbd_core.c ****   UNUSED(pdev);
 212:Middlewares/ST/STM32_USB_Device_Library/Core/Src/usbd_core.c **** 
 213:Middlewares/ST/STM32_USB_Device_Library/Core/Src/usbd_core.c ****   return USBD_OK;
 359              		.loc 1 213 0
 360 0008 0023     		movs	r3, #0
 214:Middlewares/ST/STM32_USB_Device_Library/Core/Src/usbd_core.c **** }
 361              		.loc 1 214 0
 362 000a 1846     		mov	r0, r3
 363 000c 0C37     		adds	r7, r7, #12
 364              	.LCFI29:
 365              		.cfi_def_cfa_offset 4
 366 000e BD46     		mov	sp, r7
 367              	.LCFI30:
ARM GAS  /tmp/ccYcsBME.s 			page 11


 368              		.cfi_def_cfa_register 13
 369              		@ sp needed
 370 0010 5DF8047B 		ldr	r7, [sp], #4
 371              	.LCFI31:
 372              		.cfi_restore 7
 373              		.cfi_def_cfa_offset 0
 374 0014 7047     		bx	lr
 375              		.cfi_endproc
 376              	.LFE138:
 378              		.section	.text.USBD_SetClassConfig,"ax",%progbits
 379              		.align	1
 380              		.global	USBD_SetClassConfig
 381              		.syntax unified
 382              		.thumb
 383              		.thumb_func
 384              		.fpu fpv4-sp-d16
 386              	USBD_SetClassConfig:
 387              	.LFB139:
 215:Middlewares/ST/STM32_USB_Device_Library/Core/Src/usbd_core.c **** 
 216:Middlewares/ST/STM32_USB_Device_Library/Core/Src/usbd_core.c **** /**
 217:Middlewares/ST/STM32_USB_Device_Library/Core/Src/usbd_core.c **** * @brief  USBD_SetClassConfig
 218:Middlewares/ST/STM32_USB_Device_Library/Core/Src/usbd_core.c **** *        Configure device and start the interface
 219:Middlewares/ST/STM32_USB_Device_Library/Core/Src/usbd_core.c **** * @param  pdev: device instance
 220:Middlewares/ST/STM32_USB_Device_Library/Core/Src/usbd_core.c **** * @param  cfgidx: configuration index
 221:Middlewares/ST/STM32_USB_Device_Library/Core/Src/usbd_core.c **** * @retval status
 222:Middlewares/ST/STM32_USB_Device_Library/Core/Src/usbd_core.c **** */
 223:Middlewares/ST/STM32_USB_Device_Library/Core/Src/usbd_core.c **** 
 224:Middlewares/ST/STM32_USB_Device_Library/Core/Src/usbd_core.c **** USBD_StatusTypeDef USBD_SetClassConfig(USBD_HandleTypeDef  *pdev, uint8_t cfgidx)
 225:Middlewares/ST/STM32_USB_Device_Library/Core/Src/usbd_core.c **** {
 388              		.loc 1 225 0
 389              		.cfi_startproc
 390              		@ args = 0, pretend = 0, frame = 16
 391              		@ frame_needed = 1, uses_anonymous_args = 0
 392 0000 80B5     		push	{r7, lr}
 393              	.LCFI32:
 394              		.cfi_def_cfa_offset 8
 395              		.cfi_offset 7, -8
 396              		.cfi_offset 14, -4
 397 0002 84B0     		sub	sp, sp, #16
 398              	.LCFI33:
 399              		.cfi_def_cfa_offset 24
 400 0004 00AF     		add	r7, sp, #0
 401              	.LCFI34:
 402              		.cfi_def_cfa_register 7
 403 0006 7860     		str	r0, [r7, #4]
 404 0008 0B46     		mov	r3, r1
 405 000a FB70     		strb	r3, [r7, #3]
 226:Middlewares/ST/STM32_USB_Device_Library/Core/Src/usbd_core.c ****   USBD_StatusTypeDef   ret = USBD_FAIL;
 406              		.loc 1 226 0
 407 000c 0223     		movs	r3, #2
 408 000e FB73     		strb	r3, [r7, #15]
 227:Middlewares/ST/STM32_USB_Device_Library/Core/Src/usbd_core.c **** 
 228:Middlewares/ST/STM32_USB_Device_Library/Core/Src/usbd_core.c ****   if(pdev->pClass != NULL)
 409              		.loc 1 228 0
 410 0010 7B68     		ldr	r3, [r7, #4]
 411 0012 D3F88C32 		ldr	r3, [r3, #652]
 412 0016 002B     		cmp	r3, #0
ARM GAS  /tmp/ccYcsBME.s 			page 12


 413 0018 0CD0     		beq	.L19
 229:Middlewares/ST/STM32_USB_Device_Library/Core/Src/usbd_core.c ****   {
 230:Middlewares/ST/STM32_USB_Device_Library/Core/Src/usbd_core.c ****     /* Set configuration  and Start the Class*/
 231:Middlewares/ST/STM32_USB_Device_Library/Core/Src/usbd_core.c ****     if(pdev->pClass->Init(pdev, cfgidx) == 0U)
 414              		.loc 1 231 0
 415 001a 7B68     		ldr	r3, [r7, #4]
 416 001c D3F88C32 		ldr	r3, [r3, #652]
 417 0020 1B68     		ldr	r3, [r3]
 418 0022 FA78     		ldrb	r2, [r7, #3]	@ zero_extendqisi2
 419 0024 1146     		mov	r1, r2
 420 0026 7868     		ldr	r0, [r7, #4]
 421 0028 9847     		blx	r3
 422              	.LVL2:
 423 002a 0346     		mov	r3, r0
 424 002c 002B     		cmp	r3, #0
 425 002e 01D1     		bne	.L19
 232:Middlewares/ST/STM32_USB_Device_Library/Core/Src/usbd_core.c ****     {
 233:Middlewares/ST/STM32_USB_Device_Library/Core/Src/usbd_core.c ****       ret = USBD_OK;
 426              		.loc 1 233 0
 427 0030 0023     		movs	r3, #0
 428 0032 FB73     		strb	r3, [r7, #15]
 429              	.L19:
 234:Middlewares/ST/STM32_USB_Device_Library/Core/Src/usbd_core.c ****     }
 235:Middlewares/ST/STM32_USB_Device_Library/Core/Src/usbd_core.c ****   }
 236:Middlewares/ST/STM32_USB_Device_Library/Core/Src/usbd_core.c **** 
 237:Middlewares/ST/STM32_USB_Device_Library/Core/Src/usbd_core.c ****   return ret;
 430              		.loc 1 237 0
 431 0034 FB7B     		ldrb	r3, [r7, #15]	@ zero_extendqisi2
 238:Middlewares/ST/STM32_USB_Device_Library/Core/Src/usbd_core.c **** }
 432              		.loc 1 238 0
 433 0036 1846     		mov	r0, r3
 434 0038 1037     		adds	r7, r7, #16
 435              	.LCFI35:
 436              		.cfi_def_cfa_offset 8
 437 003a BD46     		mov	sp, r7
 438              	.LCFI36:
 439              		.cfi_def_cfa_register 13
 440              		@ sp needed
 441 003c 80BD     		pop	{r7, pc}
 442              		.cfi_endproc
 443              	.LFE139:
 445              		.section	.text.USBD_ClrClassConfig,"ax",%progbits
 446              		.align	1
 447              		.global	USBD_ClrClassConfig
 448              		.syntax unified
 449              		.thumb
 450              		.thumb_func
 451              		.fpu fpv4-sp-d16
 453              	USBD_ClrClassConfig:
 454              	.LFB140:
 239:Middlewares/ST/STM32_USB_Device_Library/Core/Src/usbd_core.c **** 
 240:Middlewares/ST/STM32_USB_Device_Library/Core/Src/usbd_core.c **** /**
 241:Middlewares/ST/STM32_USB_Device_Library/Core/Src/usbd_core.c **** * @brief  USBD_ClrClassConfig
 242:Middlewares/ST/STM32_USB_Device_Library/Core/Src/usbd_core.c **** *         Clear current configuration
 243:Middlewares/ST/STM32_USB_Device_Library/Core/Src/usbd_core.c **** * @param  pdev: device instance
 244:Middlewares/ST/STM32_USB_Device_Library/Core/Src/usbd_core.c **** * @param  cfgidx: configuration index
 245:Middlewares/ST/STM32_USB_Device_Library/Core/Src/usbd_core.c **** * @retval status: USBD_StatusTypeDef
ARM GAS  /tmp/ccYcsBME.s 			page 13


 246:Middlewares/ST/STM32_USB_Device_Library/Core/Src/usbd_core.c **** */
 247:Middlewares/ST/STM32_USB_Device_Library/Core/Src/usbd_core.c **** USBD_StatusTypeDef USBD_ClrClassConfig(USBD_HandleTypeDef  *pdev, uint8_t cfgidx)
 248:Middlewares/ST/STM32_USB_Device_Library/Core/Src/usbd_core.c **** {
 455              		.loc 1 248 0
 456              		.cfi_startproc
 457              		@ args = 0, pretend = 0, frame = 8
 458              		@ frame_needed = 1, uses_anonymous_args = 0
 459 0000 80B5     		push	{r7, lr}
 460              	.LCFI37:
 461              		.cfi_def_cfa_offset 8
 462              		.cfi_offset 7, -8
 463              		.cfi_offset 14, -4
 464 0002 82B0     		sub	sp, sp, #8
 465              	.LCFI38:
 466              		.cfi_def_cfa_offset 16
 467 0004 00AF     		add	r7, sp, #0
 468              	.LCFI39:
 469              		.cfi_def_cfa_register 7
 470 0006 7860     		str	r0, [r7, #4]
 471 0008 0B46     		mov	r3, r1
 472 000a FB70     		strb	r3, [r7, #3]
 249:Middlewares/ST/STM32_USB_Device_Library/Core/Src/usbd_core.c ****   /* Clear configuration  and De-initialize the Class process*/
 250:Middlewares/ST/STM32_USB_Device_Library/Core/Src/usbd_core.c ****   pdev->pClass->DeInit(pdev, cfgidx);
 473              		.loc 1 250 0
 474 000c 7B68     		ldr	r3, [r7, #4]
 475 000e D3F88C32 		ldr	r3, [r3, #652]
 476 0012 5B68     		ldr	r3, [r3, #4]
 477 0014 FA78     		ldrb	r2, [r7, #3]	@ zero_extendqisi2
 478 0016 1146     		mov	r1, r2
 479 0018 7868     		ldr	r0, [r7, #4]
 480 001a 9847     		blx	r3
 481              	.LVL3:
 251:Middlewares/ST/STM32_USB_Device_Library/Core/Src/usbd_core.c ****   return USBD_OK;
 482              		.loc 1 251 0
 483 001c 0023     		movs	r3, #0
 252:Middlewares/ST/STM32_USB_Device_Library/Core/Src/usbd_core.c **** }
 484              		.loc 1 252 0
 485 001e 1846     		mov	r0, r3
 486 0020 0837     		adds	r7, r7, #8
 487              	.LCFI40:
 488              		.cfi_def_cfa_offset 8
 489 0022 BD46     		mov	sp, r7
 490              	.LCFI41:
 491              		.cfi_def_cfa_register 13
 492              		@ sp needed
 493 0024 80BD     		pop	{r7, pc}
 494              		.cfi_endproc
 495              	.LFE140:
 497              		.section	.text.USBD_LL_SetupStage,"ax",%progbits
 498              		.align	1
 499              		.global	USBD_LL_SetupStage
 500              		.syntax unified
 501              		.thumb
 502              		.thumb_func
 503              		.fpu fpv4-sp-d16
 505              	USBD_LL_SetupStage:
 506              	.LFB141:
ARM GAS  /tmp/ccYcsBME.s 			page 14


 253:Middlewares/ST/STM32_USB_Device_Library/Core/Src/usbd_core.c **** 
 254:Middlewares/ST/STM32_USB_Device_Library/Core/Src/usbd_core.c **** 
 255:Middlewares/ST/STM32_USB_Device_Library/Core/Src/usbd_core.c **** /**
 256:Middlewares/ST/STM32_USB_Device_Library/Core/Src/usbd_core.c **** * @brief  USBD_SetupStage
 257:Middlewares/ST/STM32_USB_Device_Library/Core/Src/usbd_core.c **** *         Handle the setup stage
 258:Middlewares/ST/STM32_USB_Device_Library/Core/Src/usbd_core.c **** * @param  pdev: device instance
 259:Middlewares/ST/STM32_USB_Device_Library/Core/Src/usbd_core.c **** * @retval status
 260:Middlewares/ST/STM32_USB_Device_Library/Core/Src/usbd_core.c **** */
 261:Middlewares/ST/STM32_USB_Device_Library/Core/Src/usbd_core.c **** USBD_StatusTypeDef USBD_LL_SetupStage(USBD_HandleTypeDef *pdev, uint8_t *psetup)
 262:Middlewares/ST/STM32_USB_Device_Library/Core/Src/usbd_core.c **** {
 507              		.loc 1 262 0
 508              		.cfi_startproc
 509              		@ args = 0, pretend = 0, frame = 8
 510              		@ frame_needed = 1, uses_anonymous_args = 0
 511 0000 80B5     		push	{r7, lr}
 512              	.LCFI42:
 513              		.cfi_def_cfa_offset 8
 514              		.cfi_offset 7, -8
 515              		.cfi_offset 14, -4
 516 0002 82B0     		sub	sp, sp, #8
 517              	.LCFI43:
 518              		.cfi_def_cfa_offset 16
 519 0004 00AF     		add	r7, sp, #0
 520              	.LCFI44:
 521              		.cfi_def_cfa_register 7
 522 0006 7860     		str	r0, [r7, #4]
 523 0008 3960     		str	r1, [r7]
 263:Middlewares/ST/STM32_USB_Device_Library/Core/Src/usbd_core.c ****   USBD_ParseSetupRequest(&pdev->request, psetup);
 524              		.loc 1 263 0
 525 000a 7B68     		ldr	r3, [r7, #4]
 526 000c 03F52073 		add	r3, r3, #640
 527 0010 3968     		ldr	r1, [r7]
 528 0012 1846     		mov	r0, r3
 529 0014 FFF7FEFF 		bl	USBD_ParseSetupRequest
 264:Middlewares/ST/STM32_USB_Device_Library/Core/Src/usbd_core.c **** 
 265:Middlewares/ST/STM32_USB_Device_Library/Core/Src/usbd_core.c ****   pdev->ep0_state = USBD_EP0_SETUP;
 530              		.loc 1 265 0
 531 0018 7B68     		ldr	r3, [r7, #4]
 532 001a 0122     		movs	r2, #1
 533 001c C3F86C22 		str	r2, [r3, #620]
 266:Middlewares/ST/STM32_USB_Device_Library/Core/Src/usbd_core.c **** 
 267:Middlewares/ST/STM32_USB_Device_Library/Core/Src/usbd_core.c ****   pdev->ep0_data_len = pdev->request.wLength;
 534              		.loc 1 267 0
 535 0020 7B68     		ldr	r3, [r7, #4]
 536 0022 B3F88632 		ldrh	r3, [r3, #646]
 537 0026 1A46     		mov	r2, r3
 538 0028 7B68     		ldr	r3, [r7, #4]
 539 002a C3F87022 		str	r2, [r3, #624]
 268:Middlewares/ST/STM32_USB_Device_Library/Core/Src/usbd_core.c **** 
 269:Middlewares/ST/STM32_USB_Device_Library/Core/Src/usbd_core.c ****   switch (pdev->request.bmRequest & 0x1FU)
 540              		.loc 1 269 0
 541 002e 7B68     		ldr	r3, [r7, #4]
 542 0030 93F88032 		ldrb	r3, [r3, #640]	@ zero_extendqisi2
 543 0034 03F01F03 		and	r3, r3, #31
 544 0038 012B     		cmp	r3, #1
 545 003a 0CD0     		beq	.L25
 546 003c 012B     		cmp	r3, #1
ARM GAS  /tmp/ccYcsBME.s 			page 15


 547 003e 02D3     		bcc	.L26
 548 0040 022B     		cmp	r3, #2
 549 0042 10D0     		beq	.L27
 550 0044 17E0     		b	.L30
 551              	.L26:
 270:Middlewares/ST/STM32_USB_Device_Library/Core/Src/usbd_core.c ****   {
 271:Middlewares/ST/STM32_USB_Device_Library/Core/Src/usbd_core.c ****   case USB_REQ_RECIPIENT_DEVICE:
 272:Middlewares/ST/STM32_USB_Device_Library/Core/Src/usbd_core.c ****     USBD_StdDevReq (pdev, &pdev->request);
 552              		.loc 1 272 0
 553 0046 7B68     		ldr	r3, [r7, #4]
 554 0048 03F52073 		add	r3, r3, #640
 555 004c 1946     		mov	r1, r3
 556 004e 7868     		ldr	r0, [r7, #4]
 557 0050 FFF7FEFF 		bl	USBD_StdDevReq
 273:Middlewares/ST/STM32_USB_Device_Library/Core/Src/usbd_core.c ****     break;
 558              		.loc 1 273 0
 559 0054 1AE0     		b	.L28
 560              	.L25:
 274:Middlewares/ST/STM32_USB_Device_Library/Core/Src/usbd_core.c **** 
 275:Middlewares/ST/STM32_USB_Device_Library/Core/Src/usbd_core.c ****   case USB_REQ_RECIPIENT_INTERFACE:
 276:Middlewares/ST/STM32_USB_Device_Library/Core/Src/usbd_core.c ****     USBD_StdItfReq(pdev, &pdev->request);
 561              		.loc 1 276 0
 562 0056 7B68     		ldr	r3, [r7, #4]
 563 0058 03F52073 		add	r3, r3, #640
 564 005c 1946     		mov	r1, r3
 565 005e 7868     		ldr	r0, [r7, #4]
 566 0060 FFF7FEFF 		bl	USBD_StdItfReq
 277:Middlewares/ST/STM32_USB_Device_Library/Core/Src/usbd_core.c ****     break;
 567              		.loc 1 277 0
 568 0064 12E0     		b	.L28
 569              	.L27:
 278:Middlewares/ST/STM32_USB_Device_Library/Core/Src/usbd_core.c **** 
 279:Middlewares/ST/STM32_USB_Device_Library/Core/Src/usbd_core.c ****   case USB_REQ_RECIPIENT_ENDPOINT:
 280:Middlewares/ST/STM32_USB_Device_Library/Core/Src/usbd_core.c ****     USBD_StdEPReq(pdev, &pdev->request);
 570              		.loc 1 280 0
 571 0066 7B68     		ldr	r3, [r7, #4]
 572 0068 03F52073 		add	r3, r3, #640
 573 006c 1946     		mov	r1, r3
 574 006e 7868     		ldr	r0, [r7, #4]
 575 0070 FFF7FEFF 		bl	USBD_StdEPReq
 281:Middlewares/ST/STM32_USB_Device_Library/Core/Src/usbd_core.c ****     break;
 576              		.loc 1 281 0
 577 0074 0AE0     		b	.L28
 578              	.L30:
 282:Middlewares/ST/STM32_USB_Device_Library/Core/Src/usbd_core.c **** 
 283:Middlewares/ST/STM32_USB_Device_Library/Core/Src/usbd_core.c ****   default:
 284:Middlewares/ST/STM32_USB_Device_Library/Core/Src/usbd_core.c ****     USBD_LL_StallEP(pdev, (pdev->request.bmRequest & 0x80U));
 579              		.loc 1 284 0
 580 0076 7B68     		ldr	r3, [r7, #4]
 581 0078 93F88032 		ldrb	r3, [r3, #640]	@ zero_extendqisi2
 582 007c 23F07F03 		bic	r3, r3, #127
 583 0080 DBB2     		uxtb	r3, r3
 584 0082 1946     		mov	r1, r3
 585 0084 7868     		ldr	r0, [r7, #4]
 586 0086 FFF7FEFF 		bl	USBD_LL_StallEP
 285:Middlewares/ST/STM32_USB_Device_Library/Core/Src/usbd_core.c ****     break;
 587              		.loc 1 285 0
ARM GAS  /tmp/ccYcsBME.s 			page 16


 588 008a 00BF     		nop
 589              	.L28:
 286:Middlewares/ST/STM32_USB_Device_Library/Core/Src/usbd_core.c ****   }
 287:Middlewares/ST/STM32_USB_Device_Library/Core/Src/usbd_core.c **** 
 288:Middlewares/ST/STM32_USB_Device_Library/Core/Src/usbd_core.c ****   return USBD_OK;
 590              		.loc 1 288 0
 591 008c 0023     		movs	r3, #0
 289:Middlewares/ST/STM32_USB_Device_Library/Core/Src/usbd_core.c **** }
 592              		.loc 1 289 0
 593 008e 1846     		mov	r0, r3
 594 0090 0837     		adds	r7, r7, #8
 595              	.LCFI45:
 596              		.cfi_def_cfa_offset 8
 597 0092 BD46     		mov	sp, r7
 598              	.LCFI46:
 599              		.cfi_def_cfa_register 13
 600              		@ sp needed
 601 0094 80BD     		pop	{r7, pc}
 602              		.cfi_endproc
 603              	.LFE141:
 605              		.section	.text.USBD_LL_DataOutStage,"ax",%progbits
 606              		.align	1
 607              		.global	USBD_LL_DataOutStage
 608              		.syntax unified
 609              		.thumb
 610              		.thumb_func
 611              		.fpu fpv4-sp-d16
 613              	USBD_LL_DataOutStage:
 614              	.LFB142:
 290:Middlewares/ST/STM32_USB_Device_Library/Core/Src/usbd_core.c **** 
 291:Middlewares/ST/STM32_USB_Device_Library/Core/Src/usbd_core.c **** /**
 292:Middlewares/ST/STM32_USB_Device_Library/Core/Src/usbd_core.c **** * @brief  USBD_DataOutStage
 293:Middlewares/ST/STM32_USB_Device_Library/Core/Src/usbd_core.c **** *         Handle data OUT stage
 294:Middlewares/ST/STM32_USB_Device_Library/Core/Src/usbd_core.c **** * @param  pdev: device instance
 295:Middlewares/ST/STM32_USB_Device_Library/Core/Src/usbd_core.c **** * @param  epnum: endpoint index
 296:Middlewares/ST/STM32_USB_Device_Library/Core/Src/usbd_core.c **** * @retval status
 297:Middlewares/ST/STM32_USB_Device_Library/Core/Src/usbd_core.c **** */
 298:Middlewares/ST/STM32_USB_Device_Library/Core/Src/usbd_core.c **** USBD_StatusTypeDef USBD_LL_DataOutStage(USBD_HandleTypeDef *pdev,
 299:Middlewares/ST/STM32_USB_Device_Library/Core/Src/usbd_core.c ****                                         uint8_t epnum, uint8_t *pdata)
 300:Middlewares/ST/STM32_USB_Device_Library/Core/Src/usbd_core.c **** {
 615              		.loc 1 300 0
 616              		.cfi_startproc
 617              		@ args = 0, pretend = 0, frame = 24
 618              		@ frame_needed = 1, uses_anonymous_args = 0
 619 0000 80B5     		push	{r7, lr}
 620              	.LCFI47:
 621              		.cfi_def_cfa_offset 8
 622              		.cfi_offset 7, -8
 623              		.cfi_offset 14, -4
 624 0002 86B0     		sub	sp, sp, #24
 625              	.LCFI48:
 626              		.cfi_def_cfa_offset 32
 627 0004 00AF     		add	r7, sp, #0
 628              	.LCFI49:
 629              		.cfi_def_cfa_register 7
 630 0006 F860     		str	r0, [r7, #12]
 631 0008 0B46     		mov	r3, r1
ARM GAS  /tmp/ccYcsBME.s 			page 17


 632 000a 7A60     		str	r2, [r7, #4]
 633 000c FB72     		strb	r3, [r7, #11]
 301:Middlewares/ST/STM32_USB_Device_Library/Core/Src/usbd_core.c ****   USBD_EndpointTypeDef    *pep;
 302:Middlewares/ST/STM32_USB_Device_Library/Core/Src/usbd_core.c **** 
 303:Middlewares/ST/STM32_USB_Device_Library/Core/Src/usbd_core.c ****   if(epnum == 0U)
 634              		.loc 1 303 0
 635 000e FB7A     		ldrb	r3, [r7, #11]	@ zero_extendqisi2
 636 0010 002B     		cmp	r3, #0
 637 0012 4BD1     		bne	.L32
 304:Middlewares/ST/STM32_USB_Device_Library/Core/Src/usbd_core.c ****   {
 305:Middlewares/ST/STM32_USB_Device_Library/Core/Src/usbd_core.c ****     pep = &pdev->ep_out[0];
 638              		.loc 1 305 0
 639 0014 FB68     		ldr	r3, [r7, #12]
 640 0016 03F5A073 		add	r3, r3, #320
 641 001a 7B61     		str	r3, [r7, #20]
 306:Middlewares/ST/STM32_USB_Device_Library/Core/Src/usbd_core.c **** 
 307:Middlewares/ST/STM32_USB_Device_Library/Core/Src/usbd_core.c ****     if ( pdev->ep0_state == USBD_EP0_DATA_OUT)
 642              		.loc 1 307 0
 643 001c FB68     		ldr	r3, [r7, #12]
 644 001e D3F86C32 		ldr	r3, [r3, #620]
 645 0022 032B     		cmp	r3, #3
 646 0024 34D1     		bne	.L33
 308:Middlewares/ST/STM32_USB_Device_Library/Core/Src/usbd_core.c ****     {
 309:Middlewares/ST/STM32_USB_Device_Library/Core/Src/usbd_core.c ****       if(pep->rem_length > pep->maxpacket)
 647              		.loc 1 309 0
 648 0026 7B69     		ldr	r3, [r7, #20]
 649 0028 DA68     		ldr	r2, [r3, #12]
 650 002a 7B69     		ldr	r3, [r7, #20]
 651 002c 1B69     		ldr	r3, [r3, #16]
 652 002e 9A42     		cmp	r2, r3
 653 0030 19D9     		bls	.L34
 310:Middlewares/ST/STM32_USB_Device_Library/Core/Src/usbd_core.c ****       {
 311:Middlewares/ST/STM32_USB_Device_Library/Core/Src/usbd_core.c ****         pep->rem_length -=  pep->maxpacket;
 654              		.loc 1 311 0
 655 0032 7B69     		ldr	r3, [r7, #20]
 656 0034 DA68     		ldr	r2, [r3, #12]
 657 0036 7B69     		ldr	r3, [r7, #20]
 658 0038 1B69     		ldr	r3, [r3, #16]
 659 003a D21A     		subs	r2, r2, r3
 660 003c 7B69     		ldr	r3, [r7, #20]
 661 003e DA60     		str	r2, [r3, #12]
 312:Middlewares/ST/STM32_USB_Device_Library/Core/Src/usbd_core.c **** 
 313:Middlewares/ST/STM32_USB_Device_Library/Core/Src/usbd_core.c ****         USBD_CtlContinueRx (pdev,
 314:Middlewares/ST/STM32_USB_Device_Library/Core/Src/usbd_core.c ****                             pdata,
 315:Middlewares/ST/STM32_USB_Device_Library/Core/Src/usbd_core.c ****                             (uint16_t)MIN(pep->rem_length, pep->maxpacket));
 662              		.loc 1 315 0
 663 0040 7B69     		ldr	r3, [r7, #20]
 664 0042 DA68     		ldr	r2, [r3, #12]
 665 0044 7B69     		ldr	r3, [r7, #20]
 666 0046 1B69     		ldr	r3, [r3, #16]
 313:Middlewares/ST/STM32_USB_Device_Library/Core/Src/usbd_core.c ****                             pdata,
 667              		.loc 1 313 0
 668 0048 9A42     		cmp	r2, r3
 669 004a 03D2     		bcs	.L35
 670              		.loc 1 315 0 discriminator 1
 671 004c 7B69     		ldr	r3, [r7, #20]
 672 004e DB68     		ldr	r3, [r3, #12]
ARM GAS  /tmp/ccYcsBME.s 			page 18


 313:Middlewares/ST/STM32_USB_Device_Library/Core/Src/usbd_core.c ****                             pdata,
 673              		.loc 1 313 0 discriminator 1
 674 0050 9BB2     		uxth	r3, r3
 675 0052 02E0     		b	.L36
 676              	.L35:
 677              		.loc 1 315 0 discriminator 2
 678 0054 7B69     		ldr	r3, [r7, #20]
 679 0056 1B69     		ldr	r3, [r3, #16]
 313:Middlewares/ST/STM32_USB_Device_Library/Core/Src/usbd_core.c ****                             pdata,
 680              		.loc 1 313 0 discriminator 2
 681 0058 9BB2     		uxth	r3, r3
 682              	.L36:
 313:Middlewares/ST/STM32_USB_Device_Library/Core/Src/usbd_core.c ****                             pdata,
 683              		.loc 1 313 0 is_stmt 0 discriminator 4
 684 005a 1A46     		mov	r2, r3
 685 005c 7968     		ldr	r1, [r7, #4]
 686 005e F868     		ldr	r0, [r7, #12]
 687 0060 FFF7FEFF 		bl	USBD_CtlContinueRx
 688 0064 38E0     		b	.L40
 689              	.L34:
 316:Middlewares/ST/STM32_USB_Device_Library/Core/Src/usbd_core.c ****       }
 317:Middlewares/ST/STM32_USB_Device_Library/Core/Src/usbd_core.c ****       else
 318:Middlewares/ST/STM32_USB_Device_Library/Core/Src/usbd_core.c ****       {
 319:Middlewares/ST/STM32_USB_Device_Library/Core/Src/usbd_core.c ****         if((pdev->pClass->EP0_RxReady != NULL)&&
 690              		.loc 1 319 0 is_stmt 1
 691 0066 FB68     		ldr	r3, [r7, #12]
 692 0068 D3F88C32 		ldr	r3, [r3, #652]
 693 006c 1B69     		ldr	r3, [r3, #16]
 694 006e 002B     		cmp	r3, #0
 695 0070 0AD0     		beq	.L38
 320:Middlewares/ST/STM32_USB_Device_Library/Core/Src/usbd_core.c ****            (pdev->dev_state == USBD_STATE_CONFIGURED))
 696              		.loc 1 320 0 discriminator 1
 697 0072 FB68     		ldr	r3, [r7, #12]
 698 0074 93F87432 		ldrb	r3, [r3, #628]	@ zero_extendqisi2
 319:Middlewares/ST/STM32_USB_Device_Library/Core/Src/usbd_core.c ****            (pdev->dev_state == USBD_STATE_CONFIGURED))
 699              		.loc 1 319 0 discriminator 1
 700 0078 032B     		cmp	r3, #3
 701 007a 05D1     		bne	.L38
 321:Middlewares/ST/STM32_USB_Device_Library/Core/Src/usbd_core.c ****         {
 322:Middlewares/ST/STM32_USB_Device_Library/Core/Src/usbd_core.c ****           pdev->pClass->EP0_RxReady(pdev);
 702              		.loc 1 322 0
 703 007c FB68     		ldr	r3, [r7, #12]
 704 007e D3F88C32 		ldr	r3, [r3, #652]
 705 0082 1B69     		ldr	r3, [r3, #16]
 706 0084 F868     		ldr	r0, [r7, #12]
 707 0086 9847     		blx	r3
 708              	.LVL4:
 709              	.L38:
 323:Middlewares/ST/STM32_USB_Device_Library/Core/Src/usbd_core.c ****         }
 324:Middlewares/ST/STM32_USB_Device_Library/Core/Src/usbd_core.c ****         USBD_CtlSendStatus(pdev);
 710              		.loc 1 324 0
 711 0088 F868     		ldr	r0, [r7, #12]
 712 008a FFF7FEFF 		bl	USBD_CtlSendStatus
 713 008e 23E0     		b	.L40
 714              	.L33:
 325:Middlewares/ST/STM32_USB_Device_Library/Core/Src/usbd_core.c ****       }
 326:Middlewares/ST/STM32_USB_Device_Library/Core/Src/usbd_core.c ****     }
ARM GAS  /tmp/ccYcsBME.s 			page 19


 327:Middlewares/ST/STM32_USB_Device_Library/Core/Src/usbd_core.c ****     else
 328:Middlewares/ST/STM32_USB_Device_Library/Core/Src/usbd_core.c ****     {
 329:Middlewares/ST/STM32_USB_Device_Library/Core/Src/usbd_core.c ****       if (pdev->ep0_state == USBD_EP0_STATUS_OUT)
 715              		.loc 1 329 0
 716 0090 FB68     		ldr	r3, [r7, #12]
 717 0092 D3F86C32 		ldr	r3, [r3, #620]
 718 0096 052B     		cmp	r3, #5
 719 0098 1ED1     		bne	.L40
 330:Middlewares/ST/STM32_USB_Device_Library/Core/Src/usbd_core.c ****       {
 331:Middlewares/ST/STM32_USB_Device_Library/Core/Src/usbd_core.c ****         /*
 332:Middlewares/ST/STM32_USB_Device_Library/Core/Src/usbd_core.c ****          * STATUS PHASE completed, update ep0_state to idle
 333:Middlewares/ST/STM32_USB_Device_Library/Core/Src/usbd_core.c ****          */
 334:Middlewares/ST/STM32_USB_Device_Library/Core/Src/usbd_core.c ****         pdev->ep0_state = USBD_EP0_IDLE;
 720              		.loc 1 334 0
 721 009a FB68     		ldr	r3, [r7, #12]
 722 009c 0022     		movs	r2, #0
 723 009e C3F86C22 		str	r2, [r3, #620]
 335:Middlewares/ST/STM32_USB_Device_Library/Core/Src/usbd_core.c ****         USBD_LL_StallEP(pdev, 0U);
 724              		.loc 1 335 0
 725 00a2 0021     		movs	r1, #0
 726 00a4 F868     		ldr	r0, [r7, #12]
 727 00a6 FFF7FEFF 		bl	USBD_LL_StallEP
 728 00aa 15E0     		b	.L40
 729              	.L32:
 336:Middlewares/ST/STM32_USB_Device_Library/Core/Src/usbd_core.c ****       }
 337:Middlewares/ST/STM32_USB_Device_Library/Core/Src/usbd_core.c ****     }
 338:Middlewares/ST/STM32_USB_Device_Library/Core/Src/usbd_core.c ****   }
 339:Middlewares/ST/STM32_USB_Device_Library/Core/Src/usbd_core.c ****   else if((pdev->pClass->DataOut != NULL) &&
 730              		.loc 1 339 0
 731 00ac FB68     		ldr	r3, [r7, #12]
 732 00ae D3F88C32 		ldr	r3, [r3, #652]
 733 00b2 9B69     		ldr	r3, [r3, #24]
 734 00b4 002B     		cmp	r3, #0
 735 00b6 0DD0     		beq	.L41
 340:Middlewares/ST/STM32_USB_Device_Library/Core/Src/usbd_core.c ****           (pdev->dev_state == USBD_STATE_CONFIGURED))
 736              		.loc 1 340 0 discriminator 1
 737 00b8 FB68     		ldr	r3, [r7, #12]
 738 00ba 93F87432 		ldrb	r3, [r3, #628]	@ zero_extendqisi2
 339:Middlewares/ST/STM32_USB_Device_Library/Core/Src/usbd_core.c ****           (pdev->dev_state == USBD_STATE_CONFIGURED))
 739              		.loc 1 339 0 discriminator 1
 740 00be 032B     		cmp	r3, #3
 741 00c0 08D1     		bne	.L41
 341:Middlewares/ST/STM32_USB_Device_Library/Core/Src/usbd_core.c ****   {
 342:Middlewares/ST/STM32_USB_Device_Library/Core/Src/usbd_core.c ****     pdev->pClass->DataOut(pdev, epnum);
 742              		.loc 1 342 0
 743 00c2 FB68     		ldr	r3, [r7, #12]
 744 00c4 D3F88C32 		ldr	r3, [r3, #652]
 745 00c8 9B69     		ldr	r3, [r3, #24]
 746 00ca FA7A     		ldrb	r2, [r7, #11]	@ zero_extendqisi2
 747 00cc 1146     		mov	r1, r2
 748 00ce F868     		ldr	r0, [r7, #12]
 749 00d0 9847     		blx	r3
 750              	.LVL5:
 751 00d2 01E0     		b	.L40
 752              	.L41:
 343:Middlewares/ST/STM32_USB_Device_Library/Core/Src/usbd_core.c ****   }
 344:Middlewares/ST/STM32_USB_Device_Library/Core/Src/usbd_core.c ****   else
ARM GAS  /tmp/ccYcsBME.s 			page 20


 345:Middlewares/ST/STM32_USB_Device_Library/Core/Src/usbd_core.c ****   {
 346:Middlewares/ST/STM32_USB_Device_Library/Core/Src/usbd_core.c ****     /* should never be in this condition */
 347:Middlewares/ST/STM32_USB_Device_Library/Core/Src/usbd_core.c ****     return USBD_FAIL;
 753              		.loc 1 347 0
 754 00d4 0223     		movs	r3, #2
 755 00d6 00E0     		b	.L42
 756              	.L40:
 348:Middlewares/ST/STM32_USB_Device_Library/Core/Src/usbd_core.c ****   }
 349:Middlewares/ST/STM32_USB_Device_Library/Core/Src/usbd_core.c **** 
 350:Middlewares/ST/STM32_USB_Device_Library/Core/Src/usbd_core.c ****   return USBD_OK;
 757              		.loc 1 350 0
 758 00d8 0023     		movs	r3, #0
 759              	.L42:
 351:Middlewares/ST/STM32_USB_Device_Library/Core/Src/usbd_core.c **** }
 760              		.loc 1 351 0
 761 00da 1846     		mov	r0, r3
 762 00dc 1837     		adds	r7, r7, #24
 763              	.LCFI50:
 764              		.cfi_def_cfa_offset 8
 765 00de BD46     		mov	sp, r7
 766              	.LCFI51:
 767              		.cfi_def_cfa_register 13
 768              		@ sp needed
 769 00e0 80BD     		pop	{r7, pc}
 770              		.cfi_endproc
 771              	.LFE142:
 773              		.section	.text.USBD_LL_DataInStage,"ax",%progbits
 774              		.align	1
 775              		.global	USBD_LL_DataInStage
 776              		.syntax unified
 777              		.thumb
 778              		.thumb_func
 779              		.fpu fpv4-sp-d16
 781              	USBD_LL_DataInStage:
 782              	.LFB143:
 352:Middlewares/ST/STM32_USB_Device_Library/Core/Src/usbd_core.c **** 
 353:Middlewares/ST/STM32_USB_Device_Library/Core/Src/usbd_core.c **** /**
 354:Middlewares/ST/STM32_USB_Device_Library/Core/Src/usbd_core.c **** * @brief  USBD_DataInStage
 355:Middlewares/ST/STM32_USB_Device_Library/Core/Src/usbd_core.c **** *         Handle data in stage
 356:Middlewares/ST/STM32_USB_Device_Library/Core/Src/usbd_core.c **** * @param  pdev: device instance
 357:Middlewares/ST/STM32_USB_Device_Library/Core/Src/usbd_core.c **** * @param  epnum: endpoint index
 358:Middlewares/ST/STM32_USB_Device_Library/Core/Src/usbd_core.c **** * @retval status
 359:Middlewares/ST/STM32_USB_Device_Library/Core/Src/usbd_core.c **** */
 360:Middlewares/ST/STM32_USB_Device_Library/Core/Src/usbd_core.c **** USBD_StatusTypeDef USBD_LL_DataInStage(USBD_HandleTypeDef *pdev, uint8_t epnum,
 361:Middlewares/ST/STM32_USB_Device_Library/Core/Src/usbd_core.c ****                                        uint8_t *pdata)
 362:Middlewares/ST/STM32_USB_Device_Library/Core/Src/usbd_core.c **** {
 783              		.loc 1 362 0
 784              		.cfi_startproc
 785              		@ args = 0, pretend = 0, frame = 24
 786              		@ frame_needed = 1, uses_anonymous_args = 0
 787 0000 80B5     		push	{r7, lr}
 788              	.LCFI52:
 789              		.cfi_def_cfa_offset 8
 790              		.cfi_offset 7, -8
 791              		.cfi_offset 14, -4
 792 0002 86B0     		sub	sp, sp, #24
 793              	.LCFI53:
ARM GAS  /tmp/ccYcsBME.s 			page 21


 794              		.cfi_def_cfa_offset 32
 795 0004 00AF     		add	r7, sp, #0
 796              	.LCFI54:
 797              		.cfi_def_cfa_register 7
 798 0006 F860     		str	r0, [r7, #12]
 799 0008 0B46     		mov	r3, r1
 800 000a 7A60     		str	r2, [r7, #4]
 801 000c FB72     		strb	r3, [r7, #11]
 363:Middlewares/ST/STM32_USB_Device_Library/Core/Src/usbd_core.c ****   USBD_EndpointTypeDef *pep;
 364:Middlewares/ST/STM32_USB_Device_Library/Core/Src/usbd_core.c **** 
 365:Middlewares/ST/STM32_USB_Device_Library/Core/Src/usbd_core.c ****   if(epnum == 0U)
 802              		.loc 1 365 0
 803 000e FB7A     		ldrb	r3, [r7, #11]	@ zero_extendqisi2
 804 0010 002B     		cmp	r3, #0
 805 0012 7FD1     		bne	.L44
 366:Middlewares/ST/STM32_USB_Device_Library/Core/Src/usbd_core.c ****   {
 367:Middlewares/ST/STM32_USB_Device_Library/Core/Src/usbd_core.c ****     pep = &pdev->ep_in[0];
 806              		.loc 1 367 0
 807 0014 FB68     		ldr	r3, [r7, #12]
 808 0016 1433     		adds	r3, r3, #20
 809 0018 7B61     		str	r3, [r7, #20]
 368:Middlewares/ST/STM32_USB_Device_Library/Core/Src/usbd_core.c **** 
 369:Middlewares/ST/STM32_USB_Device_Library/Core/Src/usbd_core.c ****     if ( pdev->ep0_state == USBD_EP0_DATA_IN)
 810              		.loc 1 369 0
 811 001a FB68     		ldr	r3, [r7, #12]
 812 001c D3F86C32 		ldr	r3, [r3, #620]
 813 0020 022B     		cmp	r3, #2
 814 0022 5CD1     		bne	.L45
 370:Middlewares/ST/STM32_USB_Device_Library/Core/Src/usbd_core.c ****     {
 371:Middlewares/ST/STM32_USB_Device_Library/Core/Src/usbd_core.c ****       if(pep->rem_length > pep->maxpacket)
 815              		.loc 1 371 0
 816 0024 7B69     		ldr	r3, [r7, #20]
 817 0026 DA68     		ldr	r2, [r3, #12]
 818 0028 7B69     		ldr	r3, [r7, #20]
 819 002a 1B69     		ldr	r3, [r3, #16]
 820 002c 9A42     		cmp	r2, r3
 821 002e 15D9     		bls	.L46
 372:Middlewares/ST/STM32_USB_Device_Library/Core/Src/usbd_core.c ****       {
 373:Middlewares/ST/STM32_USB_Device_Library/Core/Src/usbd_core.c ****         pep->rem_length -= pep->maxpacket;
 822              		.loc 1 373 0
 823 0030 7B69     		ldr	r3, [r7, #20]
 824 0032 DA68     		ldr	r2, [r3, #12]
 825 0034 7B69     		ldr	r3, [r7, #20]
 826 0036 1B69     		ldr	r3, [r3, #16]
 827 0038 D21A     		subs	r2, r2, r3
 828 003a 7B69     		ldr	r3, [r7, #20]
 829 003c DA60     		str	r2, [r3, #12]
 374:Middlewares/ST/STM32_USB_Device_Library/Core/Src/usbd_core.c **** 
 375:Middlewares/ST/STM32_USB_Device_Library/Core/Src/usbd_core.c ****         USBD_CtlContinueSendData (pdev, pdata, (uint16_t)pep->rem_length);
 830              		.loc 1 375 0
 831 003e 7B69     		ldr	r3, [r7, #20]
 832 0040 DB68     		ldr	r3, [r3, #12]
 833 0042 9BB2     		uxth	r3, r3
 834 0044 1A46     		mov	r2, r3
 835 0046 7968     		ldr	r1, [r7, #4]
 836 0048 F868     		ldr	r0, [r7, #12]
 837 004a FFF7FEFF 		bl	USBD_CtlContinueSendData
ARM GAS  /tmp/ccYcsBME.s 			page 22


 376:Middlewares/ST/STM32_USB_Device_Library/Core/Src/usbd_core.c **** 
 377:Middlewares/ST/STM32_USB_Device_Library/Core/Src/usbd_core.c ****         /* Prepare endpoint for premature end of transfer */
 378:Middlewares/ST/STM32_USB_Device_Library/Core/Src/usbd_core.c ****         USBD_LL_PrepareReceive (pdev, 0U, NULL, 0U);
 838              		.loc 1 378 0
 839 004e 0023     		movs	r3, #0
 840 0050 0022     		movs	r2, #0
 841 0052 0021     		movs	r1, #0
 842 0054 F868     		ldr	r0, [r7, #12]
 843 0056 FFF7FEFF 		bl	USBD_LL_PrepareReceive
 844 005a 4EE0     		b	.L50
 845              	.L46:
 379:Middlewares/ST/STM32_USB_Device_Library/Core/Src/usbd_core.c ****       }
 380:Middlewares/ST/STM32_USB_Device_Library/Core/Src/usbd_core.c ****       else
 381:Middlewares/ST/STM32_USB_Device_Library/Core/Src/usbd_core.c ****       { /* last packet is MPS multiple, so send ZLP packet */
 382:Middlewares/ST/STM32_USB_Device_Library/Core/Src/usbd_core.c ****         if((pep->total_length % pep->maxpacket == 0U) &&
 846              		.loc 1 382 0
 847 005c 7B69     		ldr	r3, [r7, #20]
 848 005e 9B68     		ldr	r3, [r3, #8]
 849 0060 7A69     		ldr	r2, [r7, #20]
 850 0062 1269     		ldr	r2, [r2, #16]
 851 0064 B3FBF2F1 		udiv	r1, r3, r2
 852 0068 02FB01F2 		mul	r2, r2, r1
 853 006c 9B1A     		subs	r3, r3, r2
 854 006e 002B     		cmp	r3, #0
 855 0070 1CD1     		bne	.L48
 383:Middlewares/ST/STM32_USB_Device_Library/Core/Src/usbd_core.c ****            (pep->total_length >= pep->maxpacket) &&
 856              		.loc 1 383 0 discriminator 1
 857 0072 7B69     		ldr	r3, [r7, #20]
 858 0074 9A68     		ldr	r2, [r3, #8]
 859 0076 7B69     		ldr	r3, [r7, #20]
 860 0078 1B69     		ldr	r3, [r3, #16]
 382:Middlewares/ST/STM32_USB_Device_Library/Core/Src/usbd_core.c ****            (pep->total_length >= pep->maxpacket) &&
 861              		.loc 1 382 0 discriminator 1
 862 007a 9A42     		cmp	r2, r3
 863 007c 16D3     		bcc	.L48
 384:Middlewares/ST/STM32_USB_Device_Library/Core/Src/usbd_core.c ****            (pep->total_length < pdev->ep0_data_len))
 864              		.loc 1 384 0
 865 007e 7B69     		ldr	r3, [r7, #20]
 866 0080 9A68     		ldr	r2, [r3, #8]
 867 0082 FB68     		ldr	r3, [r7, #12]
 868 0084 D3F87032 		ldr	r3, [r3, #624]
 383:Middlewares/ST/STM32_USB_Device_Library/Core/Src/usbd_core.c ****            (pep->total_length >= pep->maxpacket) &&
 869              		.loc 1 383 0
 870 0088 9A42     		cmp	r2, r3
 871 008a 0FD2     		bcs	.L48
 385:Middlewares/ST/STM32_USB_Device_Library/Core/Src/usbd_core.c ****         {
 386:Middlewares/ST/STM32_USB_Device_Library/Core/Src/usbd_core.c ****           USBD_CtlContinueSendData(pdev, NULL, 0U);
 872              		.loc 1 386 0
 873 008c 0022     		movs	r2, #0
 874 008e 0021     		movs	r1, #0
 875 0090 F868     		ldr	r0, [r7, #12]
 876 0092 FFF7FEFF 		bl	USBD_CtlContinueSendData
 387:Middlewares/ST/STM32_USB_Device_Library/Core/Src/usbd_core.c ****           pdev->ep0_data_len = 0U;
 877              		.loc 1 387 0
 878 0096 FB68     		ldr	r3, [r7, #12]
 879 0098 0022     		movs	r2, #0
 880 009a C3F87022 		str	r2, [r3, #624]
ARM GAS  /tmp/ccYcsBME.s 			page 23


 388:Middlewares/ST/STM32_USB_Device_Library/Core/Src/usbd_core.c **** 
 389:Middlewares/ST/STM32_USB_Device_Library/Core/Src/usbd_core.c ****           /* Prepare endpoint for premature end of transfer */
 390:Middlewares/ST/STM32_USB_Device_Library/Core/Src/usbd_core.c ****           USBD_LL_PrepareReceive (pdev, 0U, NULL, 0U);
 881              		.loc 1 390 0
 882 009e 0023     		movs	r3, #0
 883 00a0 0022     		movs	r2, #0
 884 00a2 0021     		movs	r1, #0
 885 00a4 F868     		ldr	r0, [r7, #12]
 886 00a6 FFF7FEFF 		bl	USBD_LL_PrepareReceive
 887 00aa 26E0     		b	.L50
 888              	.L48:
 391:Middlewares/ST/STM32_USB_Device_Library/Core/Src/usbd_core.c ****         }
 392:Middlewares/ST/STM32_USB_Device_Library/Core/Src/usbd_core.c ****         else
 393:Middlewares/ST/STM32_USB_Device_Library/Core/Src/usbd_core.c ****         {
 394:Middlewares/ST/STM32_USB_Device_Library/Core/Src/usbd_core.c ****           if((pdev->pClass->EP0_TxSent != NULL)&&
 889              		.loc 1 394 0
 890 00ac FB68     		ldr	r3, [r7, #12]
 891 00ae D3F88C32 		ldr	r3, [r3, #652]
 892 00b2 DB68     		ldr	r3, [r3, #12]
 893 00b4 002B     		cmp	r3, #0
 894 00b6 0AD0     		beq	.L49
 395:Middlewares/ST/STM32_USB_Device_Library/Core/Src/usbd_core.c ****              (pdev->dev_state == USBD_STATE_CONFIGURED))
 895              		.loc 1 395 0 discriminator 1
 896 00b8 FB68     		ldr	r3, [r7, #12]
 897 00ba 93F87432 		ldrb	r3, [r3, #628]	@ zero_extendqisi2
 394:Middlewares/ST/STM32_USB_Device_Library/Core/Src/usbd_core.c ****              (pdev->dev_state == USBD_STATE_CONFIGURED))
 898              		.loc 1 394 0 discriminator 1
 899 00be 032B     		cmp	r3, #3
 900 00c0 05D1     		bne	.L49
 396:Middlewares/ST/STM32_USB_Device_Library/Core/Src/usbd_core.c ****           {
 397:Middlewares/ST/STM32_USB_Device_Library/Core/Src/usbd_core.c ****             pdev->pClass->EP0_TxSent(pdev);
 901              		.loc 1 397 0
 902 00c2 FB68     		ldr	r3, [r7, #12]
 903 00c4 D3F88C32 		ldr	r3, [r3, #652]
 904 00c8 DB68     		ldr	r3, [r3, #12]
 905 00ca F868     		ldr	r0, [r7, #12]
 906 00cc 9847     		blx	r3
 907              	.LVL6:
 908              	.L49:
 398:Middlewares/ST/STM32_USB_Device_Library/Core/Src/usbd_core.c ****           }
 399:Middlewares/ST/STM32_USB_Device_Library/Core/Src/usbd_core.c ****           USBD_LL_StallEP(pdev, 0x80U);
 909              		.loc 1 399 0
 910 00ce 8021     		movs	r1, #128
 911 00d0 F868     		ldr	r0, [r7, #12]
 912 00d2 FFF7FEFF 		bl	USBD_LL_StallEP
 400:Middlewares/ST/STM32_USB_Device_Library/Core/Src/usbd_core.c ****           USBD_CtlReceiveStatus(pdev);
 913              		.loc 1 400 0
 914 00d6 F868     		ldr	r0, [r7, #12]
 915 00d8 FFF7FEFF 		bl	USBD_CtlReceiveStatus
 916 00dc 0DE0     		b	.L50
 917              	.L45:
 401:Middlewares/ST/STM32_USB_Device_Library/Core/Src/usbd_core.c ****         }
 402:Middlewares/ST/STM32_USB_Device_Library/Core/Src/usbd_core.c ****       }
 403:Middlewares/ST/STM32_USB_Device_Library/Core/Src/usbd_core.c ****     }
 404:Middlewares/ST/STM32_USB_Device_Library/Core/Src/usbd_core.c ****     else
 405:Middlewares/ST/STM32_USB_Device_Library/Core/Src/usbd_core.c ****     {
 406:Middlewares/ST/STM32_USB_Device_Library/Core/Src/usbd_core.c ****       if ((pdev->ep0_state == USBD_EP0_STATUS_IN) ||
ARM GAS  /tmp/ccYcsBME.s 			page 24


 918              		.loc 1 406 0
 919 00de FB68     		ldr	r3, [r7, #12]
 920 00e0 D3F86C32 		ldr	r3, [r3, #620]
 921 00e4 042B     		cmp	r3, #4
 922 00e6 04D0     		beq	.L51
 407:Middlewares/ST/STM32_USB_Device_Library/Core/Src/usbd_core.c ****           (pdev->ep0_state == USBD_EP0_IDLE))
 923              		.loc 1 407 0 discriminator 1
 924 00e8 FB68     		ldr	r3, [r7, #12]
 925 00ea D3F86C32 		ldr	r3, [r3, #620]
 406:Middlewares/ST/STM32_USB_Device_Library/Core/Src/usbd_core.c ****           (pdev->ep0_state == USBD_EP0_IDLE))
 926              		.loc 1 406 0 discriminator 1
 927 00ee 002B     		cmp	r3, #0
 928 00f0 03D1     		bne	.L50
 929              	.L51:
 408:Middlewares/ST/STM32_USB_Device_Library/Core/Src/usbd_core.c ****       {
 409:Middlewares/ST/STM32_USB_Device_Library/Core/Src/usbd_core.c ****         USBD_LL_StallEP(pdev, 0x80U);
 930              		.loc 1 409 0
 931 00f2 8021     		movs	r1, #128
 932 00f4 F868     		ldr	r0, [r7, #12]
 933 00f6 FFF7FEFF 		bl	USBD_LL_StallEP
 934              	.L50:
 410:Middlewares/ST/STM32_USB_Device_Library/Core/Src/usbd_core.c ****       }
 411:Middlewares/ST/STM32_USB_Device_Library/Core/Src/usbd_core.c ****     }
 412:Middlewares/ST/STM32_USB_Device_Library/Core/Src/usbd_core.c **** 
 413:Middlewares/ST/STM32_USB_Device_Library/Core/Src/usbd_core.c ****     if (pdev->dev_test_mode == 1U)
 935              		.loc 1 413 0
 936 00fa FB68     		ldr	r3, [r7, #12]
 937 00fc 93F87832 		ldrb	r3, [r3, #632]	@ zero_extendqisi2
 938 0100 012B     		cmp	r3, #1
 939 0102 1DD1     		bne	.L53
 414:Middlewares/ST/STM32_USB_Device_Library/Core/Src/usbd_core.c ****     {
 415:Middlewares/ST/STM32_USB_Device_Library/Core/Src/usbd_core.c ****       USBD_RunTestMode(pdev);
 940              		.loc 1 415 0
 941 0104 F868     		ldr	r0, [r7, #12]
 942 0106 FFF7FEFF 		bl	USBD_RunTestMode
 416:Middlewares/ST/STM32_USB_Device_Library/Core/Src/usbd_core.c ****       pdev->dev_test_mode = 0U;
 943              		.loc 1 416 0
 944 010a FB68     		ldr	r3, [r7, #12]
 945 010c 0022     		movs	r2, #0
 946 010e 83F87822 		strb	r2, [r3, #632]
 947 0112 15E0     		b	.L53
 948              	.L44:
 417:Middlewares/ST/STM32_USB_Device_Library/Core/Src/usbd_core.c ****     }
 418:Middlewares/ST/STM32_USB_Device_Library/Core/Src/usbd_core.c ****   }
 419:Middlewares/ST/STM32_USB_Device_Library/Core/Src/usbd_core.c ****   else if((pdev->pClass->DataIn != NULL) &&
 949              		.loc 1 419 0
 950 0114 FB68     		ldr	r3, [r7, #12]
 951 0116 D3F88C32 		ldr	r3, [r3, #652]
 952 011a 5B69     		ldr	r3, [r3, #20]
 953 011c 002B     		cmp	r3, #0
 954 011e 0DD0     		beq	.L54
 420:Middlewares/ST/STM32_USB_Device_Library/Core/Src/usbd_core.c ****           (pdev->dev_state == USBD_STATE_CONFIGURED))
 955              		.loc 1 420 0 discriminator 1
 956 0120 FB68     		ldr	r3, [r7, #12]
 957 0122 93F87432 		ldrb	r3, [r3, #628]	@ zero_extendqisi2
 419:Middlewares/ST/STM32_USB_Device_Library/Core/Src/usbd_core.c ****           (pdev->dev_state == USBD_STATE_CONFIGURED))
 958              		.loc 1 419 0 discriminator 1
ARM GAS  /tmp/ccYcsBME.s 			page 25


 959 0126 032B     		cmp	r3, #3
 960 0128 08D1     		bne	.L54
 421:Middlewares/ST/STM32_USB_Device_Library/Core/Src/usbd_core.c ****   {
 422:Middlewares/ST/STM32_USB_Device_Library/Core/Src/usbd_core.c ****     pdev->pClass->DataIn(pdev, epnum);
 961              		.loc 1 422 0
 962 012a FB68     		ldr	r3, [r7, #12]
 963 012c D3F88C32 		ldr	r3, [r3, #652]
 964 0130 5B69     		ldr	r3, [r3, #20]
 965 0132 FA7A     		ldrb	r2, [r7, #11]	@ zero_extendqisi2
 966 0134 1146     		mov	r1, r2
 967 0136 F868     		ldr	r0, [r7, #12]
 968 0138 9847     		blx	r3
 969              	.LVL7:
 970 013a 01E0     		b	.L53
 971              	.L54:
 423:Middlewares/ST/STM32_USB_Device_Library/Core/Src/usbd_core.c ****   }
 424:Middlewares/ST/STM32_USB_Device_Library/Core/Src/usbd_core.c ****   else
 425:Middlewares/ST/STM32_USB_Device_Library/Core/Src/usbd_core.c ****   {
 426:Middlewares/ST/STM32_USB_Device_Library/Core/Src/usbd_core.c ****     /* should never be in this condition */
 427:Middlewares/ST/STM32_USB_Device_Library/Core/Src/usbd_core.c ****     return USBD_FAIL;
 972              		.loc 1 427 0
 973 013c 0223     		movs	r3, #2
 974 013e 00E0     		b	.L55
 975              	.L53:
 428:Middlewares/ST/STM32_USB_Device_Library/Core/Src/usbd_core.c ****   }
 429:Middlewares/ST/STM32_USB_Device_Library/Core/Src/usbd_core.c **** 
 430:Middlewares/ST/STM32_USB_Device_Library/Core/Src/usbd_core.c ****   return USBD_OK;
 976              		.loc 1 430 0
 977 0140 0023     		movs	r3, #0
 978              	.L55:
 431:Middlewares/ST/STM32_USB_Device_Library/Core/Src/usbd_core.c **** }
 979              		.loc 1 431 0
 980 0142 1846     		mov	r0, r3
 981 0144 1837     		adds	r7, r7, #24
 982              	.LCFI55:
 983              		.cfi_def_cfa_offset 8
 984 0146 BD46     		mov	sp, r7
 985              	.LCFI56:
 986              		.cfi_def_cfa_register 13
 987              		@ sp needed
 988 0148 80BD     		pop	{r7, pc}
 989              		.cfi_endproc
 990              	.LFE143:
 992              		.section	.text.USBD_LL_Reset,"ax",%progbits
 993              		.align	1
 994              		.global	USBD_LL_Reset
 995              		.syntax unified
 996              		.thumb
 997              		.thumb_func
 998              		.fpu fpv4-sp-d16
 1000              	USBD_LL_Reset:
 1001              	.LFB144:
 432:Middlewares/ST/STM32_USB_Device_Library/Core/Src/usbd_core.c **** 
 433:Middlewares/ST/STM32_USB_Device_Library/Core/Src/usbd_core.c **** /**
 434:Middlewares/ST/STM32_USB_Device_Library/Core/Src/usbd_core.c **** * @brief  USBD_LL_Reset
 435:Middlewares/ST/STM32_USB_Device_Library/Core/Src/usbd_core.c **** *         Handle Reset event
 436:Middlewares/ST/STM32_USB_Device_Library/Core/Src/usbd_core.c **** * @param  pdev: device instance
ARM GAS  /tmp/ccYcsBME.s 			page 26


 437:Middlewares/ST/STM32_USB_Device_Library/Core/Src/usbd_core.c **** * @retval status
 438:Middlewares/ST/STM32_USB_Device_Library/Core/Src/usbd_core.c **** */
 439:Middlewares/ST/STM32_USB_Device_Library/Core/Src/usbd_core.c **** 
 440:Middlewares/ST/STM32_USB_Device_Library/Core/Src/usbd_core.c **** USBD_StatusTypeDef USBD_LL_Reset(USBD_HandleTypeDef  *pdev)
 441:Middlewares/ST/STM32_USB_Device_Library/Core/Src/usbd_core.c **** {
 1002              		.loc 1 441 0
 1003              		.cfi_startproc
 1004              		@ args = 0, pretend = 0, frame = 8
 1005              		@ frame_needed = 1, uses_anonymous_args = 0
 1006 0000 80B5     		push	{r7, lr}
 1007              	.LCFI57:
 1008              		.cfi_def_cfa_offset 8
 1009              		.cfi_offset 7, -8
 1010              		.cfi_offset 14, -4
 1011 0002 82B0     		sub	sp, sp, #8
 1012              	.LCFI58:
 1013              		.cfi_def_cfa_offset 16
 1014 0004 00AF     		add	r7, sp, #0
 1015              	.LCFI59:
 1016              		.cfi_def_cfa_register 7
 1017 0006 7860     		str	r0, [r7, #4]
 442:Middlewares/ST/STM32_USB_Device_Library/Core/Src/usbd_core.c ****   /* Open EP0 OUT */
 443:Middlewares/ST/STM32_USB_Device_Library/Core/Src/usbd_core.c ****   USBD_LL_OpenEP(pdev, 0x00U, USBD_EP_TYPE_CTRL, USB_MAX_EP0_SIZE);
 1018              		.loc 1 443 0
 1019 0008 4023     		movs	r3, #64
 1020 000a 0022     		movs	r2, #0
 1021 000c 0021     		movs	r1, #0
 1022 000e 7868     		ldr	r0, [r7, #4]
 1023 0010 FFF7FEFF 		bl	USBD_LL_OpenEP
 444:Middlewares/ST/STM32_USB_Device_Library/Core/Src/usbd_core.c ****   pdev->ep_out[0x00U & 0xFU].is_used = 1U;
 1024              		.loc 1 444 0
 1025 0014 7B68     		ldr	r3, [r7, #4]
 1026 0016 0122     		movs	r2, #1
 1027 0018 C3F84421 		str	r2, [r3, #324]
 445:Middlewares/ST/STM32_USB_Device_Library/Core/Src/usbd_core.c **** 
 446:Middlewares/ST/STM32_USB_Device_Library/Core/Src/usbd_core.c ****   pdev->ep_out[0].maxpacket = USB_MAX_EP0_SIZE;
 1028              		.loc 1 446 0
 1029 001c 7B68     		ldr	r3, [r7, #4]
 1030 001e 4022     		movs	r2, #64
 1031 0020 C3F85021 		str	r2, [r3, #336]
 447:Middlewares/ST/STM32_USB_Device_Library/Core/Src/usbd_core.c **** 
 448:Middlewares/ST/STM32_USB_Device_Library/Core/Src/usbd_core.c ****   /* Open EP0 IN */
 449:Middlewares/ST/STM32_USB_Device_Library/Core/Src/usbd_core.c ****   USBD_LL_OpenEP(pdev, 0x80U, USBD_EP_TYPE_CTRL, USB_MAX_EP0_SIZE);
 1032              		.loc 1 449 0
 1033 0024 4023     		movs	r3, #64
 1034 0026 0022     		movs	r2, #0
 1035 0028 8021     		movs	r1, #128
 1036 002a 7868     		ldr	r0, [r7, #4]
 1037 002c FFF7FEFF 		bl	USBD_LL_OpenEP
 450:Middlewares/ST/STM32_USB_Device_Library/Core/Src/usbd_core.c ****   pdev->ep_in[0x80U & 0xFU].is_used = 1U;
 1038              		.loc 1 450 0
 1039 0030 7B68     		ldr	r3, [r7, #4]
 1040 0032 0122     		movs	r2, #1
 1041 0034 9A61     		str	r2, [r3, #24]
 451:Middlewares/ST/STM32_USB_Device_Library/Core/Src/usbd_core.c **** 
 452:Middlewares/ST/STM32_USB_Device_Library/Core/Src/usbd_core.c ****   pdev->ep_in[0].maxpacket = USB_MAX_EP0_SIZE;
 1042              		.loc 1 452 0
ARM GAS  /tmp/ccYcsBME.s 			page 27


 1043 0036 7B68     		ldr	r3, [r7, #4]
 1044 0038 4022     		movs	r2, #64
 1045 003a 5A62     		str	r2, [r3, #36]
 453:Middlewares/ST/STM32_USB_Device_Library/Core/Src/usbd_core.c ****   /* Upon Reset call user call back */
 454:Middlewares/ST/STM32_USB_Device_Library/Core/Src/usbd_core.c ****   pdev->dev_state = USBD_STATE_DEFAULT;
 1046              		.loc 1 454 0
 1047 003c 7B68     		ldr	r3, [r7, #4]
 1048 003e 0122     		movs	r2, #1
 1049 0040 83F87422 		strb	r2, [r3, #628]
 455:Middlewares/ST/STM32_USB_Device_Library/Core/Src/usbd_core.c ****   pdev->ep0_state = USBD_EP0_IDLE;
 1050              		.loc 1 455 0
 1051 0044 7B68     		ldr	r3, [r7, #4]
 1052 0046 0022     		movs	r2, #0
 1053 0048 C3F86C22 		str	r2, [r3, #620]
 456:Middlewares/ST/STM32_USB_Device_Library/Core/Src/usbd_core.c ****   pdev->dev_config= 0U;
 1054              		.loc 1 456 0
 1055 004c 7B68     		ldr	r3, [r7, #4]
 1056 004e 0022     		movs	r2, #0
 1057 0050 5A60     		str	r2, [r3, #4]
 457:Middlewares/ST/STM32_USB_Device_Library/Core/Src/usbd_core.c ****   pdev->dev_remote_wakeup = 0U;
 1058              		.loc 1 457 0
 1059 0052 7B68     		ldr	r3, [r7, #4]
 1060 0054 0022     		movs	r2, #0
 1061 0056 C3F87C22 		str	r2, [r3, #636]
 458:Middlewares/ST/STM32_USB_Device_Library/Core/Src/usbd_core.c **** 
 459:Middlewares/ST/STM32_USB_Device_Library/Core/Src/usbd_core.c ****   if (pdev->pClassData)
 1062              		.loc 1 459 0
 1063 005a 7B68     		ldr	r3, [r7, #4]
 1064 005c D3F89032 		ldr	r3, [r3, #656]
 1065 0060 002B     		cmp	r3, #0
 1066 0062 09D0     		beq	.L57
 460:Middlewares/ST/STM32_USB_Device_Library/Core/Src/usbd_core.c ****   {
 461:Middlewares/ST/STM32_USB_Device_Library/Core/Src/usbd_core.c ****     pdev->pClass->DeInit(pdev, (uint8_t)pdev->dev_config);
 1067              		.loc 1 461 0
 1068 0064 7B68     		ldr	r3, [r7, #4]
 1069 0066 D3F88C32 		ldr	r3, [r3, #652]
 1070 006a 5B68     		ldr	r3, [r3, #4]
 1071 006c 7A68     		ldr	r2, [r7, #4]
 1072 006e 5268     		ldr	r2, [r2, #4]
 1073 0070 D2B2     		uxtb	r2, r2
 1074 0072 1146     		mov	r1, r2
 1075 0074 7868     		ldr	r0, [r7, #4]
 1076 0076 9847     		blx	r3
 1077              	.LVL8:
 1078              	.L57:
 462:Middlewares/ST/STM32_USB_Device_Library/Core/Src/usbd_core.c ****   }
 463:Middlewares/ST/STM32_USB_Device_Library/Core/Src/usbd_core.c **** 
 464:Middlewares/ST/STM32_USB_Device_Library/Core/Src/usbd_core.c ****   return USBD_OK;
 1079              		.loc 1 464 0
 1080 0078 0023     		movs	r3, #0
 465:Middlewares/ST/STM32_USB_Device_Library/Core/Src/usbd_core.c **** }
 1081              		.loc 1 465 0
 1082 007a 1846     		mov	r0, r3
 1083 007c 0837     		adds	r7, r7, #8
 1084              	.LCFI60:
 1085              		.cfi_def_cfa_offset 8
 1086 007e BD46     		mov	sp, r7
ARM GAS  /tmp/ccYcsBME.s 			page 28


 1087              	.LCFI61:
 1088              		.cfi_def_cfa_register 13
 1089              		@ sp needed
 1090 0080 80BD     		pop	{r7, pc}
 1091              		.cfi_endproc
 1092              	.LFE144:
 1094              		.section	.text.USBD_LL_SetSpeed,"ax",%progbits
 1095              		.align	1
 1096              		.global	USBD_LL_SetSpeed
 1097              		.syntax unified
 1098              		.thumb
 1099              		.thumb_func
 1100              		.fpu fpv4-sp-d16
 1102              	USBD_LL_SetSpeed:
 1103              	.LFB145:
 466:Middlewares/ST/STM32_USB_Device_Library/Core/Src/usbd_core.c **** 
 467:Middlewares/ST/STM32_USB_Device_Library/Core/Src/usbd_core.c **** /**
 468:Middlewares/ST/STM32_USB_Device_Library/Core/Src/usbd_core.c **** * @brief  USBD_LL_Reset
 469:Middlewares/ST/STM32_USB_Device_Library/Core/Src/usbd_core.c **** *         Handle Reset event
 470:Middlewares/ST/STM32_USB_Device_Library/Core/Src/usbd_core.c **** * @param  pdev: device instance
 471:Middlewares/ST/STM32_USB_Device_Library/Core/Src/usbd_core.c **** * @retval status
 472:Middlewares/ST/STM32_USB_Device_Library/Core/Src/usbd_core.c **** */
 473:Middlewares/ST/STM32_USB_Device_Library/Core/Src/usbd_core.c **** USBD_StatusTypeDef USBD_LL_SetSpeed(USBD_HandleTypeDef  *pdev, USBD_SpeedTypeDef speed)
 474:Middlewares/ST/STM32_USB_Device_Library/Core/Src/usbd_core.c **** {
 1104              		.loc 1 474 0
 1105              		.cfi_startproc
 1106              		@ args = 0, pretend = 0, frame = 8
 1107              		@ frame_needed = 1, uses_anonymous_args = 0
 1108              		@ link register save eliminated.
 1109 0000 80B4     		push	{r7}
 1110              	.LCFI62:
 1111              		.cfi_def_cfa_offset 4
 1112              		.cfi_offset 7, -4
 1113 0002 83B0     		sub	sp, sp, #12
 1114              	.LCFI63:
 1115              		.cfi_def_cfa_offset 16
 1116 0004 00AF     		add	r7, sp, #0
 1117              	.LCFI64:
 1118              		.cfi_def_cfa_register 7
 1119 0006 7860     		str	r0, [r7, #4]
 1120 0008 0B46     		mov	r3, r1
 1121 000a FB70     		strb	r3, [r7, #3]
 475:Middlewares/ST/STM32_USB_Device_Library/Core/Src/usbd_core.c ****   pdev->dev_speed = speed;
 1122              		.loc 1 475 0
 1123 000c 7B68     		ldr	r3, [r7, #4]
 1124 000e FA78     		ldrb	r2, [r7, #3]
 1125 0010 1A74     		strb	r2, [r3, #16]
 476:Middlewares/ST/STM32_USB_Device_Library/Core/Src/usbd_core.c ****   return USBD_OK;
 1126              		.loc 1 476 0
 1127 0012 0023     		movs	r3, #0
 477:Middlewares/ST/STM32_USB_Device_Library/Core/Src/usbd_core.c **** }
 1128              		.loc 1 477 0
 1129 0014 1846     		mov	r0, r3
 1130 0016 0C37     		adds	r7, r7, #12
 1131              	.LCFI65:
 1132              		.cfi_def_cfa_offset 4
 1133 0018 BD46     		mov	sp, r7
ARM GAS  /tmp/ccYcsBME.s 			page 29


 1134              	.LCFI66:
 1135              		.cfi_def_cfa_register 13
 1136              		@ sp needed
 1137 001a 5DF8047B 		ldr	r7, [sp], #4
 1138              	.LCFI67:
 1139              		.cfi_restore 7
 1140              		.cfi_def_cfa_offset 0
 1141 001e 7047     		bx	lr
 1142              		.cfi_endproc
 1143              	.LFE145:
 1145              		.section	.text.USBD_LL_Suspend,"ax",%progbits
 1146              		.align	1
 1147              		.global	USBD_LL_Suspend
 1148              		.syntax unified
 1149              		.thumb
 1150              		.thumb_func
 1151              		.fpu fpv4-sp-d16
 1153              	USBD_LL_Suspend:
 1154              	.LFB146:
 478:Middlewares/ST/STM32_USB_Device_Library/Core/Src/usbd_core.c **** 
 479:Middlewares/ST/STM32_USB_Device_Library/Core/Src/usbd_core.c **** /**
 480:Middlewares/ST/STM32_USB_Device_Library/Core/Src/usbd_core.c **** * @brief  USBD_Suspend
 481:Middlewares/ST/STM32_USB_Device_Library/Core/Src/usbd_core.c **** *         Handle Suspend event
 482:Middlewares/ST/STM32_USB_Device_Library/Core/Src/usbd_core.c **** * @param  pdev: device instance
 483:Middlewares/ST/STM32_USB_Device_Library/Core/Src/usbd_core.c **** * @retval status
 484:Middlewares/ST/STM32_USB_Device_Library/Core/Src/usbd_core.c **** */
 485:Middlewares/ST/STM32_USB_Device_Library/Core/Src/usbd_core.c **** 
 486:Middlewares/ST/STM32_USB_Device_Library/Core/Src/usbd_core.c **** USBD_StatusTypeDef USBD_LL_Suspend(USBD_HandleTypeDef  *pdev)
 487:Middlewares/ST/STM32_USB_Device_Library/Core/Src/usbd_core.c **** {
 1155              		.loc 1 487 0
 1156              		.cfi_startproc
 1157              		@ args = 0, pretend = 0, frame = 8
 1158              		@ frame_needed = 1, uses_anonymous_args = 0
 1159              		@ link register save eliminated.
 1160 0000 80B4     		push	{r7}
 1161              	.LCFI68:
 1162              		.cfi_def_cfa_offset 4
 1163              		.cfi_offset 7, -4
 1164 0002 83B0     		sub	sp, sp, #12
 1165              	.LCFI69:
 1166              		.cfi_def_cfa_offset 16
 1167 0004 00AF     		add	r7, sp, #0
 1168              	.LCFI70:
 1169              		.cfi_def_cfa_register 7
 1170 0006 7860     		str	r0, [r7, #4]
 488:Middlewares/ST/STM32_USB_Device_Library/Core/Src/usbd_core.c ****   pdev->dev_old_state =  pdev->dev_state;
 1171              		.loc 1 488 0
 1172 0008 7B68     		ldr	r3, [r7, #4]
 1173 000a 93F87422 		ldrb	r2, [r3, #628]	@ zero_extendqisi2
 1174 000e 7B68     		ldr	r3, [r7, #4]
 1175 0010 83F87522 		strb	r2, [r3, #629]
 489:Middlewares/ST/STM32_USB_Device_Library/Core/Src/usbd_core.c ****   pdev->dev_state  = USBD_STATE_SUSPENDED;
 1176              		.loc 1 489 0
 1177 0014 7B68     		ldr	r3, [r7, #4]
 1178 0016 0422     		movs	r2, #4
 1179 0018 83F87422 		strb	r2, [r3, #628]
 490:Middlewares/ST/STM32_USB_Device_Library/Core/Src/usbd_core.c ****   return USBD_OK;
ARM GAS  /tmp/ccYcsBME.s 			page 30


 1180              		.loc 1 490 0
 1181 001c 0023     		movs	r3, #0
 491:Middlewares/ST/STM32_USB_Device_Library/Core/Src/usbd_core.c **** }
 1182              		.loc 1 491 0
 1183 001e 1846     		mov	r0, r3
 1184 0020 0C37     		adds	r7, r7, #12
 1185              	.LCFI71:
 1186              		.cfi_def_cfa_offset 4
 1187 0022 BD46     		mov	sp, r7
 1188              	.LCFI72:
 1189              		.cfi_def_cfa_register 13
 1190              		@ sp needed
 1191 0024 5DF8047B 		ldr	r7, [sp], #4
 1192              	.LCFI73:
 1193              		.cfi_restore 7
 1194              		.cfi_def_cfa_offset 0
 1195 0028 7047     		bx	lr
 1196              		.cfi_endproc
 1197              	.LFE146:
 1199              		.section	.text.USBD_LL_Resume,"ax",%progbits
 1200              		.align	1
 1201              		.global	USBD_LL_Resume
 1202              		.syntax unified
 1203              		.thumb
 1204              		.thumb_func
 1205              		.fpu fpv4-sp-d16
 1207              	USBD_LL_Resume:
 1208              	.LFB147:
 492:Middlewares/ST/STM32_USB_Device_Library/Core/Src/usbd_core.c **** 
 493:Middlewares/ST/STM32_USB_Device_Library/Core/Src/usbd_core.c **** /**
 494:Middlewares/ST/STM32_USB_Device_Library/Core/Src/usbd_core.c **** * @brief  USBD_Resume
 495:Middlewares/ST/STM32_USB_Device_Library/Core/Src/usbd_core.c **** *         Handle Resume event
 496:Middlewares/ST/STM32_USB_Device_Library/Core/Src/usbd_core.c **** * @param  pdev: device instance
 497:Middlewares/ST/STM32_USB_Device_Library/Core/Src/usbd_core.c **** * @retval status
 498:Middlewares/ST/STM32_USB_Device_Library/Core/Src/usbd_core.c **** */
 499:Middlewares/ST/STM32_USB_Device_Library/Core/Src/usbd_core.c **** 
 500:Middlewares/ST/STM32_USB_Device_Library/Core/Src/usbd_core.c **** USBD_StatusTypeDef USBD_LL_Resume(USBD_HandleTypeDef  *pdev)
 501:Middlewares/ST/STM32_USB_Device_Library/Core/Src/usbd_core.c **** {
 1209              		.loc 1 501 0
 1210              		.cfi_startproc
 1211              		@ args = 0, pretend = 0, frame = 8
 1212              		@ frame_needed = 1, uses_anonymous_args = 0
 1213              		@ link register save eliminated.
 1214 0000 80B4     		push	{r7}
 1215              	.LCFI74:
 1216              		.cfi_def_cfa_offset 4
 1217              		.cfi_offset 7, -4
 1218 0002 83B0     		sub	sp, sp, #12
 1219              	.LCFI75:
 1220              		.cfi_def_cfa_offset 16
 1221 0004 00AF     		add	r7, sp, #0
 1222              	.LCFI76:
 1223              		.cfi_def_cfa_register 7
 1224 0006 7860     		str	r0, [r7, #4]
 502:Middlewares/ST/STM32_USB_Device_Library/Core/Src/usbd_core.c ****   pdev->dev_state = pdev->dev_old_state;
 1225              		.loc 1 502 0
 1226 0008 7B68     		ldr	r3, [r7, #4]
ARM GAS  /tmp/ccYcsBME.s 			page 31


 1227 000a 93F87522 		ldrb	r2, [r3, #629]	@ zero_extendqisi2
 1228 000e 7B68     		ldr	r3, [r7, #4]
 1229 0010 83F87422 		strb	r2, [r3, #628]
 503:Middlewares/ST/STM32_USB_Device_Library/Core/Src/usbd_core.c ****   return USBD_OK;
 1230              		.loc 1 503 0
 1231 0014 0023     		movs	r3, #0
 504:Middlewares/ST/STM32_USB_Device_Library/Core/Src/usbd_core.c **** }
 1232              		.loc 1 504 0
 1233 0016 1846     		mov	r0, r3
 1234 0018 0C37     		adds	r7, r7, #12
 1235              	.LCFI77:
 1236              		.cfi_def_cfa_offset 4
 1237 001a BD46     		mov	sp, r7
 1238              	.LCFI78:
 1239              		.cfi_def_cfa_register 13
 1240              		@ sp needed
 1241 001c 5DF8047B 		ldr	r7, [sp], #4
 1242              	.LCFI79:
 1243              		.cfi_restore 7
 1244              		.cfi_def_cfa_offset 0
 1245 0020 7047     		bx	lr
 1246              		.cfi_endproc
 1247              	.LFE147:
 1249              		.section	.text.USBD_LL_SOF,"ax",%progbits
 1250              		.align	1
 1251              		.global	USBD_LL_SOF
 1252              		.syntax unified
 1253              		.thumb
 1254              		.thumb_func
 1255              		.fpu fpv4-sp-d16
 1257              	USBD_LL_SOF:
 1258              	.LFB148:
 505:Middlewares/ST/STM32_USB_Device_Library/Core/Src/usbd_core.c **** 
 506:Middlewares/ST/STM32_USB_Device_Library/Core/Src/usbd_core.c **** /**
 507:Middlewares/ST/STM32_USB_Device_Library/Core/Src/usbd_core.c **** * @brief  USBD_SOF
 508:Middlewares/ST/STM32_USB_Device_Library/Core/Src/usbd_core.c **** *         Handle SOF event
 509:Middlewares/ST/STM32_USB_Device_Library/Core/Src/usbd_core.c **** * @param  pdev: device instance
 510:Middlewares/ST/STM32_USB_Device_Library/Core/Src/usbd_core.c **** * @retval status
 511:Middlewares/ST/STM32_USB_Device_Library/Core/Src/usbd_core.c **** */
 512:Middlewares/ST/STM32_USB_Device_Library/Core/Src/usbd_core.c **** 
 513:Middlewares/ST/STM32_USB_Device_Library/Core/Src/usbd_core.c **** USBD_StatusTypeDef USBD_LL_SOF(USBD_HandleTypeDef  *pdev)
 514:Middlewares/ST/STM32_USB_Device_Library/Core/Src/usbd_core.c **** {
 1259              		.loc 1 514 0
 1260              		.cfi_startproc
 1261              		@ args = 0, pretend = 0, frame = 8
 1262              		@ frame_needed = 1, uses_anonymous_args = 0
 1263 0000 80B5     		push	{r7, lr}
 1264              	.LCFI80:
 1265              		.cfi_def_cfa_offset 8
 1266              		.cfi_offset 7, -8
 1267              		.cfi_offset 14, -4
 1268 0002 82B0     		sub	sp, sp, #8
 1269              	.LCFI81:
 1270              		.cfi_def_cfa_offset 16
 1271 0004 00AF     		add	r7, sp, #0
 1272              	.LCFI82:
 1273              		.cfi_def_cfa_register 7
ARM GAS  /tmp/ccYcsBME.s 			page 32


 1274 0006 7860     		str	r0, [r7, #4]
 515:Middlewares/ST/STM32_USB_Device_Library/Core/Src/usbd_core.c ****   if(pdev->dev_state == USBD_STATE_CONFIGURED)
 1275              		.loc 1 515 0
 1276 0008 7B68     		ldr	r3, [r7, #4]
 1277 000a 93F87432 		ldrb	r3, [r3, #628]	@ zero_extendqisi2
 1278 000e 032B     		cmp	r3, #3
 1279 0010 0BD1     		bne	.L66
 516:Middlewares/ST/STM32_USB_Device_Library/Core/Src/usbd_core.c ****   {
 517:Middlewares/ST/STM32_USB_Device_Library/Core/Src/usbd_core.c ****     if(pdev->pClass->SOF != NULL)
 1280              		.loc 1 517 0
 1281 0012 7B68     		ldr	r3, [r7, #4]
 1282 0014 D3F88C32 		ldr	r3, [r3, #652]
 1283 0018 DB69     		ldr	r3, [r3, #28]
 1284 001a 002B     		cmp	r3, #0
 1285 001c 05D0     		beq	.L66
 518:Middlewares/ST/STM32_USB_Device_Library/Core/Src/usbd_core.c ****     {
 519:Middlewares/ST/STM32_USB_Device_Library/Core/Src/usbd_core.c ****       pdev->pClass->SOF(pdev);
 1286              		.loc 1 519 0
 1287 001e 7B68     		ldr	r3, [r7, #4]
 1288 0020 D3F88C32 		ldr	r3, [r3, #652]
 1289 0024 DB69     		ldr	r3, [r3, #28]
 1290 0026 7868     		ldr	r0, [r7, #4]
 1291 0028 9847     		blx	r3
 1292              	.LVL9:
 1293              	.L66:
 520:Middlewares/ST/STM32_USB_Device_Library/Core/Src/usbd_core.c ****     }
 521:Middlewares/ST/STM32_USB_Device_Library/Core/Src/usbd_core.c ****   }
 522:Middlewares/ST/STM32_USB_Device_Library/Core/Src/usbd_core.c ****   return USBD_OK;
 1294              		.loc 1 522 0
 1295 002a 0023     		movs	r3, #0
 523:Middlewares/ST/STM32_USB_Device_Library/Core/Src/usbd_core.c **** }
 1296              		.loc 1 523 0
 1297 002c 1846     		mov	r0, r3
 1298 002e 0837     		adds	r7, r7, #8
 1299              	.LCFI83:
 1300              		.cfi_def_cfa_offset 8
 1301 0030 BD46     		mov	sp, r7
 1302              	.LCFI84:
 1303              		.cfi_def_cfa_register 13
 1304              		@ sp needed
 1305 0032 80BD     		pop	{r7, pc}
 1306              		.cfi_endproc
 1307              	.LFE148:
 1309              		.section	.text.USBD_LL_IsoINIncomplete,"ax",%progbits
 1310              		.align	1
 1311              		.global	USBD_LL_IsoINIncomplete
 1312              		.syntax unified
 1313              		.thumb
 1314              		.thumb_func
 1315              		.fpu fpv4-sp-d16
 1317              	USBD_LL_IsoINIncomplete:
 1318              	.LFB149:
 524:Middlewares/ST/STM32_USB_Device_Library/Core/Src/usbd_core.c **** 
 525:Middlewares/ST/STM32_USB_Device_Library/Core/Src/usbd_core.c **** /**
 526:Middlewares/ST/STM32_USB_Device_Library/Core/Src/usbd_core.c **** * @brief  USBD_IsoINIncomplete
 527:Middlewares/ST/STM32_USB_Device_Library/Core/Src/usbd_core.c **** *         Handle iso in incomplete event
 528:Middlewares/ST/STM32_USB_Device_Library/Core/Src/usbd_core.c **** * @param  pdev: device instance
ARM GAS  /tmp/ccYcsBME.s 			page 33


 529:Middlewares/ST/STM32_USB_Device_Library/Core/Src/usbd_core.c **** * @retval status
 530:Middlewares/ST/STM32_USB_Device_Library/Core/Src/usbd_core.c **** */
 531:Middlewares/ST/STM32_USB_Device_Library/Core/Src/usbd_core.c **** USBD_StatusTypeDef USBD_LL_IsoINIncomplete(USBD_HandleTypeDef  *pdev, uint8_t epnum)
 532:Middlewares/ST/STM32_USB_Device_Library/Core/Src/usbd_core.c **** {
 1319              		.loc 1 532 0
 1320              		.cfi_startproc
 1321              		@ args = 0, pretend = 0, frame = 8
 1322              		@ frame_needed = 1, uses_anonymous_args = 0
 1323              		@ link register save eliminated.
 1324 0000 80B4     		push	{r7}
 1325              	.LCFI85:
 1326              		.cfi_def_cfa_offset 4
 1327              		.cfi_offset 7, -4
 1328 0002 83B0     		sub	sp, sp, #12
 1329              	.LCFI86:
 1330              		.cfi_def_cfa_offset 16
 1331 0004 00AF     		add	r7, sp, #0
 1332              	.LCFI87:
 1333              		.cfi_def_cfa_register 7
 1334 0006 7860     		str	r0, [r7, #4]
 1335 0008 0B46     		mov	r3, r1
 1336 000a FB70     		strb	r3, [r7, #3]
 533:Middlewares/ST/STM32_USB_Device_Library/Core/Src/usbd_core.c ****   /* Prevent unused arguments compilation warning */
 534:Middlewares/ST/STM32_USB_Device_Library/Core/Src/usbd_core.c ****   UNUSED(pdev);
 535:Middlewares/ST/STM32_USB_Device_Library/Core/Src/usbd_core.c ****   UNUSED(epnum);
 536:Middlewares/ST/STM32_USB_Device_Library/Core/Src/usbd_core.c **** 
 537:Middlewares/ST/STM32_USB_Device_Library/Core/Src/usbd_core.c ****   return USBD_OK;
 1337              		.loc 1 537 0
 1338 000c 0023     		movs	r3, #0
 538:Middlewares/ST/STM32_USB_Device_Library/Core/Src/usbd_core.c **** }
 1339              		.loc 1 538 0
 1340 000e 1846     		mov	r0, r3
 1341 0010 0C37     		adds	r7, r7, #12
 1342              	.LCFI88:
 1343              		.cfi_def_cfa_offset 4
 1344 0012 BD46     		mov	sp, r7
 1345              	.LCFI89:
 1346              		.cfi_def_cfa_register 13
 1347              		@ sp needed
 1348 0014 5DF8047B 		ldr	r7, [sp], #4
 1349              	.LCFI90:
 1350              		.cfi_restore 7
 1351              		.cfi_def_cfa_offset 0
 1352 0018 7047     		bx	lr
 1353              		.cfi_endproc
 1354              	.LFE149:
 1356              		.section	.text.USBD_LL_IsoOUTIncomplete,"ax",%progbits
 1357              		.align	1
 1358              		.global	USBD_LL_IsoOUTIncomplete
 1359              		.syntax unified
 1360              		.thumb
 1361              		.thumb_func
 1362              		.fpu fpv4-sp-d16
 1364              	USBD_LL_IsoOUTIncomplete:
 1365              	.LFB150:
 539:Middlewares/ST/STM32_USB_Device_Library/Core/Src/usbd_core.c **** 
 540:Middlewares/ST/STM32_USB_Device_Library/Core/Src/usbd_core.c **** /**
ARM GAS  /tmp/ccYcsBME.s 			page 34


 541:Middlewares/ST/STM32_USB_Device_Library/Core/Src/usbd_core.c **** * @brief  USBD_IsoOUTIncomplete
 542:Middlewares/ST/STM32_USB_Device_Library/Core/Src/usbd_core.c **** *         Handle iso out incomplete event
 543:Middlewares/ST/STM32_USB_Device_Library/Core/Src/usbd_core.c **** * @param  pdev: device instance
 544:Middlewares/ST/STM32_USB_Device_Library/Core/Src/usbd_core.c **** * @retval status
 545:Middlewares/ST/STM32_USB_Device_Library/Core/Src/usbd_core.c **** */
 546:Middlewares/ST/STM32_USB_Device_Library/Core/Src/usbd_core.c **** USBD_StatusTypeDef USBD_LL_IsoOUTIncomplete(USBD_HandleTypeDef  *pdev, uint8_t epnum)
 547:Middlewares/ST/STM32_USB_Device_Library/Core/Src/usbd_core.c **** {
 1366              		.loc 1 547 0
 1367              		.cfi_startproc
 1368              		@ args = 0, pretend = 0, frame = 8
 1369              		@ frame_needed = 1, uses_anonymous_args = 0
 1370              		@ link register save eliminated.
 1371 0000 80B4     		push	{r7}
 1372              	.LCFI91:
 1373              		.cfi_def_cfa_offset 4
 1374              		.cfi_offset 7, -4
 1375 0002 83B0     		sub	sp, sp, #12
 1376              	.LCFI92:
 1377              		.cfi_def_cfa_offset 16
 1378 0004 00AF     		add	r7, sp, #0
 1379              	.LCFI93:
 1380              		.cfi_def_cfa_register 7
 1381 0006 7860     		str	r0, [r7, #4]
 1382 0008 0B46     		mov	r3, r1
 1383 000a FB70     		strb	r3, [r7, #3]
 548:Middlewares/ST/STM32_USB_Device_Library/Core/Src/usbd_core.c ****   /* Prevent unused arguments compilation warning */
 549:Middlewares/ST/STM32_USB_Device_Library/Core/Src/usbd_core.c ****   UNUSED(pdev);
 550:Middlewares/ST/STM32_USB_Device_Library/Core/Src/usbd_core.c ****   UNUSED(epnum);
 551:Middlewares/ST/STM32_USB_Device_Library/Core/Src/usbd_core.c **** 
 552:Middlewares/ST/STM32_USB_Device_Library/Core/Src/usbd_core.c ****   return USBD_OK;
 1384              		.loc 1 552 0
 1385 000c 0023     		movs	r3, #0
 553:Middlewares/ST/STM32_USB_Device_Library/Core/Src/usbd_core.c **** }
 1386              		.loc 1 553 0
 1387 000e 1846     		mov	r0, r3
 1388 0010 0C37     		adds	r7, r7, #12
 1389              	.LCFI94:
 1390              		.cfi_def_cfa_offset 4
 1391 0012 BD46     		mov	sp, r7
 1392              	.LCFI95:
 1393              		.cfi_def_cfa_register 13
 1394              		@ sp needed
 1395 0014 5DF8047B 		ldr	r7, [sp], #4
 1396              	.LCFI96:
 1397              		.cfi_restore 7
 1398              		.cfi_def_cfa_offset 0
 1399 0018 7047     		bx	lr
 1400              		.cfi_endproc
 1401              	.LFE150:
 1403              		.section	.text.USBD_LL_DevConnected,"ax",%progbits
 1404              		.align	1
 1405              		.global	USBD_LL_DevConnected
 1406              		.syntax unified
 1407              		.thumb
 1408              		.thumb_func
 1409              		.fpu fpv4-sp-d16
 1411              	USBD_LL_DevConnected:
ARM GAS  /tmp/ccYcsBME.s 			page 35


 1412              	.LFB151:
 554:Middlewares/ST/STM32_USB_Device_Library/Core/Src/usbd_core.c **** 
 555:Middlewares/ST/STM32_USB_Device_Library/Core/Src/usbd_core.c **** /**
 556:Middlewares/ST/STM32_USB_Device_Library/Core/Src/usbd_core.c **** * @brief  USBD_DevConnected
 557:Middlewares/ST/STM32_USB_Device_Library/Core/Src/usbd_core.c **** *         Handle device connection event
 558:Middlewares/ST/STM32_USB_Device_Library/Core/Src/usbd_core.c **** * @param  pdev: device instance
 559:Middlewares/ST/STM32_USB_Device_Library/Core/Src/usbd_core.c **** * @retval status
 560:Middlewares/ST/STM32_USB_Device_Library/Core/Src/usbd_core.c **** */
 561:Middlewares/ST/STM32_USB_Device_Library/Core/Src/usbd_core.c **** USBD_StatusTypeDef USBD_LL_DevConnected(USBD_HandleTypeDef  *pdev)
 562:Middlewares/ST/STM32_USB_Device_Library/Core/Src/usbd_core.c **** {
 1413              		.loc 1 562 0
 1414              		.cfi_startproc
 1415              		@ args = 0, pretend = 0, frame = 8
 1416              		@ frame_needed = 1, uses_anonymous_args = 0
 1417              		@ link register save eliminated.
 1418 0000 80B4     		push	{r7}
 1419              	.LCFI97:
 1420              		.cfi_def_cfa_offset 4
 1421              		.cfi_offset 7, -4
 1422 0002 83B0     		sub	sp, sp, #12
 1423              	.LCFI98:
 1424              		.cfi_def_cfa_offset 16
 1425 0004 00AF     		add	r7, sp, #0
 1426              	.LCFI99:
 1427              		.cfi_def_cfa_register 7
 1428 0006 7860     		str	r0, [r7, #4]
 563:Middlewares/ST/STM32_USB_Device_Library/Core/Src/usbd_core.c ****   /* Prevent unused argument compilation warning */
 564:Middlewares/ST/STM32_USB_Device_Library/Core/Src/usbd_core.c ****   UNUSED(pdev);
 565:Middlewares/ST/STM32_USB_Device_Library/Core/Src/usbd_core.c **** 
 566:Middlewares/ST/STM32_USB_Device_Library/Core/Src/usbd_core.c ****   return USBD_OK;
 1429              		.loc 1 566 0
 1430 0008 0023     		movs	r3, #0
 567:Middlewares/ST/STM32_USB_Device_Library/Core/Src/usbd_core.c **** }
 1431              		.loc 1 567 0
 1432 000a 1846     		mov	r0, r3
 1433 000c 0C37     		adds	r7, r7, #12
 1434              	.LCFI100:
 1435              		.cfi_def_cfa_offset 4
 1436 000e BD46     		mov	sp, r7
 1437              	.LCFI101:
 1438              		.cfi_def_cfa_register 13
 1439              		@ sp needed
 1440 0010 5DF8047B 		ldr	r7, [sp], #4
 1441              	.LCFI102:
 1442              		.cfi_restore 7
 1443              		.cfi_def_cfa_offset 0
 1444 0014 7047     		bx	lr
 1445              		.cfi_endproc
 1446              	.LFE151:
 1448              		.section	.text.USBD_LL_DevDisconnected,"ax",%progbits
 1449              		.align	1
 1450              		.global	USBD_LL_DevDisconnected
 1451              		.syntax unified
 1452              		.thumb
 1453              		.thumb_func
 1454              		.fpu fpv4-sp-d16
 1456              	USBD_LL_DevDisconnected:
ARM GAS  /tmp/ccYcsBME.s 			page 36


 1457              	.LFB152:
 568:Middlewares/ST/STM32_USB_Device_Library/Core/Src/usbd_core.c **** 
 569:Middlewares/ST/STM32_USB_Device_Library/Core/Src/usbd_core.c **** /**
 570:Middlewares/ST/STM32_USB_Device_Library/Core/Src/usbd_core.c **** * @brief  USBD_DevDisconnected
 571:Middlewares/ST/STM32_USB_Device_Library/Core/Src/usbd_core.c **** *         Handle device disconnection event
 572:Middlewares/ST/STM32_USB_Device_Library/Core/Src/usbd_core.c **** * @param  pdev: device instance
 573:Middlewares/ST/STM32_USB_Device_Library/Core/Src/usbd_core.c **** * @retval status
 574:Middlewares/ST/STM32_USB_Device_Library/Core/Src/usbd_core.c **** */
 575:Middlewares/ST/STM32_USB_Device_Library/Core/Src/usbd_core.c **** USBD_StatusTypeDef USBD_LL_DevDisconnected(USBD_HandleTypeDef  *pdev)
 576:Middlewares/ST/STM32_USB_Device_Library/Core/Src/usbd_core.c **** {
 1458              		.loc 1 576 0
 1459              		.cfi_startproc
 1460              		@ args = 0, pretend = 0, frame = 8
 1461              		@ frame_needed = 1, uses_anonymous_args = 0
 1462 0000 80B5     		push	{r7, lr}
 1463              	.LCFI103:
 1464              		.cfi_def_cfa_offset 8
 1465              		.cfi_offset 7, -8
 1466              		.cfi_offset 14, -4
 1467 0002 82B0     		sub	sp, sp, #8
 1468              	.LCFI104:
 1469              		.cfi_def_cfa_offset 16
 1470 0004 00AF     		add	r7, sp, #0
 1471              	.LCFI105:
 1472              		.cfi_def_cfa_register 7
 1473 0006 7860     		str	r0, [r7, #4]
 577:Middlewares/ST/STM32_USB_Device_Library/Core/Src/usbd_core.c ****   /* Free Class Resources */
 578:Middlewares/ST/STM32_USB_Device_Library/Core/Src/usbd_core.c ****   pdev->dev_state = USBD_STATE_DEFAULT;
 1474              		.loc 1 578 0
 1475 0008 7B68     		ldr	r3, [r7, #4]
 1476 000a 0122     		movs	r2, #1
 1477 000c 83F87422 		strb	r2, [r3, #628]
 579:Middlewares/ST/STM32_USB_Device_Library/Core/Src/usbd_core.c ****   pdev->pClass->DeInit(pdev, (uint8_t)pdev->dev_config);
 1478              		.loc 1 579 0
 1479 0010 7B68     		ldr	r3, [r7, #4]
 1480 0012 D3F88C32 		ldr	r3, [r3, #652]
 1481 0016 5B68     		ldr	r3, [r3, #4]
 1482 0018 7A68     		ldr	r2, [r7, #4]
 1483 001a 5268     		ldr	r2, [r2, #4]
 1484 001c D2B2     		uxtb	r2, r2
 1485 001e 1146     		mov	r1, r2
 1486 0020 7868     		ldr	r0, [r7, #4]
 1487 0022 9847     		blx	r3
 1488              	.LVL10:
 580:Middlewares/ST/STM32_USB_Device_Library/Core/Src/usbd_core.c **** 
 581:Middlewares/ST/STM32_USB_Device_Library/Core/Src/usbd_core.c ****   return USBD_OK;
 1489              		.loc 1 581 0
 1490 0024 0023     		movs	r3, #0
 582:Middlewares/ST/STM32_USB_Device_Library/Core/Src/usbd_core.c **** }
 1491              		.loc 1 582 0
 1492 0026 1846     		mov	r0, r3
 1493 0028 0837     		adds	r7, r7, #8
 1494              	.LCFI106:
 1495              		.cfi_def_cfa_offset 8
 1496 002a BD46     		mov	sp, r7
 1497              	.LCFI107:
 1498              		.cfi_def_cfa_register 13
ARM GAS  /tmp/ccYcsBME.s 			page 37


 1499              		@ sp needed
 1500 002c 80BD     		pop	{r7, pc}
 1501              		.cfi_endproc
 1502              	.LFE152:
 1504              		.text
 1505              	.Letext0:
 1506              		.file 2 "/usr/arm-none-eabi/include/machine/_default_types.h"
 1507              		.file 3 "/usr/arm-none-eabi/include/sys/lock.h"
 1508              		.file 4 "/usr/arm-none-eabi/include/sys/_types.h"
 1509              		.file 5 "/usr/lib/gcc/arm-none-eabi/7.3.1/include/stddef.h"
 1510              		.file 6 "/usr/arm-none-eabi/include/sys/reent.h"
 1511              		.file 7 "/usr/arm-none-eabi/include/sys/_stdint.h"
 1512              		.file 8 "/usr/arm-none-eabi/include/stdlib.h"
 1513              		.file 9 "Drivers/CMSIS/Include/core_cm4.h"
 1514              		.file 10 "Drivers/CMSIS/Device/ST/STM32F4xx/Include/system_stm32f4xx.h"
 1515              		.file 11 "Drivers/STM32F4xx_HAL_Driver/Inc/stm32f4xx_hal.h"
 1516              		.file 12 "la/sampling.h"
 1517              		.file 13 "Middlewares/ST/STM32_USB_Device_Library/Core/Inc/usbd_def.h"
ARM GAS  /tmp/ccYcsBME.s 			page 38


DEFINED SYMBOLS
                            *ABS*:0000000000000000 usbd_core.c
                            *COM*:0000000000000004 triggerMask
                            *COM*:0000000000000004 triggerValue
                            *COM*:0000000000000002 flags
                            *COM*:0000000000000002 period
                            *COM*:0000000000000004 transferSize
     /tmp/ccYcsBME.s:23     .text.USBD_Init:0000000000000000 $t
     /tmp/ccYcsBME.s:30     .text.USBD_Init:0000000000000000 USBD_Init
     /tmp/ccYcsBME.s:107    .text.USBD_DeInit:0000000000000000 $t
     /tmp/ccYcsBME.s:114    .text.USBD_DeInit:0000000000000000 USBD_DeInit
     /tmp/ccYcsBME.s:169    .text.USBD_RegisterClass:0000000000000000 $t
     /tmp/ccYcsBME.s:176    .text.USBD_RegisterClass:0000000000000000 USBD_RegisterClass
     /tmp/ccYcsBME.s:235    .text.USBD_Start:0000000000000000 $t
     /tmp/ccYcsBME.s:242    .text.USBD_Start:0000000000000000 USBD_Start
     /tmp/ccYcsBME.s:279    .text.USBD_Stop:0000000000000000 $t
     /tmp/ccYcsBME.s:286    .text.USBD_Stop:0000000000000000 USBD_Stop
     /tmp/ccYcsBME.s:334    .text.USBD_RunTestMode:0000000000000000 $t
     /tmp/ccYcsBME.s:341    .text.USBD_RunTestMode:0000000000000000 USBD_RunTestMode
     /tmp/ccYcsBME.s:379    .text.USBD_SetClassConfig:0000000000000000 $t
     /tmp/ccYcsBME.s:386    .text.USBD_SetClassConfig:0000000000000000 USBD_SetClassConfig
     /tmp/ccYcsBME.s:446    .text.USBD_ClrClassConfig:0000000000000000 $t
     /tmp/ccYcsBME.s:453    .text.USBD_ClrClassConfig:0000000000000000 USBD_ClrClassConfig
     /tmp/ccYcsBME.s:498    .text.USBD_LL_SetupStage:0000000000000000 $t
     /tmp/ccYcsBME.s:505    .text.USBD_LL_SetupStage:0000000000000000 USBD_LL_SetupStage
     /tmp/ccYcsBME.s:606    .text.USBD_LL_DataOutStage:0000000000000000 $t
     /tmp/ccYcsBME.s:613    .text.USBD_LL_DataOutStage:0000000000000000 USBD_LL_DataOutStage
     /tmp/ccYcsBME.s:774    .text.USBD_LL_DataInStage:0000000000000000 $t
     /tmp/ccYcsBME.s:781    .text.USBD_LL_DataInStage:0000000000000000 USBD_LL_DataInStage
     /tmp/ccYcsBME.s:993    .text.USBD_LL_Reset:0000000000000000 $t
     /tmp/ccYcsBME.s:1000   .text.USBD_LL_Reset:0000000000000000 USBD_LL_Reset
     /tmp/ccYcsBME.s:1095   .text.USBD_LL_SetSpeed:0000000000000000 $t
     /tmp/ccYcsBME.s:1102   .text.USBD_LL_SetSpeed:0000000000000000 USBD_LL_SetSpeed
     /tmp/ccYcsBME.s:1146   .text.USBD_LL_Suspend:0000000000000000 $t
     /tmp/ccYcsBME.s:1153   .text.USBD_LL_Suspend:0000000000000000 USBD_LL_Suspend
     /tmp/ccYcsBME.s:1200   .text.USBD_LL_Resume:0000000000000000 $t
     /tmp/ccYcsBME.s:1207   .text.USBD_LL_Resume:0000000000000000 USBD_LL_Resume
     /tmp/ccYcsBME.s:1250   .text.USBD_LL_SOF:0000000000000000 $t
     /tmp/ccYcsBME.s:1257   .text.USBD_LL_SOF:0000000000000000 USBD_LL_SOF
     /tmp/ccYcsBME.s:1310   .text.USBD_LL_IsoINIncomplete:0000000000000000 $t
     /tmp/ccYcsBME.s:1317   .text.USBD_LL_IsoINIncomplete:0000000000000000 USBD_LL_IsoINIncomplete
     /tmp/ccYcsBME.s:1357   .text.USBD_LL_IsoOUTIncomplete:0000000000000000 $t
     /tmp/ccYcsBME.s:1364   .text.USBD_LL_IsoOUTIncomplete:0000000000000000 USBD_LL_IsoOUTIncomplete
     /tmp/ccYcsBME.s:1404   .text.USBD_LL_DevConnected:0000000000000000 $t
     /tmp/ccYcsBME.s:1411   .text.USBD_LL_DevConnected:0000000000000000 USBD_LL_DevConnected
     /tmp/ccYcsBME.s:1449   .text.USBD_LL_DevDisconnected:0000000000000000 $t
     /tmp/ccYcsBME.s:1456   .text.USBD_LL_DevDisconnected:0000000000000000 USBD_LL_DevDisconnected

UNDEFINED SYMBOLS
USBD_LL_Init
USBD_LL_Stop
USBD_LL_DeInit
USBD_LL_Start
USBD_ParseSetupRequest
USBD_StdDevReq
USBD_StdItfReq
USBD_StdEPReq
ARM GAS  /tmp/ccYcsBME.s 			page 39


USBD_LL_StallEP
USBD_CtlContinueRx
USBD_CtlSendStatus
USBD_CtlContinueSendData
USBD_LL_PrepareReceive
USBD_CtlReceiveStatus
USBD_LL_OpenEP
