ARM GAS  /tmp/cc9MbIlP.s 			page 1


   1              		.cpu cortex-m4
   2              		.eabi_attribute 27, 1
   3              		.eabi_attribute 28, 1
   4              		.eabi_attribute 20, 1
   5              		.eabi_attribute 21, 1
   6              		.eabi_attribute 23, 3
   7              		.eabi_attribute 24, 1
   8              		.eabi_attribute 25, 1
   9              		.eabi_attribute 26, 1
  10              		.eabi_attribute 30, 1
  11              		.eabi_attribute 34, 1
  12              		.eabi_attribute 18, 4
  13              		.file	"usbd_core.c"
  14              		.text
  15              	.Ltext0:
  16              		.cfi_sections	.debug_frame
  17              		.section	.text.USBD_Init,"ax",%progbits
  18              		.align	1
  19              		.global	USBD_Init
  20              		.syntax unified
  21              		.thumb
  22              		.thumb_func
  23              		.fpu fpv4-sp-d16
  25              	USBD_Init:
  26              	.LFB133:
  27              		.file 1 "Middlewares/ST/STM32_USB_Device_Library/Core/Src/usbd_core.c"
   1:Middlewares/ST/STM32_USB_Device_Library/Core/Src/usbd_core.c **** /**
   2:Middlewares/ST/STM32_USB_Device_Library/Core/Src/usbd_core.c ****   ******************************************************************************
   3:Middlewares/ST/STM32_USB_Device_Library/Core/Src/usbd_core.c ****   * @file    usbd_core.c
   4:Middlewares/ST/STM32_USB_Device_Library/Core/Src/usbd_core.c ****   * @author  MCD Application Team
   5:Middlewares/ST/STM32_USB_Device_Library/Core/Src/usbd_core.c ****   * @brief   This file provides all the USBD core functions.
   6:Middlewares/ST/STM32_USB_Device_Library/Core/Src/usbd_core.c ****   ******************************************************************************
   7:Middlewares/ST/STM32_USB_Device_Library/Core/Src/usbd_core.c ****   * @attention
   8:Middlewares/ST/STM32_USB_Device_Library/Core/Src/usbd_core.c ****   *
   9:Middlewares/ST/STM32_USB_Device_Library/Core/Src/usbd_core.c ****   * <h2><center>&copy; Copyright (c) 2015 STMicroelectronics.
  10:Middlewares/ST/STM32_USB_Device_Library/Core/Src/usbd_core.c ****   * All rights reserved.</center></h2>
  11:Middlewares/ST/STM32_USB_Device_Library/Core/Src/usbd_core.c ****   *
  12:Middlewares/ST/STM32_USB_Device_Library/Core/Src/usbd_core.c ****   * This software component is licensed by ST under Ultimate Liberty license
  13:Middlewares/ST/STM32_USB_Device_Library/Core/Src/usbd_core.c ****   * SLA0044, the "License"; You may not use this file except in compliance with
  14:Middlewares/ST/STM32_USB_Device_Library/Core/Src/usbd_core.c ****   * the License. You may obtain a copy of the License at:
  15:Middlewares/ST/STM32_USB_Device_Library/Core/Src/usbd_core.c ****   *                      http://www.st.com/SLA0044
  16:Middlewares/ST/STM32_USB_Device_Library/Core/Src/usbd_core.c ****   *
  17:Middlewares/ST/STM32_USB_Device_Library/Core/Src/usbd_core.c ****   ******************************************************************************
  18:Middlewares/ST/STM32_USB_Device_Library/Core/Src/usbd_core.c ****   */
  19:Middlewares/ST/STM32_USB_Device_Library/Core/Src/usbd_core.c **** 
  20:Middlewares/ST/STM32_USB_Device_Library/Core/Src/usbd_core.c **** /* Includes ------------------------------------------------------------------*/
  21:Middlewares/ST/STM32_USB_Device_Library/Core/Src/usbd_core.c **** #include "usbd_core.h"
  22:Middlewares/ST/STM32_USB_Device_Library/Core/Src/usbd_core.c **** 
  23:Middlewares/ST/STM32_USB_Device_Library/Core/Src/usbd_core.c **** /** @addtogroup STM32_USBD_DEVICE_LIBRARY
  24:Middlewares/ST/STM32_USB_Device_Library/Core/Src/usbd_core.c **** * @{
  25:Middlewares/ST/STM32_USB_Device_Library/Core/Src/usbd_core.c **** */
  26:Middlewares/ST/STM32_USB_Device_Library/Core/Src/usbd_core.c **** 
  27:Middlewares/ST/STM32_USB_Device_Library/Core/Src/usbd_core.c **** 
  28:Middlewares/ST/STM32_USB_Device_Library/Core/Src/usbd_core.c **** /** @defgroup USBD_CORE
  29:Middlewares/ST/STM32_USB_Device_Library/Core/Src/usbd_core.c **** * @brief usbd core module
  30:Middlewares/ST/STM32_USB_Device_Library/Core/Src/usbd_core.c **** * @{
  31:Middlewares/ST/STM32_USB_Device_Library/Core/Src/usbd_core.c **** */
ARM GAS  /tmp/cc9MbIlP.s 			page 2


  32:Middlewares/ST/STM32_USB_Device_Library/Core/Src/usbd_core.c **** 
  33:Middlewares/ST/STM32_USB_Device_Library/Core/Src/usbd_core.c **** /** @defgroup USBD_CORE_Private_TypesDefinitions
  34:Middlewares/ST/STM32_USB_Device_Library/Core/Src/usbd_core.c **** * @{
  35:Middlewares/ST/STM32_USB_Device_Library/Core/Src/usbd_core.c **** */
  36:Middlewares/ST/STM32_USB_Device_Library/Core/Src/usbd_core.c **** /**
  37:Middlewares/ST/STM32_USB_Device_Library/Core/Src/usbd_core.c **** * @}
  38:Middlewares/ST/STM32_USB_Device_Library/Core/Src/usbd_core.c **** */
  39:Middlewares/ST/STM32_USB_Device_Library/Core/Src/usbd_core.c **** 
  40:Middlewares/ST/STM32_USB_Device_Library/Core/Src/usbd_core.c **** 
  41:Middlewares/ST/STM32_USB_Device_Library/Core/Src/usbd_core.c **** /** @defgroup USBD_CORE_Private_Defines
  42:Middlewares/ST/STM32_USB_Device_Library/Core/Src/usbd_core.c **** * @{
  43:Middlewares/ST/STM32_USB_Device_Library/Core/Src/usbd_core.c **** */
  44:Middlewares/ST/STM32_USB_Device_Library/Core/Src/usbd_core.c **** 
  45:Middlewares/ST/STM32_USB_Device_Library/Core/Src/usbd_core.c **** /**
  46:Middlewares/ST/STM32_USB_Device_Library/Core/Src/usbd_core.c **** * @}
  47:Middlewares/ST/STM32_USB_Device_Library/Core/Src/usbd_core.c **** */
  48:Middlewares/ST/STM32_USB_Device_Library/Core/Src/usbd_core.c **** 
  49:Middlewares/ST/STM32_USB_Device_Library/Core/Src/usbd_core.c **** 
  50:Middlewares/ST/STM32_USB_Device_Library/Core/Src/usbd_core.c **** /** @defgroup USBD_CORE_Private_Macros
  51:Middlewares/ST/STM32_USB_Device_Library/Core/Src/usbd_core.c **** * @{
  52:Middlewares/ST/STM32_USB_Device_Library/Core/Src/usbd_core.c **** */
  53:Middlewares/ST/STM32_USB_Device_Library/Core/Src/usbd_core.c **** /**
  54:Middlewares/ST/STM32_USB_Device_Library/Core/Src/usbd_core.c **** * @}
  55:Middlewares/ST/STM32_USB_Device_Library/Core/Src/usbd_core.c **** */
  56:Middlewares/ST/STM32_USB_Device_Library/Core/Src/usbd_core.c **** 
  57:Middlewares/ST/STM32_USB_Device_Library/Core/Src/usbd_core.c **** 
  58:Middlewares/ST/STM32_USB_Device_Library/Core/Src/usbd_core.c **** 
  59:Middlewares/ST/STM32_USB_Device_Library/Core/Src/usbd_core.c **** 
  60:Middlewares/ST/STM32_USB_Device_Library/Core/Src/usbd_core.c **** /** @defgroup USBD_CORE_Private_FunctionPrototypes
  61:Middlewares/ST/STM32_USB_Device_Library/Core/Src/usbd_core.c **** * @{
  62:Middlewares/ST/STM32_USB_Device_Library/Core/Src/usbd_core.c **** */
  63:Middlewares/ST/STM32_USB_Device_Library/Core/Src/usbd_core.c **** 
  64:Middlewares/ST/STM32_USB_Device_Library/Core/Src/usbd_core.c **** /**
  65:Middlewares/ST/STM32_USB_Device_Library/Core/Src/usbd_core.c **** * @}
  66:Middlewares/ST/STM32_USB_Device_Library/Core/Src/usbd_core.c **** */
  67:Middlewares/ST/STM32_USB_Device_Library/Core/Src/usbd_core.c **** 
  68:Middlewares/ST/STM32_USB_Device_Library/Core/Src/usbd_core.c **** /** @defgroup USBD_CORE_Private_Variables
  69:Middlewares/ST/STM32_USB_Device_Library/Core/Src/usbd_core.c **** * @{
  70:Middlewares/ST/STM32_USB_Device_Library/Core/Src/usbd_core.c **** */
  71:Middlewares/ST/STM32_USB_Device_Library/Core/Src/usbd_core.c **** 
  72:Middlewares/ST/STM32_USB_Device_Library/Core/Src/usbd_core.c **** /**
  73:Middlewares/ST/STM32_USB_Device_Library/Core/Src/usbd_core.c **** * @}
  74:Middlewares/ST/STM32_USB_Device_Library/Core/Src/usbd_core.c **** */
  75:Middlewares/ST/STM32_USB_Device_Library/Core/Src/usbd_core.c **** 
  76:Middlewares/ST/STM32_USB_Device_Library/Core/Src/usbd_core.c **** /** @defgroup USBD_CORE_Private_Functions
  77:Middlewares/ST/STM32_USB_Device_Library/Core/Src/usbd_core.c **** * @{
  78:Middlewares/ST/STM32_USB_Device_Library/Core/Src/usbd_core.c **** */
  79:Middlewares/ST/STM32_USB_Device_Library/Core/Src/usbd_core.c **** 
  80:Middlewares/ST/STM32_USB_Device_Library/Core/Src/usbd_core.c **** /**
  81:Middlewares/ST/STM32_USB_Device_Library/Core/Src/usbd_core.c **** * @brief  USBD_Init
  82:Middlewares/ST/STM32_USB_Device_Library/Core/Src/usbd_core.c **** *         Initializes the device stack and load the class driver
  83:Middlewares/ST/STM32_USB_Device_Library/Core/Src/usbd_core.c **** * @param  pdev: device instance
  84:Middlewares/ST/STM32_USB_Device_Library/Core/Src/usbd_core.c **** * @param  pdesc: Descriptor structure address
  85:Middlewares/ST/STM32_USB_Device_Library/Core/Src/usbd_core.c **** * @param  id: Low level core index
  86:Middlewares/ST/STM32_USB_Device_Library/Core/Src/usbd_core.c **** * @retval None
  87:Middlewares/ST/STM32_USB_Device_Library/Core/Src/usbd_core.c **** */
  88:Middlewares/ST/STM32_USB_Device_Library/Core/Src/usbd_core.c **** USBD_StatusTypeDef USBD_Init(USBD_HandleTypeDef *pdev, USBD_DescriptorsTypeDef *pdesc, uint8_t id)
ARM GAS  /tmp/cc9MbIlP.s 			page 3


  89:Middlewares/ST/STM32_USB_Device_Library/Core/Src/usbd_core.c **** {
  28              		.loc 1 89 0
  29              		.cfi_startproc
  30              		@ args = 0, pretend = 0, frame = 0
  31              		@ frame_needed = 0, uses_anonymous_args = 0
  32              	.LVL0:
  90:Middlewares/ST/STM32_USB_Device_Library/Core/Src/usbd_core.c ****   /* Check whether the USB Host handle is valid */
  91:Middlewares/ST/STM32_USB_Device_Library/Core/Src/usbd_core.c ****   if(pdev == NULL)
  33              		.loc 1 91 0
  34 0000 98B1     		cbz	r0, .L5
  89:Middlewares/ST/STM32_USB_Device_Library/Core/Src/usbd_core.c ****   /* Check whether the USB Host handle is valid */
  35              		.loc 1 89 0
  36 0002 08B5     		push	{r3, lr}
  37              	.LCFI0:
  38              		.cfi_def_cfa_offset 8
  39              		.cfi_offset 3, -8
  40              		.cfi_offset 14, -4
  41 0004 0346     		mov	r3, r0
  92:Middlewares/ST/STM32_USB_Device_Library/Core/Src/usbd_core.c ****   {
  93:Middlewares/ST/STM32_USB_Device_Library/Core/Src/usbd_core.c **** #if (USBD_DEBUG_LEVEL > 1U)
  94:Middlewares/ST/STM32_USB_Device_Library/Core/Src/usbd_core.c ****     USBD_ErrLog("Invalid Device handle");
  95:Middlewares/ST/STM32_USB_Device_Library/Core/Src/usbd_core.c **** #endif
  96:Middlewares/ST/STM32_USB_Device_Library/Core/Src/usbd_core.c ****     return USBD_FAIL;
  97:Middlewares/ST/STM32_USB_Device_Library/Core/Src/usbd_core.c ****   }
  98:Middlewares/ST/STM32_USB_Device_Library/Core/Src/usbd_core.c **** 
  99:Middlewares/ST/STM32_USB_Device_Library/Core/Src/usbd_core.c ****   /* Unlink previous class*/
 100:Middlewares/ST/STM32_USB_Device_Library/Core/Src/usbd_core.c ****   if(pdev->pClass != NULL)
  42              		.loc 1 100 0
  43 0006 D0F88C02 		ldr	r0, [r0, #652]
  44              	.LVL1:
  45 000a 10B1     		cbz	r0, .L3
 101:Middlewares/ST/STM32_USB_Device_Library/Core/Src/usbd_core.c ****   {
 102:Middlewares/ST/STM32_USB_Device_Library/Core/Src/usbd_core.c ****     pdev->pClass = NULL;
  46              		.loc 1 102 0
  47 000c 0020     		movs	r0, #0
  48 000e C3F88C02 		str	r0, [r3, #652]
  49              	.L3:
 103:Middlewares/ST/STM32_USB_Device_Library/Core/Src/usbd_core.c ****   }
 104:Middlewares/ST/STM32_USB_Device_Library/Core/Src/usbd_core.c **** 
 105:Middlewares/ST/STM32_USB_Device_Library/Core/Src/usbd_core.c ****   /* Assign USBD Descriptors */
 106:Middlewares/ST/STM32_USB_Device_Library/Core/Src/usbd_core.c ****   if(pdesc != NULL)
  50              		.loc 1 106 0
  51 0012 09B1     		cbz	r1, .L4
 107:Middlewares/ST/STM32_USB_Device_Library/Core/Src/usbd_core.c ****   {
 108:Middlewares/ST/STM32_USB_Device_Library/Core/Src/usbd_core.c ****     pdev->pDesc = pdesc;
  52              		.loc 1 108 0
  53 0014 C3F88812 		str	r1, [r3, #648]
  54              	.L4:
  55 0018 1846     		mov	r0, r3
 109:Middlewares/ST/STM32_USB_Device_Library/Core/Src/usbd_core.c ****   }
 110:Middlewares/ST/STM32_USB_Device_Library/Core/Src/usbd_core.c **** 
 111:Middlewares/ST/STM32_USB_Device_Library/Core/Src/usbd_core.c ****   /* Set Device initial State */
 112:Middlewares/ST/STM32_USB_Device_Library/Core/Src/usbd_core.c ****   pdev->dev_state  = USBD_STATE_DEFAULT;
  56              		.loc 1 112 0
  57 001a 0123     		movs	r3, #1
  58              	.LVL2:
  59 001c 80F87432 		strb	r3, [r0, #628]
ARM GAS  /tmp/cc9MbIlP.s 			page 4


 113:Middlewares/ST/STM32_USB_Device_Library/Core/Src/usbd_core.c ****   pdev->id = id;
  60              		.loc 1 113 0
  61 0020 0270     		strb	r2, [r0]
 114:Middlewares/ST/STM32_USB_Device_Library/Core/Src/usbd_core.c ****   /* Initialize low level driver */
 115:Middlewares/ST/STM32_USB_Device_Library/Core/Src/usbd_core.c ****   USBD_LL_Init(pdev);
  62              		.loc 1 115 0
  63 0022 FFF7FEFF 		bl	USBD_LL_Init
  64              	.LVL3:
 116:Middlewares/ST/STM32_USB_Device_Library/Core/Src/usbd_core.c **** 
 117:Middlewares/ST/STM32_USB_Device_Library/Core/Src/usbd_core.c ****   return USBD_OK;
  65              		.loc 1 117 0
  66 0026 0020     		movs	r0, #0
 118:Middlewares/ST/STM32_USB_Device_Library/Core/Src/usbd_core.c **** }
  67              		.loc 1 118 0
  68 0028 08BD     		pop	{r3, pc}
  69              	.LVL4:
  70              	.L5:
  71              	.LCFI1:
  72              		.cfi_def_cfa_offset 0
  73              		.cfi_restore 3
  74              		.cfi_restore 14
  96:Middlewares/ST/STM32_USB_Device_Library/Core/Src/usbd_core.c ****   }
  75              		.loc 1 96 0
  76 002a 0220     		movs	r0, #2
  77              	.LVL5:
  78              		.loc 1 118 0
  79 002c 7047     		bx	lr
  80              		.cfi_endproc
  81              	.LFE133:
  83              		.section	.text.USBD_DeInit,"ax",%progbits
  84              		.align	1
  85              		.global	USBD_DeInit
  86              		.syntax unified
  87              		.thumb
  88              		.thumb_func
  89              		.fpu fpv4-sp-d16
  91              	USBD_DeInit:
  92              	.LFB134:
 119:Middlewares/ST/STM32_USB_Device_Library/Core/Src/usbd_core.c **** 
 120:Middlewares/ST/STM32_USB_Device_Library/Core/Src/usbd_core.c **** /**
 121:Middlewares/ST/STM32_USB_Device_Library/Core/Src/usbd_core.c **** * @brief  USBD_DeInit
 122:Middlewares/ST/STM32_USB_Device_Library/Core/Src/usbd_core.c **** *         Re-Initialize th device library
 123:Middlewares/ST/STM32_USB_Device_Library/Core/Src/usbd_core.c **** * @param  pdev: device instance
 124:Middlewares/ST/STM32_USB_Device_Library/Core/Src/usbd_core.c **** * @retval status: status
 125:Middlewares/ST/STM32_USB_Device_Library/Core/Src/usbd_core.c **** */
 126:Middlewares/ST/STM32_USB_Device_Library/Core/Src/usbd_core.c **** USBD_StatusTypeDef USBD_DeInit(USBD_HandleTypeDef *pdev)
 127:Middlewares/ST/STM32_USB_Device_Library/Core/Src/usbd_core.c **** {
  93              		.loc 1 127 0
  94              		.cfi_startproc
  95              		@ args = 0, pretend = 0, frame = 0
  96              		@ frame_needed = 0, uses_anonymous_args = 0
  97              	.LVL6:
  98 0000 10B5     		push	{r4, lr}
  99              	.LCFI2:
 100              		.cfi_def_cfa_offset 8
 101              		.cfi_offset 4, -8
 102              		.cfi_offset 14, -4
ARM GAS  /tmp/cc9MbIlP.s 			page 5


 103 0002 0446     		mov	r4, r0
 128:Middlewares/ST/STM32_USB_Device_Library/Core/Src/usbd_core.c ****   /* Set Default State */
 129:Middlewares/ST/STM32_USB_Device_Library/Core/Src/usbd_core.c ****   pdev->dev_state  = USBD_STATE_DEFAULT;
 104              		.loc 1 129 0
 105 0004 0123     		movs	r3, #1
 106 0006 80F87432 		strb	r3, [r0, #628]
 130:Middlewares/ST/STM32_USB_Device_Library/Core/Src/usbd_core.c **** 
 131:Middlewares/ST/STM32_USB_Device_Library/Core/Src/usbd_core.c ****   /* Free Class Resources */
 132:Middlewares/ST/STM32_USB_Device_Library/Core/Src/usbd_core.c ****   pdev->pClass->DeInit(pdev, (uint8_t)pdev->dev_config);
 107              		.loc 1 132 0
 108 000a D0F88C32 		ldr	r3, [r0, #652]
 109 000e 5B68     		ldr	r3, [r3, #4]
 110 0010 0179     		ldrb	r1, [r0, #4]	@ zero_extendqisi2
 111 0012 9847     		blx	r3
 112              	.LVL7:
 133:Middlewares/ST/STM32_USB_Device_Library/Core/Src/usbd_core.c **** 
 134:Middlewares/ST/STM32_USB_Device_Library/Core/Src/usbd_core.c ****     /* Stop the low level driver  */
 135:Middlewares/ST/STM32_USB_Device_Library/Core/Src/usbd_core.c ****   USBD_LL_Stop(pdev);
 113              		.loc 1 135 0
 114 0014 2046     		mov	r0, r4
 115 0016 FFF7FEFF 		bl	USBD_LL_Stop
 116              	.LVL8:
 136:Middlewares/ST/STM32_USB_Device_Library/Core/Src/usbd_core.c **** 
 137:Middlewares/ST/STM32_USB_Device_Library/Core/Src/usbd_core.c ****   /* Initialize low level driver */
 138:Middlewares/ST/STM32_USB_Device_Library/Core/Src/usbd_core.c ****   USBD_LL_DeInit(pdev);
 117              		.loc 1 138 0
 118 001a 2046     		mov	r0, r4
 119 001c FFF7FEFF 		bl	USBD_LL_DeInit
 120              	.LVL9:
 139:Middlewares/ST/STM32_USB_Device_Library/Core/Src/usbd_core.c **** 
 140:Middlewares/ST/STM32_USB_Device_Library/Core/Src/usbd_core.c ****   return USBD_OK;
 141:Middlewares/ST/STM32_USB_Device_Library/Core/Src/usbd_core.c **** }
 121              		.loc 1 141 0
 122 0020 0020     		movs	r0, #0
 123 0022 10BD     		pop	{r4, pc}
 124              		.cfi_endproc
 125              	.LFE134:
 127              		.section	.text.USBD_RegisterClass,"ax",%progbits
 128              		.align	1
 129              		.global	USBD_RegisterClass
 130              		.syntax unified
 131              		.thumb
 132              		.thumb_func
 133              		.fpu fpv4-sp-d16
 135              	USBD_RegisterClass:
 136              	.LFB135:
 142:Middlewares/ST/STM32_USB_Device_Library/Core/Src/usbd_core.c **** 
 143:Middlewares/ST/STM32_USB_Device_Library/Core/Src/usbd_core.c **** /**
 144:Middlewares/ST/STM32_USB_Device_Library/Core/Src/usbd_core.c ****   * @brief  USBD_RegisterClass
 145:Middlewares/ST/STM32_USB_Device_Library/Core/Src/usbd_core.c ****   *         Link class driver to Device Core.
 146:Middlewares/ST/STM32_USB_Device_Library/Core/Src/usbd_core.c ****   * @param  pDevice : Device Handle
 147:Middlewares/ST/STM32_USB_Device_Library/Core/Src/usbd_core.c ****   * @param  pclass: Class handle
 148:Middlewares/ST/STM32_USB_Device_Library/Core/Src/usbd_core.c ****   * @retval USBD Status
 149:Middlewares/ST/STM32_USB_Device_Library/Core/Src/usbd_core.c ****   */
 150:Middlewares/ST/STM32_USB_Device_Library/Core/Src/usbd_core.c **** USBD_StatusTypeDef  USBD_RegisterClass(USBD_HandleTypeDef *pdev, USBD_ClassTypeDef *pclass)
 151:Middlewares/ST/STM32_USB_Device_Library/Core/Src/usbd_core.c **** {
 137              		.loc 1 151 0
ARM GAS  /tmp/cc9MbIlP.s 			page 6


 138              		.cfi_startproc
 139              		@ args = 0, pretend = 0, frame = 0
 140              		@ frame_needed = 0, uses_anonymous_args = 0
 141              		@ link register save eliminated.
 142              	.LVL10:
 152:Middlewares/ST/STM32_USB_Device_Library/Core/Src/usbd_core.c ****   USBD_StatusTypeDef   status = USBD_OK;
 153:Middlewares/ST/STM32_USB_Device_Library/Core/Src/usbd_core.c ****   if(pclass != 0)
 143              		.loc 1 153 0
 144 0000 19B1     		cbz	r1, .L14
 154:Middlewares/ST/STM32_USB_Device_Library/Core/Src/usbd_core.c ****   {
 155:Middlewares/ST/STM32_USB_Device_Library/Core/Src/usbd_core.c ****     /* link the class to the USB Device handle */
 156:Middlewares/ST/STM32_USB_Device_Library/Core/Src/usbd_core.c ****     pdev->pClass = pclass;
 145              		.loc 1 156 0
 146 0002 C0F88C12 		str	r1, [r0, #652]
 157:Middlewares/ST/STM32_USB_Device_Library/Core/Src/usbd_core.c ****     status = USBD_OK;
 147              		.loc 1 157 0
 148 0006 0020     		movs	r0, #0
 149              	.LVL11:
 150 0008 7047     		bx	lr
 151              	.LVL12:
 152              	.L14:
 158:Middlewares/ST/STM32_USB_Device_Library/Core/Src/usbd_core.c ****   }
 159:Middlewares/ST/STM32_USB_Device_Library/Core/Src/usbd_core.c ****   else
 160:Middlewares/ST/STM32_USB_Device_Library/Core/Src/usbd_core.c ****   {
 161:Middlewares/ST/STM32_USB_Device_Library/Core/Src/usbd_core.c **** #if (USBD_DEBUG_LEVEL > 1U)
 162:Middlewares/ST/STM32_USB_Device_Library/Core/Src/usbd_core.c ****     USBD_ErrLog("Invalid Class handle");
 163:Middlewares/ST/STM32_USB_Device_Library/Core/Src/usbd_core.c **** #endif
 164:Middlewares/ST/STM32_USB_Device_Library/Core/Src/usbd_core.c ****     status = USBD_FAIL;
 153              		.loc 1 164 0
 154 000a 0220     		movs	r0, #2
 155              	.LVL13:
 165:Middlewares/ST/STM32_USB_Device_Library/Core/Src/usbd_core.c ****   }
 166:Middlewares/ST/STM32_USB_Device_Library/Core/Src/usbd_core.c **** 
 167:Middlewares/ST/STM32_USB_Device_Library/Core/Src/usbd_core.c ****   return status;
 168:Middlewares/ST/STM32_USB_Device_Library/Core/Src/usbd_core.c **** }
 156              		.loc 1 168 0
 157 000c 7047     		bx	lr
 158              		.cfi_endproc
 159              	.LFE135:
 161              		.section	.text.USBD_Start,"ax",%progbits
 162              		.align	1
 163              		.global	USBD_Start
 164              		.syntax unified
 165              		.thumb
 166              		.thumb_func
 167              		.fpu fpv4-sp-d16
 169              	USBD_Start:
 170              	.LFB136:
 169:Middlewares/ST/STM32_USB_Device_Library/Core/Src/usbd_core.c **** 
 170:Middlewares/ST/STM32_USB_Device_Library/Core/Src/usbd_core.c **** /**
 171:Middlewares/ST/STM32_USB_Device_Library/Core/Src/usbd_core.c ****   * @brief  USBD_Start
 172:Middlewares/ST/STM32_USB_Device_Library/Core/Src/usbd_core.c ****   *         Start the USB Device Core.
 173:Middlewares/ST/STM32_USB_Device_Library/Core/Src/usbd_core.c ****   * @param  pdev: Device Handle
 174:Middlewares/ST/STM32_USB_Device_Library/Core/Src/usbd_core.c ****   * @retval USBD Status
 175:Middlewares/ST/STM32_USB_Device_Library/Core/Src/usbd_core.c ****   */
 176:Middlewares/ST/STM32_USB_Device_Library/Core/Src/usbd_core.c **** USBD_StatusTypeDef  USBD_Start  (USBD_HandleTypeDef *pdev)
 177:Middlewares/ST/STM32_USB_Device_Library/Core/Src/usbd_core.c **** {
ARM GAS  /tmp/cc9MbIlP.s 			page 7


 171              		.loc 1 177 0
 172              		.cfi_startproc
 173              		@ args = 0, pretend = 0, frame = 0
 174              		@ frame_needed = 0, uses_anonymous_args = 0
 175              	.LVL14:
 176 0000 08B5     		push	{r3, lr}
 177              	.LCFI3:
 178              		.cfi_def_cfa_offset 8
 179              		.cfi_offset 3, -8
 180              		.cfi_offset 14, -4
 178:Middlewares/ST/STM32_USB_Device_Library/Core/Src/usbd_core.c **** 
 179:Middlewares/ST/STM32_USB_Device_Library/Core/Src/usbd_core.c ****   /* Start the low level driver  */
 180:Middlewares/ST/STM32_USB_Device_Library/Core/Src/usbd_core.c ****   USBD_LL_Start(pdev);
 181              		.loc 1 180 0
 182 0002 FFF7FEFF 		bl	USBD_LL_Start
 183              	.LVL15:
 181:Middlewares/ST/STM32_USB_Device_Library/Core/Src/usbd_core.c **** 
 182:Middlewares/ST/STM32_USB_Device_Library/Core/Src/usbd_core.c ****   return USBD_OK;
 183:Middlewares/ST/STM32_USB_Device_Library/Core/Src/usbd_core.c **** }
 184              		.loc 1 183 0
 185 0006 0020     		movs	r0, #0
 186 0008 08BD     		pop	{r3, pc}
 187              		.cfi_endproc
 188              	.LFE136:
 190              		.section	.text.USBD_Stop,"ax",%progbits
 191              		.align	1
 192              		.global	USBD_Stop
 193              		.syntax unified
 194              		.thumb
 195              		.thumb_func
 196              		.fpu fpv4-sp-d16
 198              	USBD_Stop:
 199              	.LFB137:
 184:Middlewares/ST/STM32_USB_Device_Library/Core/Src/usbd_core.c **** 
 185:Middlewares/ST/STM32_USB_Device_Library/Core/Src/usbd_core.c **** /**
 186:Middlewares/ST/STM32_USB_Device_Library/Core/Src/usbd_core.c ****   * @brief  USBD_Stop
 187:Middlewares/ST/STM32_USB_Device_Library/Core/Src/usbd_core.c ****   *         Stop the USB Device Core.
 188:Middlewares/ST/STM32_USB_Device_Library/Core/Src/usbd_core.c ****   * @param  pdev: Device Handle
 189:Middlewares/ST/STM32_USB_Device_Library/Core/Src/usbd_core.c ****   * @retval USBD Status
 190:Middlewares/ST/STM32_USB_Device_Library/Core/Src/usbd_core.c ****   */
 191:Middlewares/ST/STM32_USB_Device_Library/Core/Src/usbd_core.c **** USBD_StatusTypeDef  USBD_Stop   (USBD_HandleTypeDef *pdev)
 192:Middlewares/ST/STM32_USB_Device_Library/Core/Src/usbd_core.c **** {
 200              		.loc 1 192 0
 201              		.cfi_startproc
 202              		@ args = 0, pretend = 0, frame = 0
 203              		@ frame_needed = 0, uses_anonymous_args = 0
 204              	.LVL16:
 205 0000 10B5     		push	{r4, lr}
 206              	.LCFI4:
 207              		.cfi_def_cfa_offset 8
 208              		.cfi_offset 4, -8
 209              		.cfi_offset 14, -4
 210 0002 0446     		mov	r4, r0
 193:Middlewares/ST/STM32_USB_Device_Library/Core/Src/usbd_core.c ****   /* Free Class Resources */
 194:Middlewares/ST/STM32_USB_Device_Library/Core/Src/usbd_core.c ****   pdev->pClass->DeInit(pdev, (uint8_t)pdev->dev_config);
 211              		.loc 1 194 0
 212 0004 D0F88C32 		ldr	r3, [r0, #652]
ARM GAS  /tmp/cc9MbIlP.s 			page 8


 213 0008 5B68     		ldr	r3, [r3, #4]
 214 000a 0179     		ldrb	r1, [r0, #4]	@ zero_extendqisi2
 215 000c 9847     		blx	r3
 216              	.LVL17:
 195:Middlewares/ST/STM32_USB_Device_Library/Core/Src/usbd_core.c **** 
 196:Middlewares/ST/STM32_USB_Device_Library/Core/Src/usbd_core.c ****   /* Stop the low level driver  */
 197:Middlewares/ST/STM32_USB_Device_Library/Core/Src/usbd_core.c ****   USBD_LL_Stop(pdev);
 217              		.loc 1 197 0
 218 000e 2046     		mov	r0, r4
 219 0010 FFF7FEFF 		bl	USBD_LL_Stop
 220              	.LVL18:
 198:Middlewares/ST/STM32_USB_Device_Library/Core/Src/usbd_core.c **** 
 199:Middlewares/ST/STM32_USB_Device_Library/Core/Src/usbd_core.c ****   return USBD_OK;
 200:Middlewares/ST/STM32_USB_Device_Library/Core/Src/usbd_core.c **** }
 221              		.loc 1 200 0
 222 0014 0020     		movs	r0, #0
 223 0016 10BD     		pop	{r4, pc}
 224              		.cfi_endproc
 225              	.LFE137:
 227              		.section	.text.USBD_RunTestMode,"ax",%progbits
 228              		.align	1
 229              		.global	USBD_RunTestMode
 230              		.syntax unified
 231              		.thumb
 232              		.thumb_func
 233              		.fpu fpv4-sp-d16
 235              	USBD_RunTestMode:
 236              	.LFB138:
 201:Middlewares/ST/STM32_USB_Device_Library/Core/Src/usbd_core.c **** 
 202:Middlewares/ST/STM32_USB_Device_Library/Core/Src/usbd_core.c **** /**
 203:Middlewares/ST/STM32_USB_Device_Library/Core/Src/usbd_core.c **** * @brief  USBD_RunTestMode
 204:Middlewares/ST/STM32_USB_Device_Library/Core/Src/usbd_core.c **** *         Launch test mode process
 205:Middlewares/ST/STM32_USB_Device_Library/Core/Src/usbd_core.c **** * @param  pdev: device instance
 206:Middlewares/ST/STM32_USB_Device_Library/Core/Src/usbd_core.c **** * @retval status
 207:Middlewares/ST/STM32_USB_Device_Library/Core/Src/usbd_core.c **** */
 208:Middlewares/ST/STM32_USB_Device_Library/Core/Src/usbd_core.c **** USBD_StatusTypeDef  USBD_RunTestMode (USBD_HandleTypeDef  *pdev)
 209:Middlewares/ST/STM32_USB_Device_Library/Core/Src/usbd_core.c **** {
 237              		.loc 1 209 0
 238              		.cfi_startproc
 239              		@ args = 0, pretend = 0, frame = 0
 240              		@ frame_needed = 0, uses_anonymous_args = 0
 241              		@ link register save eliminated.
 242              	.LVL19:
 210:Middlewares/ST/STM32_USB_Device_Library/Core/Src/usbd_core.c ****   /* Prevent unused argument compilation warning */
 211:Middlewares/ST/STM32_USB_Device_Library/Core/Src/usbd_core.c ****   UNUSED(pdev);
 212:Middlewares/ST/STM32_USB_Device_Library/Core/Src/usbd_core.c **** 
 213:Middlewares/ST/STM32_USB_Device_Library/Core/Src/usbd_core.c ****   return USBD_OK;
 214:Middlewares/ST/STM32_USB_Device_Library/Core/Src/usbd_core.c **** }
 243              		.loc 1 214 0
 244 0000 0020     		movs	r0, #0
 245              	.LVL20:
 246 0002 7047     		bx	lr
 247              		.cfi_endproc
 248              	.LFE138:
 250              		.section	.text.USBD_SetClassConfig,"ax",%progbits
 251              		.align	1
 252              		.global	USBD_SetClassConfig
ARM GAS  /tmp/cc9MbIlP.s 			page 9


 253              		.syntax unified
 254              		.thumb
 255              		.thumb_func
 256              		.fpu fpv4-sp-d16
 258              	USBD_SetClassConfig:
 259              	.LFB139:
 215:Middlewares/ST/STM32_USB_Device_Library/Core/Src/usbd_core.c **** 
 216:Middlewares/ST/STM32_USB_Device_Library/Core/Src/usbd_core.c **** /**
 217:Middlewares/ST/STM32_USB_Device_Library/Core/Src/usbd_core.c **** * @brief  USBD_SetClassConfig
 218:Middlewares/ST/STM32_USB_Device_Library/Core/Src/usbd_core.c **** *        Configure device and start the interface
 219:Middlewares/ST/STM32_USB_Device_Library/Core/Src/usbd_core.c **** * @param  pdev: device instance
 220:Middlewares/ST/STM32_USB_Device_Library/Core/Src/usbd_core.c **** * @param  cfgidx: configuration index
 221:Middlewares/ST/STM32_USB_Device_Library/Core/Src/usbd_core.c **** * @retval status
 222:Middlewares/ST/STM32_USB_Device_Library/Core/Src/usbd_core.c **** */
 223:Middlewares/ST/STM32_USB_Device_Library/Core/Src/usbd_core.c **** 
 224:Middlewares/ST/STM32_USB_Device_Library/Core/Src/usbd_core.c **** USBD_StatusTypeDef USBD_SetClassConfig(USBD_HandleTypeDef  *pdev, uint8_t cfgidx)
 225:Middlewares/ST/STM32_USB_Device_Library/Core/Src/usbd_core.c **** {
 260              		.loc 1 225 0
 261              		.cfi_startproc
 262              		@ args = 0, pretend = 0, frame = 0
 263              		@ frame_needed = 0, uses_anonymous_args = 0
 264              	.LVL21:
 265 0000 08B5     		push	{r3, lr}
 266              	.LCFI5:
 267              		.cfi_def_cfa_offset 8
 268              		.cfi_offset 3, -8
 269              		.cfi_offset 14, -4
 270              	.LVL22:
 226:Middlewares/ST/STM32_USB_Device_Library/Core/Src/usbd_core.c ****   USBD_StatusTypeDef   ret = USBD_FAIL;
 227:Middlewares/ST/STM32_USB_Device_Library/Core/Src/usbd_core.c **** 
 228:Middlewares/ST/STM32_USB_Device_Library/Core/Src/usbd_core.c ****   if(pdev->pClass != NULL)
 271              		.loc 1 228 0
 272 0002 D0F88C32 		ldr	r3, [r0, #652]
 273 0006 33B1     		cbz	r3, .L22
 229:Middlewares/ST/STM32_USB_Device_Library/Core/Src/usbd_core.c ****   {
 230:Middlewares/ST/STM32_USB_Device_Library/Core/Src/usbd_core.c ****     /* Set configuration  and Start the Class*/
 231:Middlewares/ST/STM32_USB_Device_Library/Core/Src/usbd_core.c ****     if(pdev->pClass->Init(pdev, cfgidx) == 0U)
 274              		.loc 1 231 0
 275 0008 1B68     		ldr	r3, [r3]
 276 000a 9847     		blx	r3
 277              	.LVL23:
 278 000c 08B9     		cbnz	r0, .L25
 232:Middlewares/ST/STM32_USB_Device_Library/Core/Src/usbd_core.c ****     {
 233:Middlewares/ST/STM32_USB_Device_Library/Core/Src/usbd_core.c ****       ret = USBD_OK;
 279              		.loc 1 233 0
 280 000e 0020     		movs	r0, #0
 281              	.L21:
 282              	.LVL24:
 234:Middlewares/ST/STM32_USB_Device_Library/Core/Src/usbd_core.c ****     }
 235:Middlewares/ST/STM32_USB_Device_Library/Core/Src/usbd_core.c ****   }
 236:Middlewares/ST/STM32_USB_Device_Library/Core/Src/usbd_core.c **** 
 237:Middlewares/ST/STM32_USB_Device_Library/Core/Src/usbd_core.c ****   return ret;
 238:Middlewares/ST/STM32_USB_Device_Library/Core/Src/usbd_core.c **** }
 283              		.loc 1 238 0
 284 0010 08BD     		pop	{r3, pc}
 285              	.LVL25:
 286              	.L25:
ARM GAS  /tmp/cc9MbIlP.s 			page 10


 226:Middlewares/ST/STM32_USB_Device_Library/Core/Src/usbd_core.c **** 
 287              		.loc 1 226 0
 288 0012 0220     		movs	r0, #2
 289 0014 FCE7     		b	.L21
 290              	.LVL26:
 291              	.L22:
 292 0016 0220     		movs	r0, #2
 293              	.LVL27:
 294 0018 FAE7     		b	.L21
 295              		.cfi_endproc
 296              	.LFE139:
 298              		.section	.text.USBD_ClrClassConfig,"ax",%progbits
 299              		.align	1
 300              		.global	USBD_ClrClassConfig
 301              		.syntax unified
 302              		.thumb
 303              		.thumb_func
 304              		.fpu fpv4-sp-d16
 306              	USBD_ClrClassConfig:
 307              	.LFB140:
 239:Middlewares/ST/STM32_USB_Device_Library/Core/Src/usbd_core.c **** 
 240:Middlewares/ST/STM32_USB_Device_Library/Core/Src/usbd_core.c **** /**
 241:Middlewares/ST/STM32_USB_Device_Library/Core/Src/usbd_core.c **** * @brief  USBD_ClrClassConfig
 242:Middlewares/ST/STM32_USB_Device_Library/Core/Src/usbd_core.c **** *         Clear current configuration
 243:Middlewares/ST/STM32_USB_Device_Library/Core/Src/usbd_core.c **** * @param  pdev: device instance
 244:Middlewares/ST/STM32_USB_Device_Library/Core/Src/usbd_core.c **** * @param  cfgidx: configuration index
 245:Middlewares/ST/STM32_USB_Device_Library/Core/Src/usbd_core.c **** * @retval status: USBD_StatusTypeDef
 246:Middlewares/ST/STM32_USB_Device_Library/Core/Src/usbd_core.c **** */
 247:Middlewares/ST/STM32_USB_Device_Library/Core/Src/usbd_core.c **** USBD_StatusTypeDef USBD_ClrClassConfig(USBD_HandleTypeDef  *pdev, uint8_t cfgidx)
 248:Middlewares/ST/STM32_USB_Device_Library/Core/Src/usbd_core.c **** {
 308              		.loc 1 248 0
 309              		.cfi_startproc
 310              		@ args = 0, pretend = 0, frame = 0
 311              		@ frame_needed = 0, uses_anonymous_args = 0
 312              	.LVL28:
 313 0000 08B5     		push	{r3, lr}
 314              	.LCFI6:
 315              		.cfi_def_cfa_offset 8
 316              		.cfi_offset 3, -8
 317              		.cfi_offset 14, -4
 249:Middlewares/ST/STM32_USB_Device_Library/Core/Src/usbd_core.c ****   /* Clear configuration  and De-initialize the Class process*/
 250:Middlewares/ST/STM32_USB_Device_Library/Core/Src/usbd_core.c ****   pdev->pClass->DeInit(pdev, cfgidx);
 318              		.loc 1 250 0
 319 0002 D0F88C32 		ldr	r3, [r0, #652]
 320 0006 5B68     		ldr	r3, [r3, #4]
 321 0008 9847     		blx	r3
 322              	.LVL29:
 251:Middlewares/ST/STM32_USB_Device_Library/Core/Src/usbd_core.c ****   return USBD_OK;
 252:Middlewares/ST/STM32_USB_Device_Library/Core/Src/usbd_core.c **** }
 323              		.loc 1 252 0
 324 000a 0020     		movs	r0, #0
 325 000c 08BD     		pop	{r3, pc}
 326              		.cfi_endproc
 327              	.LFE140:
 329              		.section	.text.USBD_LL_SetupStage,"ax",%progbits
 330              		.align	1
 331              		.global	USBD_LL_SetupStage
ARM GAS  /tmp/cc9MbIlP.s 			page 11


 332              		.syntax unified
 333              		.thumb
 334              		.thumb_func
 335              		.fpu fpv4-sp-d16
 337              	USBD_LL_SetupStage:
 338              	.LFB141:
 253:Middlewares/ST/STM32_USB_Device_Library/Core/Src/usbd_core.c **** 
 254:Middlewares/ST/STM32_USB_Device_Library/Core/Src/usbd_core.c **** 
 255:Middlewares/ST/STM32_USB_Device_Library/Core/Src/usbd_core.c **** /**
 256:Middlewares/ST/STM32_USB_Device_Library/Core/Src/usbd_core.c **** * @brief  USBD_SetupStage
 257:Middlewares/ST/STM32_USB_Device_Library/Core/Src/usbd_core.c **** *         Handle the setup stage
 258:Middlewares/ST/STM32_USB_Device_Library/Core/Src/usbd_core.c **** * @param  pdev: device instance
 259:Middlewares/ST/STM32_USB_Device_Library/Core/Src/usbd_core.c **** * @retval status
 260:Middlewares/ST/STM32_USB_Device_Library/Core/Src/usbd_core.c **** */
 261:Middlewares/ST/STM32_USB_Device_Library/Core/Src/usbd_core.c **** USBD_StatusTypeDef USBD_LL_SetupStage(USBD_HandleTypeDef *pdev, uint8_t *psetup)
 262:Middlewares/ST/STM32_USB_Device_Library/Core/Src/usbd_core.c **** {
 339              		.loc 1 262 0
 340              		.cfi_startproc
 341              		@ args = 0, pretend = 0, frame = 0
 342              		@ frame_needed = 0, uses_anonymous_args = 0
 343              	.LVL30:
 344 0000 38B5     		push	{r3, r4, r5, lr}
 345              	.LCFI7:
 346              		.cfi_def_cfa_offset 16
 347              		.cfi_offset 3, -16
 348              		.cfi_offset 4, -12
 349              		.cfi_offset 5, -8
 350              		.cfi_offset 14, -4
 351 0002 0446     		mov	r4, r0
 263:Middlewares/ST/STM32_USB_Device_Library/Core/Src/usbd_core.c ****   USBD_ParseSetupRequest(&pdev->request, psetup);
 352              		.loc 1 263 0
 353 0004 00F52075 		add	r5, r0, #640
 354 0008 2846     		mov	r0, r5
 355              	.LVL31:
 356 000a FFF7FEFF 		bl	USBD_ParseSetupRequest
 357              	.LVL32:
 264:Middlewares/ST/STM32_USB_Device_Library/Core/Src/usbd_core.c **** 
 265:Middlewares/ST/STM32_USB_Device_Library/Core/Src/usbd_core.c ****   pdev->ep0_state = USBD_EP0_SETUP;
 358              		.loc 1 265 0
 359 000e 0123     		movs	r3, #1
 360 0010 C4F86C32 		str	r3, [r4, #620]
 266:Middlewares/ST/STM32_USB_Device_Library/Core/Src/usbd_core.c **** 
 267:Middlewares/ST/STM32_USB_Device_Library/Core/Src/usbd_core.c ****   pdev->ep0_data_len = pdev->request.wLength;
 361              		.loc 1 267 0
 362 0014 B4F88632 		ldrh	r3, [r4, #646]
 363 0018 C4F87032 		str	r3, [r4, #624]
 268:Middlewares/ST/STM32_USB_Device_Library/Core/Src/usbd_core.c **** 
 269:Middlewares/ST/STM32_USB_Device_Library/Core/Src/usbd_core.c ****   switch (pdev->request.bmRequest & 0x1FU)
 364              		.loc 1 269 0
 365 001c 94F88012 		ldrb	r1, [r4, #640]	@ zero_extendqisi2
 366 0020 01F01F03 		and	r3, r1, #31
 367 0024 012B     		cmp	r3, #1
 368 0026 0ED0     		beq	.L30
 369 0028 3BB1     		cbz	r3, .L31
 370 002a 022B     		cmp	r3, #2
 371 002c 10D0     		beq	.L32
 270:Middlewares/ST/STM32_USB_Device_Library/Core/Src/usbd_core.c ****   {
ARM GAS  /tmp/cc9MbIlP.s 			page 12


 271:Middlewares/ST/STM32_USB_Device_Library/Core/Src/usbd_core.c ****   case USB_REQ_RECIPIENT_DEVICE:
 272:Middlewares/ST/STM32_USB_Device_Library/Core/Src/usbd_core.c ****     USBD_StdDevReq (pdev, &pdev->request);
 273:Middlewares/ST/STM32_USB_Device_Library/Core/Src/usbd_core.c ****     break;
 274:Middlewares/ST/STM32_USB_Device_Library/Core/Src/usbd_core.c **** 
 275:Middlewares/ST/STM32_USB_Device_Library/Core/Src/usbd_core.c ****   case USB_REQ_RECIPIENT_INTERFACE:
 276:Middlewares/ST/STM32_USB_Device_Library/Core/Src/usbd_core.c ****     USBD_StdItfReq(pdev, &pdev->request);
 277:Middlewares/ST/STM32_USB_Device_Library/Core/Src/usbd_core.c ****     break;
 278:Middlewares/ST/STM32_USB_Device_Library/Core/Src/usbd_core.c **** 
 279:Middlewares/ST/STM32_USB_Device_Library/Core/Src/usbd_core.c ****   case USB_REQ_RECIPIENT_ENDPOINT:
 280:Middlewares/ST/STM32_USB_Device_Library/Core/Src/usbd_core.c ****     USBD_StdEPReq(pdev, &pdev->request);
 281:Middlewares/ST/STM32_USB_Device_Library/Core/Src/usbd_core.c ****     break;
 282:Middlewares/ST/STM32_USB_Device_Library/Core/Src/usbd_core.c **** 
 283:Middlewares/ST/STM32_USB_Device_Library/Core/Src/usbd_core.c ****   default:
 284:Middlewares/ST/STM32_USB_Device_Library/Core/Src/usbd_core.c ****     USBD_LL_StallEP(pdev, (pdev->request.bmRequest & 0x80U));
 372              		.loc 1 284 0
 373 002e 01F08001 		and	r1, r1, #128
 374 0032 2046     		mov	r0, r4
 375 0034 FFF7FEFF 		bl	USBD_LL_StallEP
 376              	.LVL33:
 285:Middlewares/ST/STM32_USB_Device_Library/Core/Src/usbd_core.c ****     break;
 377              		.loc 1 285 0
 378 0038 03E0     		b	.L33
 379              	.L31:
 272:Middlewares/ST/STM32_USB_Device_Library/Core/Src/usbd_core.c ****     break;
 380              		.loc 1 272 0
 381 003a 2946     		mov	r1, r5
 382 003c 2046     		mov	r0, r4
 383 003e FFF7FEFF 		bl	USBD_StdDevReq
 384              	.LVL34:
 385              	.L33:
 286:Middlewares/ST/STM32_USB_Device_Library/Core/Src/usbd_core.c ****   }
 287:Middlewares/ST/STM32_USB_Device_Library/Core/Src/usbd_core.c **** 
 288:Middlewares/ST/STM32_USB_Device_Library/Core/Src/usbd_core.c ****   return USBD_OK;
 289:Middlewares/ST/STM32_USB_Device_Library/Core/Src/usbd_core.c **** }
 386              		.loc 1 289 0
 387 0042 0020     		movs	r0, #0
 388 0044 38BD     		pop	{r3, r4, r5, pc}
 389              	.LVL35:
 390              	.L30:
 276:Middlewares/ST/STM32_USB_Device_Library/Core/Src/usbd_core.c ****     break;
 391              		.loc 1 276 0
 392 0046 2946     		mov	r1, r5
 393 0048 2046     		mov	r0, r4
 394 004a FFF7FEFF 		bl	USBD_StdItfReq
 395              	.LVL36:
 277:Middlewares/ST/STM32_USB_Device_Library/Core/Src/usbd_core.c **** 
 396              		.loc 1 277 0
 397 004e F8E7     		b	.L33
 398              	.L32:
 280:Middlewares/ST/STM32_USB_Device_Library/Core/Src/usbd_core.c ****     break;
 399              		.loc 1 280 0
 400 0050 2946     		mov	r1, r5
 401 0052 2046     		mov	r0, r4
 402 0054 FFF7FEFF 		bl	USBD_StdEPReq
 403              	.LVL37:
 281:Middlewares/ST/STM32_USB_Device_Library/Core/Src/usbd_core.c **** 
 404              		.loc 1 281 0
ARM GAS  /tmp/cc9MbIlP.s 			page 13


 405 0058 F3E7     		b	.L33
 406              		.cfi_endproc
 407              	.LFE141:
 409              		.section	.text.USBD_LL_DataOutStage,"ax",%progbits
 410              		.align	1
 411              		.global	USBD_LL_DataOutStage
 412              		.syntax unified
 413              		.thumb
 414              		.thumb_func
 415              		.fpu fpv4-sp-d16
 417              	USBD_LL_DataOutStage:
 418              	.LFB142:
 290:Middlewares/ST/STM32_USB_Device_Library/Core/Src/usbd_core.c **** 
 291:Middlewares/ST/STM32_USB_Device_Library/Core/Src/usbd_core.c **** /**
 292:Middlewares/ST/STM32_USB_Device_Library/Core/Src/usbd_core.c **** * @brief  USBD_DataOutStage
 293:Middlewares/ST/STM32_USB_Device_Library/Core/Src/usbd_core.c **** *         Handle data OUT stage
 294:Middlewares/ST/STM32_USB_Device_Library/Core/Src/usbd_core.c **** * @param  pdev: device instance
 295:Middlewares/ST/STM32_USB_Device_Library/Core/Src/usbd_core.c **** * @param  epnum: endpoint index
 296:Middlewares/ST/STM32_USB_Device_Library/Core/Src/usbd_core.c **** * @retval status
 297:Middlewares/ST/STM32_USB_Device_Library/Core/Src/usbd_core.c **** */
 298:Middlewares/ST/STM32_USB_Device_Library/Core/Src/usbd_core.c **** USBD_StatusTypeDef USBD_LL_DataOutStage(USBD_HandleTypeDef *pdev,
 299:Middlewares/ST/STM32_USB_Device_Library/Core/Src/usbd_core.c ****                                         uint8_t epnum, uint8_t *pdata)
 300:Middlewares/ST/STM32_USB_Device_Library/Core/Src/usbd_core.c **** {
 419              		.loc 1 300 0
 420              		.cfi_startproc
 421              		@ args = 0, pretend = 0, frame = 0
 422              		@ frame_needed = 0, uses_anonymous_args = 0
 423              	.LVL38:
 424 0000 38B5     		push	{r3, r4, r5, lr}
 425              	.LCFI8:
 426              		.cfi_def_cfa_offset 16
 427              		.cfi_offset 3, -16
 428              		.cfi_offset 4, -12
 429              		.cfi_offset 5, -8
 430              		.cfi_offset 14, -4
 431 0002 0446     		mov	r4, r0
 301:Middlewares/ST/STM32_USB_Device_Library/Core/Src/usbd_core.c ****   USBD_EndpointTypeDef    *pep;
 302:Middlewares/ST/STM32_USB_Device_Library/Core/Src/usbd_core.c **** 
 303:Middlewares/ST/STM32_USB_Device_Library/Core/Src/usbd_core.c ****   if(epnum == 0U)
 432              		.loc 1 303 0
 433 0004 A1BB     		cbnz	r1, .L37
 434 0006 1046     		mov	r0, r2
 435              	.LVL39:
 304:Middlewares/ST/STM32_USB_Device_Library/Core/Src/usbd_core.c ****   {
 305:Middlewares/ST/STM32_USB_Device_Library/Core/Src/usbd_core.c ****     pep = &pdev->ep_out[0];
 306:Middlewares/ST/STM32_USB_Device_Library/Core/Src/usbd_core.c **** 
 307:Middlewares/ST/STM32_USB_Device_Library/Core/Src/usbd_core.c ****     if ( pdev->ep0_state == USBD_EP0_DATA_OUT)
 436              		.loc 1 307 0
 437 0008 D4F86C32 		ldr	r3, [r4, #620]
 438 000c 032B     		cmp	r3, #3
 439 000e 03D0     		beq	.L48
 308:Middlewares/ST/STM32_USB_Device_Library/Core/Src/usbd_core.c ****     {
 309:Middlewares/ST/STM32_USB_Device_Library/Core/Src/usbd_core.c ****       if(pep->rem_length > pep->maxpacket)
 310:Middlewares/ST/STM32_USB_Device_Library/Core/Src/usbd_core.c ****       {
 311:Middlewares/ST/STM32_USB_Device_Library/Core/Src/usbd_core.c ****         pep->rem_length -=  pep->maxpacket;
 312:Middlewares/ST/STM32_USB_Device_Library/Core/Src/usbd_core.c **** 
 313:Middlewares/ST/STM32_USB_Device_Library/Core/Src/usbd_core.c ****         USBD_CtlContinueRx (pdev,
ARM GAS  /tmp/cc9MbIlP.s 			page 14


 314:Middlewares/ST/STM32_USB_Device_Library/Core/Src/usbd_core.c ****                             pdata,
 315:Middlewares/ST/STM32_USB_Device_Library/Core/Src/usbd_core.c ****                             (uint16_t)MIN(pep->rem_length, pep->maxpacket));
 316:Middlewares/ST/STM32_USB_Device_Library/Core/Src/usbd_core.c ****       }
 317:Middlewares/ST/STM32_USB_Device_Library/Core/Src/usbd_core.c ****       else
 318:Middlewares/ST/STM32_USB_Device_Library/Core/Src/usbd_core.c ****       {
 319:Middlewares/ST/STM32_USB_Device_Library/Core/Src/usbd_core.c ****         if((pdev->pClass->EP0_RxReady != NULL)&&
 320:Middlewares/ST/STM32_USB_Device_Library/Core/Src/usbd_core.c ****            (pdev->dev_state == USBD_STATE_CONFIGURED))
 321:Middlewares/ST/STM32_USB_Device_Library/Core/Src/usbd_core.c ****         {
 322:Middlewares/ST/STM32_USB_Device_Library/Core/Src/usbd_core.c ****           pdev->pClass->EP0_RxReady(pdev);
 323:Middlewares/ST/STM32_USB_Device_Library/Core/Src/usbd_core.c ****         }
 324:Middlewares/ST/STM32_USB_Device_Library/Core/Src/usbd_core.c ****         USBD_CtlSendStatus(pdev);
 325:Middlewares/ST/STM32_USB_Device_Library/Core/Src/usbd_core.c ****       }
 326:Middlewares/ST/STM32_USB_Device_Library/Core/Src/usbd_core.c ****     }
 327:Middlewares/ST/STM32_USB_Device_Library/Core/Src/usbd_core.c ****     else
 328:Middlewares/ST/STM32_USB_Device_Library/Core/Src/usbd_core.c ****     {
 329:Middlewares/ST/STM32_USB_Device_Library/Core/Src/usbd_core.c ****       if (pdev->ep0_state == USBD_EP0_STATUS_OUT)
 440              		.loc 1 329 0
 441 0010 052B     		cmp	r3, #5
 442 0012 24D0     		beq	.L49
 330:Middlewares/ST/STM32_USB_Device_Library/Core/Src/usbd_core.c ****       {
 331:Middlewares/ST/STM32_USB_Device_Library/Core/Src/usbd_core.c ****         /*
 332:Middlewares/ST/STM32_USB_Device_Library/Core/Src/usbd_core.c ****          * STATUS PHASE completed, update ep0_state to idle
 333:Middlewares/ST/STM32_USB_Device_Library/Core/Src/usbd_core.c ****          */
 334:Middlewares/ST/STM32_USB_Device_Library/Core/Src/usbd_core.c ****         pdev->ep0_state = USBD_EP0_IDLE;
 335:Middlewares/ST/STM32_USB_Device_Library/Core/Src/usbd_core.c ****         USBD_LL_StallEP(pdev, 0U);
 336:Middlewares/ST/STM32_USB_Device_Library/Core/Src/usbd_core.c ****       }
 337:Middlewares/ST/STM32_USB_Device_Library/Core/Src/usbd_core.c ****     }
 338:Middlewares/ST/STM32_USB_Device_Library/Core/Src/usbd_core.c ****   }
 339:Middlewares/ST/STM32_USB_Device_Library/Core/Src/usbd_core.c ****   else if((pdev->pClass->DataOut != NULL) &&
 340:Middlewares/ST/STM32_USB_Device_Library/Core/Src/usbd_core.c ****           (pdev->dev_state == USBD_STATE_CONFIGURED))
 341:Middlewares/ST/STM32_USB_Device_Library/Core/Src/usbd_core.c ****   {
 342:Middlewares/ST/STM32_USB_Device_Library/Core/Src/usbd_core.c ****     pdev->pClass->DataOut(pdev, epnum);
 343:Middlewares/ST/STM32_USB_Device_Library/Core/Src/usbd_core.c ****   }
 344:Middlewares/ST/STM32_USB_Device_Library/Core/Src/usbd_core.c ****   else
 345:Middlewares/ST/STM32_USB_Device_Library/Core/Src/usbd_core.c ****   {
 346:Middlewares/ST/STM32_USB_Device_Library/Core/Src/usbd_core.c ****     /* should never be in this condition */
 347:Middlewares/ST/STM32_USB_Device_Library/Core/Src/usbd_core.c ****     return USBD_FAIL;
 348:Middlewares/ST/STM32_USB_Device_Library/Core/Src/usbd_core.c ****   }
 349:Middlewares/ST/STM32_USB_Device_Library/Core/Src/usbd_core.c **** 
 350:Middlewares/ST/STM32_USB_Device_Library/Core/Src/usbd_core.c ****   return USBD_OK;
 443              		.loc 1 350 0
 444 0014 0020     		movs	r0, #0
 445 0016 37E0     		b	.L42
 446              	.LVL40:
 447              	.L48:
 309:Middlewares/ST/STM32_USB_Device_Library/Core/Src/usbd_core.c ****       {
 448              		.loc 1 309 0
 449 0018 D4F84C31 		ldr	r3, [r4, #332]
 450 001c D4F85021 		ldr	r2, [r4, #336]
 451 0020 9342     		cmp	r3, r2
 452 0022 0DD9     		bls	.L39
 311:Middlewares/ST/STM32_USB_Device_Library/Core/Src/usbd_core.c **** 
 453              		.loc 1 311 0
 454 0024 9B1A     		subs	r3, r3, r2
 455 0026 C4F84C31 		str	r3, [r4, #332]
 313:Middlewares/ST/STM32_USB_Device_Library/Core/Src/usbd_core.c ****                             pdata,
 456              		.loc 1 313 0
ARM GAS  /tmp/cc9MbIlP.s 			page 15


 457 002a 9A42     		cmp	r2, r3
 458 002c 06D9     		bls	.L40
 313:Middlewares/ST/STM32_USB_Device_Library/Core/Src/usbd_core.c ****                             pdata,
 459              		.loc 1 313 0 is_stmt 0 discriminator 1
 460 002e 9AB2     		uxth	r2, r3
 461              	.L41:
 313:Middlewares/ST/STM32_USB_Device_Library/Core/Src/usbd_core.c ****                             pdata,
 462              		.loc 1 313 0 discriminator 4
 463 0030 0146     		mov	r1, r0
 464              	.LVL41:
 465 0032 2046     		mov	r0, r4
 466              	.LVL42:
 467 0034 FFF7FEFF 		bl	USBD_CtlContinueRx
 468              	.LVL43:
 469              		.loc 1 350 0 is_stmt 1 discriminator 4
 470 0038 0020     		movs	r0, #0
 471 003a 25E0     		b	.L42
 472              	.LVL44:
 473              	.L40:
 313:Middlewares/ST/STM32_USB_Device_Library/Core/Src/usbd_core.c ****                             pdata,
 474              		.loc 1 313 0 discriminator 2
 475 003c 92B2     		uxth	r2, r2
 476 003e F7E7     		b	.L41
 477              	.L39:
 319:Middlewares/ST/STM32_USB_Device_Library/Core/Src/usbd_core.c ****            (pdev->dev_state == USBD_STATE_CONFIGURED))
 478              		.loc 1 319 0
 479 0040 D4F88C32 		ldr	r3, [r4, #652]
 480 0044 1B69     		ldr	r3, [r3, #16]
 481 0046 2BB1     		cbz	r3, .L43
 320:Middlewares/ST/STM32_USB_Device_Library/Core/Src/usbd_core.c ****         {
 482              		.loc 1 320 0 discriminator 1
 483 0048 94F87422 		ldrb	r2, [r4, #628]	@ zero_extendqisi2
 319:Middlewares/ST/STM32_USB_Device_Library/Core/Src/usbd_core.c ****            (pdev->dev_state == USBD_STATE_CONFIGURED))
 484              		.loc 1 319 0 discriminator 1
 485 004c 032A     		cmp	r2, #3
 486 004e 01D1     		bne	.L43
 322:Middlewares/ST/STM32_USB_Device_Library/Core/Src/usbd_core.c ****         }
 487              		.loc 1 322 0
 488 0050 2046     		mov	r0, r4
 489              	.LVL45:
 490 0052 9847     		blx	r3
 491              	.LVL46:
 492              	.L43:
 324:Middlewares/ST/STM32_USB_Device_Library/Core/Src/usbd_core.c ****       }
 493              		.loc 1 324 0
 494 0054 2046     		mov	r0, r4
 495 0056 FFF7FEFF 		bl	USBD_CtlSendStatus
 496              	.LVL47:
 497              		.loc 1 350 0
 498 005a 0020     		movs	r0, #0
 499 005c 14E0     		b	.L42
 500              	.LVL48:
 501              	.L49:
 334:Middlewares/ST/STM32_USB_Device_Library/Core/Src/usbd_core.c ****         USBD_LL_StallEP(pdev, 0U);
 502              		.loc 1 334 0
 503 005e 0025     		movs	r5, #0
 504 0060 C4F86C52 		str	r5, [r4, #620]
ARM GAS  /tmp/cc9MbIlP.s 			page 16


 335:Middlewares/ST/STM32_USB_Device_Library/Core/Src/usbd_core.c ****       }
 505              		.loc 1 335 0
 506 0064 2946     		mov	r1, r5
 507              	.LVL49:
 508 0066 2046     		mov	r0, r4
 509              	.LVL50:
 510 0068 FFF7FEFF 		bl	USBD_LL_StallEP
 511              	.LVL51:
 512              		.loc 1 350 0
 513 006c 2846     		mov	r0, r5
 514 006e 0BE0     		b	.L42
 515              	.LVL52:
 516              	.L37:
 517 0070 0A46     		mov	r2, r1
 518              	.LVL53:
 339:Middlewares/ST/STM32_USB_Device_Library/Core/Src/usbd_core.c ****           (pdev->dev_state == USBD_STATE_CONFIGURED))
 519              		.loc 1 339 0
 520 0072 D0F88C32 		ldr	r3, [r0, #652]
 521 0076 9B69     		ldr	r3, [r3, #24]
 522 0078 3BB1     		cbz	r3, .L45
 340:Middlewares/ST/STM32_USB_Device_Library/Core/Src/usbd_core.c ****   {
 523              		.loc 1 340 0 discriminator 1
 524 007a 90F87412 		ldrb	r1, [r0, #628]	@ zero_extendqisi2
 525              	.LVL54:
 339:Middlewares/ST/STM32_USB_Device_Library/Core/Src/usbd_core.c ****           (pdev->dev_state == USBD_STATE_CONFIGURED))
 526              		.loc 1 339 0 discriminator 1
 527 007e 0329     		cmp	r1, #3
 528 0080 05D1     		bne	.L46
 342:Middlewares/ST/STM32_USB_Device_Library/Core/Src/usbd_core.c ****   }
 529              		.loc 1 342 0
 530 0082 1146     		mov	r1, r2
 531 0084 9847     		blx	r3
 532              	.LVL55:
 533              		.loc 1 350 0
 534 0086 0020     		movs	r0, #0
 535              	.L42:
 351:Middlewares/ST/STM32_USB_Device_Library/Core/Src/usbd_core.c **** }
 536              		.loc 1 351 0
 537 0088 38BD     		pop	{r3, r4, r5, pc}
 538              	.LVL56:
 539              	.L45:
 347:Middlewares/ST/STM32_USB_Device_Library/Core/Src/usbd_core.c ****   }
 540              		.loc 1 347 0
 541 008a 0220     		movs	r0, #2
 542              	.LVL57:
 543 008c FCE7     		b	.L42
 544              	.LVL58:
 545              	.L46:
 546 008e 0220     		movs	r0, #2
 547              	.LVL59:
 548 0090 FAE7     		b	.L42
 549              		.cfi_endproc
 550              	.LFE142:
 552              		.section	.text.USBD_LL_DataInStage,"ax",%progbits
 553              		.align	1
 554              		.global	USBD_LL_DataInStage
 555              		.syntax unified
ARM GAS  /tmp/cc9MbIlP.s 			page 17


 556              		.thumb
 557              		.thumb_func
 558              		.fpu fpv4-sp-d16
 560              	USBD_LL_DataInStage:
 561              	.LFB143:
 352:Middlewares/ST/STM32_USB_Device_Library/Core/Src/usbd_core.c **** 
 353:Middlewares/ST/STM32_USB_Device_Library/Core/Src/usbd_core.c **** /**
 354:Middlewares/ST/STM32_USB_Device_Library/Core/Src/usbd_core.c **** * @brief  USBD_DataInStage
 355:Middlewares/ST/STM32_USB_Device_Library/Core/Src/usbd_core.c **** *         Handle data in stage
 356:Middlewares/ST/STM32_USB_Device_Library/Core/Src/usbd_core.c **** * @param  pdev: device instance
 357:Middlewares/ST/STM32_USB_Device_Library/Core/Src/usbd_core.c **** * @param  epnum: endpoint index
 358:Middlewares/ST/STM32_USB_Device_Library/Core/Src/usbd_core.c **** * @retval status
 359:Middlewares/ST/STM32_USB_Device_Library/Core/Src/usbd_core.c **** */
 360:Middlewares/ST/STM32_USB_Device_Library/Core/Src/usbd_core.c **** USBD_StatusTypeDef USBD_LL_DataInStage(USBD_HandleTypeDef *pdev, uint8_t epnum,
 361:Middlewares/ST/STM32_USB_Device_Library/Core/Src/usbd_core.c ****                                        uint8_t *pdata)
 362:Middlewares/ST/STM32_USB_Device_Library/Core/Src/usbd_core.c **** {
 562              		.loc 1 362 0
 563              		.cfi_startproc
 564              		@ args = 0, pretend = 0, frame = 0
 565              		@ frame_needed = 0, uses_anonymous_args = 0
 566              	.LVL60:
 567 0000 10B5     		push	{r4, lr}
 568              	.LCFI9:
 569              		.cfi_def_cfa_offset 8
 570              		.cfi_offset 4, -8
 571              		.cfi_offset 14, -4
 572 0002 0446     		mov	r4, r0
 363:Middlewares/ST/STM32_USB_Device_Library/Core/Src/usbd_core.c ****   USBD_EndpointTypeDef *pep;
 364:Middlewares/ST/STM32_USB_Device_Library/Core/Src/usbd_core.c **** 
 365:Middlewares/ST/STM32_USB_Device_Library/Core/Src/usbd_core.c ****   if(epnum == 0U)
 573              		.loc 1 365 0
 574 0004 0029     		cmp	r1, #0
 575 0006 53D1     		bne	.L51
 576 0008 1046     		mov	r0, r2
 577              	.LVL61:
 366:Middlewares/ST/STM32_USB_Device_Library/Core/Src/usbd_core.c ****   {
 367:Middlewares/ST/STM32_USB_Device_Library/Core/Src/usbd_core.c ****     pep = &pdev->ep_in[0];
 368:Middlewares/ST/STM32_USB_Device_Library/Core/Src/usbd_core.c **** 
 369:Middlewares/ST/STM32_USB_Device_Library/Core/Src/usbd_core.c ****     if ( pdev->ep0_state == USBD_EP0_DATA_IN)
 578              		.loc 1 369 0
 579 000a D4F86C32 		ldr	r3, [r4, #620]
 580 000e 022B     		cmp	r3, #2
 581 0010 0CD0     		beq	.L63
 370:Middlewares/ST/STM32_USB_Device_Library/Core/Src/usbd_core.c ****     {
 371:Middlewares/ST/STM32_USB_Device_Library/Core/Src/usbd_core.c ****       if(pep->rem_length > pep->maxpacket)
 372:Middlewares/ST/STM32_USB_Device_Library/Core/Src/usbd_core.c ****       {
 373:Middlewares/ST/STM32_USB_Device_Library/Core/Src/usbd_core.c ****         pep->rem_length -= pep->maxpacket;
 374:Middlewares/ST/STM32_USB_Device_Library/Core/Src/usbd_core.c **** 
 375:Middlewares/ST/STM32_USB_Device_Library/Core/Src/usbd_core.c ****         USBD_CtlContinueSendData (pdev, pdata, (uint16_t)pep->rem_length);
 376:Middlewares/ST/STM32_USB_Device_Library/Core/Src/usbd_core.c **** 
 377:Middlewares/ST/STM32_USB_Device_Library/Core/Src/usbd_core.c ****         /* Prepare endpoint for premature end of transfer */
 378:Middlewares/ST/STM32_USB_Device_Library/Core/Src/usbd_core.c ****         USBD_LL_PrepareReceive (pdev, 0U, NULL, 0U);
 379:Middlewares/ST/STM32_USB_Device_Library/Core/Src/usbd_core.c ****       }
 380:Middlewares/ST/STM32_USB_Device_Library/Core/Src/usbd_core.c ****       else
 381:Middlewares/ST/STM32_USB_Device_Library/Core/Src/usbd_core.c ****       { /* last packet is MPS multiple, so send ZLP packet */
 382:Middlewares/ST/STM32_USB_Device_Library/Core/Src/usbd_core.c ****         if((pep->total_length % pep->maxpacket == 0U) &&
 383:Middlewares/ST/STM32_USB_Device_Library/Core/Src/usbd_core.c ****            (pep->total_length >= pep->maxpacket) &&
ARM GAS  /tmp/cc9MbIlP.s 			page 18


 384:Middlewares/ST/STM32_USB_Device_Library/Core/Src/usbd_core.c ****            (pep->total_length < pdev->ep0_data_len))
 385:Middlewares/ST/STM32_USB_Device_Library/Core/Src/usbd_core.c ****         {
 386:Middlewares/ST/STM32_USB_Device_Library/Core/Src/usbd_core.c ****           USBD_CtlContinueSendData(pdev, NULL, 0U);
 387:Middlewares/ST/STM32_USB_Device_Library/Core/Src/usbd_core.c ****           pdev->ep0_data_len = 0U;
 388:Middlewares/ST/STM32_USB_Device_Library/Core/Src/usbd_core.c **** 
 389:Middlewares/ST/STM32_USB_Device_Library/Core/Src/usbd_core.c ****           /* Prepare endpoint for premature end of transfer */
 390:Middlewares/ST/STM32_USB_Device_Library/Core/Src/usbd_core.c ****           USBD_LL_PrepareReceive (pdev, 0U, NULL, 0U);
 391:Middlewares/ST/STM32_USB_Device_Library/Core/Src/usbd_core.c ****         }
 392:Middlewares/ST/STM32_USB_Device_Library/Core/Src/usbd_core.c ****         else
 393:Middlewares/ST/STM32_USB_Device_Library/Core/Src/usbd_core.c ****         {
 394:Middlewares/ST/STM32_USB_Device_Library/Core/Src/usbd_core.c ****           if((pdev->pClass->EP0_TxSent != NULL)&&
 395:Middlewares/ST/STM32_USB_Device_Library/Core/Src/usbd_core.c ****              (pdev->dev_state == USBD_STATE_CONFIGURED))
 396:Middlewares/ST/STM32_USB_Device_Library/Core/Src/usbd_core.c ****           {
 397:Middlewares/ST/STM32_USB_Device_Library/Core/Src/usbd_core.c ****             pdev->pClass->EP0_TxSent(pdev);
 398:Middlewares/ST/STM32_USB_Device_Library/Core/Src/usbd_core.c ****           }
 399:Middlewares/ST/STM32_USB_Device_Library/Core/Src/usbd_core.c ****           USBD_LL_StallEP(pdev, 0x80U);
 400:Middlewares/ST/STM32_USB_Device_Library/Core/Src/usbd_core.c ****           USBD_CtlReceiveStatus(pdev);
 401:Middlewares/ST/STM32_USB_Device_Library/Core/Src/usbd_core.c ****         }
 402:Middlewares/ST/STM32_USB_Device_Library/Core/Src/usbd_core.c ****       }
 403:Middlewares/ST/STM32_USB_Device_Library/Core/Src/usbd_core.c ****     }
 404:Middlewares/ST/STM32_USB_Device_Library/Core/Src/usbd_core.c ****     else
 405:Middlewares/ST/STM32_USB_Device_Library/Core/Src/usbd_core.c ****     {
 406:Middlewares/ST/STM32_USB_Device_Library/Core/Src/usbd_core.c ****       if ((pdev->ep0_state == USBD_EP0_STATUS_IN) ||
 582              		.loc 1 406 0
 583 0012 042B     		cmp	r3, #4
 584 0014 00D0     		beq	.L57
 585              		.loc 1 406 0 is_stmt 0 discriminator 1
 586 0016 1BB9     		cbnz	r3, .L54
 587              	.L57:
 407:Middlewares/ST/STM32_USB_Device_Library/Core/Src/usbd_core.c ****           (pdev->ep0_state == USBD_EP0_IDLE))
 408:Middlewares/ST/STM32_USB_Device_Library/Core/Src/usbd_core.c ****       {
 409:Middlewares/ST/STM32_USB_Device_Library/Core/Src/usbd_core.c ****         USBD_LL_StallEP(pdev, 0x80U);
 588              		.loc 1 409 0 is_stmt 1
 589 0018 8021     		movs	r1, #128
 590              	.LVL62:
 591 001a 2046     		mov	r0, r4
 592 001c FFF7FEFF 		bl	USBD_LL_StallEP
 593              	.LVL63:
 594              	.L54:
 410:Middlewares/ST/STM32_USB_Device_Library/Core/Src/usbd_core.c ****       }
 411:Middlewares/ST/STM32_USB_Device_Library/Core/Src/usbd_core.c ****     }
 412:Middlewares/ST/STM32_USB_Device_Library/Core/Src/usbd_core.c **** 
 413:Middlewares/ST/STM32_USB_Device_Library/Core/Src/usbd_core.c ****     if (pdev->dev_test_mode == 1U)
 595              		.loc 1 413 0
 596 0020 94F87832 		ldrb	r3, [r4, #632]	@ zero_extendqisi2
 597 0024 012B     		cmp	r3, #1
 598 0026 3FD0     		beq	.L64
 414:Middlewares/ST/STM32_USB_Device_Library/Core/Src/usbd_core.c ****     {
 415:Middlewares/ST/STM32_USB_Device_Library/Core/Src/usbd_core.c ****       USBD_RunTestMode(pdev);
 416:Middlewares/ST/STM32_USB_Device_Library/Core/Src/usbd_core.c ****       pdev->dev_test_mode = 0U;
 417:Middlewares/ST/STM32_USB_Device_Library/Core/Src/usbd_core.c ****     }
 418:Middlewares/ST/STM32_USB_Device_Library/Core/Src/usbd_core.c ****   }
 419:Middlewares/ST/STM32_USB_Device_Library/Core/Src/usbd_core.c ****   else if((pdev->pClass->DataIn != NULL) &&
 420:Middlewares/ST/STM32_USB_Device_Library/Core/Src/usbd_core.c ****           (pdev->dev_state == USBD_STATE_CONFIGURED))
 421:Middlewares/ST/STM32_USB_Device_Library/Core/Src/usbd_core.c ****   {
 422:Middlewares/ST/STM32_USB_Device_Library/Core/Src/usbd_core.c ****     pdev->pClass->DataIn(pdev, epnum);
 423:Middlewares/ST/STM32_USB_Device_Library/Core/Src/usbd_core.c ****   }
ARM GAS  /tmp/cc9MbIlP.s 			page 19


 424:Middlewares/ST/STM32_USB_Device_Library/Core/Src/usbd_core.c ****   else
 425:Middlewares/ST/STM32_USB_Device_Library/Core/Src/usbd_core.c ****   {
 426:Middlewares/ST/STM32_USB_Device_Library/Core/Src/usbd_core.c ****     /* should never be in this condition */
 427:Middlewares/ST/STM32_USB_Device_Library/Core/Src/usbd_core.c ****     return USBD_FAIL;
 428:Middlewares/ST/STM32_USB_Device_Library/Core/Src/usbd_core.c ****   }
 429:Middlewares/ST/STM32_USB_Device_Library/Core/Src/usbd_core.c **** 
 430:Middlewares/ST/STM32_USB_Device_Library/Core/Src/usbd_core.c ****   return USBD_OK;
 599              		.loc 1 430 0
 600 0028 0020     		movs	r0, #0
 601 002a 4DE0     		b	.L58
 602              	.LVL64:
 603              	.L63:
 371:Middlewares/ST/STM32_USB_Device_Library/Core/Src/usbd_core.c ****       {
 604              		.loc 1 371 0
 605 002c 236A     		ldr	r3, [r4, #32]
 606 002e 626A     		ldr	r2, [r4, #36]
 607 0030 9342     		cmp	r3, r2
 608 0032 1DD8     		bhi	.L65
 382:Middlewares/ST/STM32_USB_Device_Library/Core/Src/usbd_core.c ****            (pep->total_length >= pep->maxpacket) &&
 609              		.loc 1 382 0
 610 0034 E169     		ldr	r1, [r4, #28]
 611              	.LVL65:
 612 0036 B1FBF2F3 		udiv	r3, r1, r2
 613 003a 02FB1313 		mls	r3, r2, r3, r1
 614 003e 2BB9     		cbnz	r3, .L55
 382:Middlewares/ST/STM32_USB_Device_Library/Core/Src/usbd_core.c ****            (pep->total_length >= pep->maxpacket) &&
 615              		.loc 1 382 0 is_stmt 0 discriminator 1
 616 0040 8A42     		cmp	r2, r1
 617 0042 03D8     		bhi	.L55
 384:Middlewares/ST/STM32_USB_Device_Library/Core/Src/usbd_core.c ****         {
 618              		.loc 1 384 0 is_stmt 1
 619 0044 D4F87032 		ldr	r3, [r4, #624]
 383:Middlewares/ST/STM32_USB_Device_Library/Core/Src/usbd_core.c ****            (pep->total_length < pdev->ep0_data_len))
 620              		.loc 1 383 0
 621 0048 9942     		cmp	r1, r3
 622 004a 1FD3     		bcc	.L66
 623              	.L55:
 394:Middlewares/ST/STM32_USB_Device_Library/Core/Src/usbd_core.c ****              (pdev->dev_state == USBD_STATE_CONFIGURED))
 624              		.loc 1 394 0
 625 004c D4F88C32 		ldr	r3, [r4, #652]
 626 0050 DB68     		ldr	r3, [r3, #12]
 627 0052 2BB1     		cbz	r3, .L56
 395:Middlewares/ST/STM32_USB_Device_Library/Core/Src/usbd_core.c ****           {
 628              		.loc 1 395 0 discriminator 1
 629 0054 94F87422 		ldrb	r2, [r4, #628]	@ zero_extendqisi2
 394:Middlewares/ST/STM32_USB_Device_Library/Core/Src/usbd_core.c ****              (pdev->dev_state == USBD_STATE_CONFIGURED))
 630              		.loc 1 394 0 discriminator 1
 631 0058 032A     		cmp	r2, #3
 632 005a 01D1     		bne	.L56
 397:Middlewares/ST/STM32_USB_Device_Library/Core/Src/usbd_core.c ****           }
 633              		.loc 1 397 0
 634 005c 2046     		mov	r0, r4
 635              	.LVL66:
 636 005e 9847     		blx	r3
 637              	.LVL67:
 638              	.L56:
 399:Middlewares/ST/STM32_USB_Device_Library/Core/Src/usbd_core.c ****           USBD_CtlReceiveStatus(pdev);
ARM GAS  /tmp/cc9MbIlP.s 			page 20


 639              		.loc 1 399 0
 640 0060 8021     		movs	r1, #128
 641 0062 2046     		mov	r0, r4
 642 0064 FFF7FEFF 		bl	USBD_LL_StallEP
 643              	.LVL68:
 400:Middlewares/ST/STM32_USB_Device_Library/Core/Src/usbd_core.c ****         }
 644              		.loc 1 400 0
 645 0068 2046     		mov	r0, r4
 646 006a FFF7FEFF 		bl	USBD_CtlReceiveStatus
 647              	.LVL69:
 648 006e D7E7     		b	.L54
 649              	.LVL70:
 650              	.L65:
 373:Middlewares/ST/STM32_USB_Device_Library/Core/Src/usbd_core.c **** 
 651              		.loc 1 373 0
 652 0070 9A1A     		subs	r2, r3, r2
 653 0072 2262     		str	r2, [r4, #32]
 375:Middlewares/ST/STM32_USB_Device_Library/Core/Src/usbd_core.c **** 
 654              		.loc 1 375 0
 655 0074 92B2     		uxth	r2, r2
 656 0076 0146     		mov	r1, r0
 657              	.LVL71:
 658 0078 2046     		mov	r0, r4
 659              	.LVL72:
 660 007a FFF7FEFF 		bl	USBD_CtlContinueSendData
 661              	.LVL73:
 378:Middlewares/ST/STM32_USB_Device_Library/Core/Src/usbd_core.c ****       }
 662              		.loc 1 378 0
 663 007e 0023     		movs	r3, #0
 664 0080 1A46     		mov	r2, r3
 665 0082 1946     		mov	r1, r3
 666 0084 2046     		mov	r0, r4
 667 0086 FFF7FEFF 		bl	USBD_LL_PrepareReceive
 668              	.LVL74:
 669 008a C9E7     		b	.L54
 670              	.LVL75:
 671              	.L66:
 386:Middlewares/ST/STM32_USB_Device_Library/Core/Src/usbd_core.c ****           pdev->ep0_data_len = 0U;
 672              		.loc 1 386 0
 673 008c 0022     		movs	r2, #0
 674 008e 1146     		mov	r1, r2
 675 0090 2046     		mov	r0, r4
 676              	.LVL76:
 677 0092 FFF7FEFF 		bl	USBD_CtlContinueSendData
 678              	.LVL77:
 387:Middlewares/ST/STM32_USB_Device_Library/Core/Src/usbd_core.c **** 
 679              		.loc 1 387 0
 680 0096 0021     		movs	r1, #0
 681 0098 C4F87012 		str	r1, [r4, #624]
 390:Middlewares/ST/STM32_USB_Device_Library/Core/Src/usbd_core.c ****         }
 682              		.loc 1 390 0
 683 009c 0B46     		mov	r3, r1
 684 009e 0A46     		mov	r2, r1
 685 00a0 2046     		mov	r0, r4
 686 00a2 FFF7FEFF 		bl	USBD_LL_PrepareReceive
 687              	.LVL78:
 688 00a6 BBE7     		b	.L54
ARM GAS  /tmp/cc9MbIlP.s 			page 21


 689              	.L64:
 416:Middlewares/ST/STM32_USB_Device_Library/Core/Src/usbd_core.c ****     }
 690              		.loc 1 416 0
 691 00a8 0020     		movs	r0, #0
 692 00aa 84F87802 		strb	r0, [r4, #632]
 693 00ae 0BE0     		b	.L58
 694              	.LVL79:
 695              	.L51:
 696 00b0 0A46     		mov	r2, r1
 697              	.LVL80:
 419:Middlewares/ST/STM32_USB_Device_Library/Core/Src/usbd_core.c ****           (pdev->dev_state == USBD_STATE_CONFIGURED))
 698              		.loc 1 419 0
 699 00b2 D0F88C32 		ldr	r3, [r0, #652]
 700 00b6 5B69     		ldr	r3, [r3, #20]
 701 00b8 3BB1     		cbz	r3, .L60
 420:Middlewares/ST/STM32_USB_Device_Library/Core/Src/usbd_core.c ****   {
 702              		.loc 1 420 0 discriminator 1
 703 00ba 90F87412 		ldrb	r1, [r0, #628]	@ zero_extendqisi2
 704              	.LVL81:
 419:Middlewares/ST/STM32_USB_Device_Library/Core/Src/usbd_core.c ****           (pdev->dev_state == USBD_STATE_CONFIGURED))
 705              		.loc 1 419 0 discriminator 1
 706 00be 0329     		cmp	r1, #3
 707 00c0 05D1     		bne	.L61
 422:Middlewares/ST/STM32_USB_Device_Library/Core/Src/usbd_core.c ****   }
 708              		.loc 1 422 0
 709 00c2 1146     		mov	r1, r2
 710 00c4 9847     		blx	r3
 711              	.LVL82:
 712              		.loc 1 430 0
 713 00c6 0020     		movs	r0, #0
 714              	.L58:
 431:Middlewares/ST/STM32_USB_Device_Library/Core/Src/usbd_core.c **** }
 715              		.loc 1 431 0
 716 00c8 10BD     		pop	{r4, pc}
 717              	.LVL83:
 718              	.L60:
 427:Middlewares/ST/STM32_USB_Device_Library/Core/Src/usbd_core.c ****   }
 719              		.loc 1 427 0
 720 00ca 0220     		movs	r0, #2
 721              	.LVL84:
 722 00cc FCE7     		b	.L58
 723              	.LVL85:
 724              	.L61:
 725 00ce 0220     		movs	r0, #2
 726              	.LVL86:
 727 00d0 FAE7     		b	.L58
 728              		.cfi_endproc
 729              	.LFE143:
 731              		.section	.text.USBD_LL_Reset,"ax",%progbits
 732              		.align	1
 733              		.global	USBD_LL_Reset
 734              		.syntax unified
 735              		.thumb
 736              		.thumb_func
 737              		.fpu fpv4-sp-d16
 739              	USBD_LL_Reset:
 740              	.LFB144:
ARM GAS  /tmp/cc9MbIlP.s 			page 22


 432:Middlewares/ST/STM32_USB_Device_Library/Core/Src/usbd_core.c **** 
 433:Middlewares/ST/STM32_USB_Device_Library/Core/Src/usbd_core.c **** /**
 434:Middlewares/ST/STM32_USB_Device_Library/Core/Src/usbd_core.c **** * @brief  USBD_LL_Reset
 435:Middlewares/ST/STM32_USB_Device_Library/Core/Src/usbd_core.c **** *         Handle Reset event
 436:Middlewares/ST/STM32_USB_Device_Library/Core/Src/usbd_core.c **** * @param  pdev: device instance
 437:Middlewares/ST/STM32_USB_Device_Library/Core/Src/usbd_core.c **** * @retval status
 438:Middlewares/ST/STM32_USB_Device_Library/Core/Src/usbd_core.c **** */
 439:Middlewares/ST/STM32_USB_Device_Library/Core/Src/usbd_core.c **** 
 440:Middlewares/ST/STM32_USB_Device_Library/Core/Src/usbd_core.c **** USBD_StatusTypeDef USBD_LL_Reset(USBD_HandleTypeDef  *pdev)
 441:Middlewares/ST/STM32_USB_Device_Library/Core/Src/usbd_core.c **** {
 741              		.loc 1 441 0
 742              		.cfi_startproc
 743              		@ args = 0, pretend = 0, frame = 0
 744              		@ frame_needed = 0, uses_anonymous_args = 0
 745              	.LVL87:
 746 0000 70B5     		push	{r4, r5, r6, lr}
 747              	.LCFI10:
 748              		.cfi_def_cfa_offset 16
 749              		.cfi_offset 4, -16
 750              		.cfi_offset 5, -12
 751              		.cfi_offset 6, -8
 752              		.cfi_offset 14, -4
 753 0002 0446     		mov	r4, r0
 442:Middlewares/ST/STM32_USB_Device_Library/Core/Src/usbd_core.c ****   /* Open EP0 OUT */
 443:Middlewares/ST/STM32_USB_Device_Library/Core/Src/usbd_core.c ****   USBD_LL_OpenEP(pdev, 0x00U, USBD_EP_TYPE_CTRL, USB_MAX_EP0_SIZE);
 754              		.loc 1 443 0
 755 0004 4023     		movs	r3, #64
 756 0006 0022     		movs	r2, #0
 757 0008 1146     		mov	r1, r2
 758 000a FFF7FEFF 		bl	USBD_LL_OpenEP
 759              	.LVL88:
 444:Middlewares/ST/STM32_USB_Device_Library/Core/Src/usbd_core.c ****   pdev->ep_out[0x00U & 0xFU].is_used = 1U;
 760              		.loc 1 444 0
 761 000e 0125     		movs	r5, #1
 762 0010 C4F84451 		str	r5, [r4, #324]
 445:Middlewares/ST/STM32_USB_Device_Library/Core/Src/usbd_core.c **** 
 446:Middlewares/ST/STM32_USB_Device_Library/Core/Src/usbd_core.c ****   pdev->ep_out[0].maxpacket = USB_MAX_EP0_SIZE;
 763              		.loc 1 446 0
 764 0014 4026     		movs	r6, #64
 765 0016 C4F85061 		str	r6, [r4, #336]
 447:Middlewares/ST/STM32_USB_Device_Library/Core/Src/usbd_core.c **** 
 448:Middlewares/ST/STM32_USB_Device_Library/Core/Src/usbd_core.c ****   /* Open EP0 IN */
 449:Middlewares/ST/STM32_USB_Device_Library/Core/Src/usbd_core.c ****   USBD_LL_OpenEP(pdev, 0x80U, USBD_EP_TYPE_CTRL, USB_MAX_EP0_SIZE);
 766              		.loc 1 449 0
 767 001a 3346     		mov	r3, r6
 768 001c 0022     		movs	r2, #0
 769 001e 8021     		movs	r1, #128
 770 0020 2046     		mov	r0, r4
 771 0022 FFF7FEFF 		bl	USBD_LL_OpenEP
 772              	.LVL89:
 450:Middlewares/ST/STM32_USB_Device_Library/Core/Src/usbd_core.c ****   pdev->ep_in[0x80U & 0xFU].is_used = 1U;
 773              		.loc 1 450 0
 774 0026 A561     		str	r5, [r4, #24]
 451:Middlewares/ST/STM32_USB_Device_Library/Core/Src/usbd_core.c **** 
 452:Middlewares/ST/STM32_USB_Device_Library/Core/Src/usbd_core.c ****   pdev->ep_in[0].maxpacket = USB_MAX_EP0_SIZE;
 775              		.loc 1 452 0
 776 0028 6662     		str	r6, [r4, #36]
ARM GAS  /tmp/cc9MbIlP.s 			page 23


 453:Middlewares/ST/STM32_USB_Device_Library/Core/Src/usbd_core.c ****   /* Upon Reset call user call back */
 454:Middlewares/ST/STM32_USB_Device_Library/Core/Src/usbd_core.c ****   pdev->dev_state = USBD_STATE_DEFAULT;
 777              		.loc 1 454 0
 778 002a 84F87452 		strb	r5, [r4, #628]
 455:Middlewares/ST/STM32_USB_Device_Library/Core/Src/usbd_core.c ****   pdev->ep0_state = USBD_EP0_IDLE;
 779              		.loc 1 455 0
 780 002e 0023     		movs	r3, #0
 781 0030 C4F86C32 		str	r3, [r4, #620]
 456:Middlewares/ST/STM32_USB_Device_Library/Core/Src/usbd_core.c ****   pdev->dev_config= 0U;
 782              		.loc 1 456 0
 783 0034 6360     		str	r3, [r4, #4]
 457:Middlewares/ST/STM32_USB_Device_Library/Core/Src/usbd_core.c ****   pdev->dev_remote_wakeup = 0U;
 784              		.loc 1 457 0
 785 0036 C4F87C32 		str	r3, [r4, #636]
 458:Middlewares/ST/STM32_USB_Device_Library/Core/Src/usbd_core.c **** 
 459:Middlewares/ST/STM32_USB_Device_Library/Core/Src/usbd_core.c ****   if (pdev->pClassData)
 786              		.loc 1 459 0
 787 003a D4F89032 		ldr	r3, [r4, #656]
 788 003e 2BB1     		cbz	r3, .L68
 460:Middlewares/ST/STM32_USB_Device_Library/Core/Src/usbd_core.c ****   {
 461:Middlewares/ST/STM32_USB_Device_Library/Core/Src/usbd_core.c ****     pdev->pClass->DeInit(pdev, (uint8_t)pdev->dev_config);
 789              		.loc 1 461 0
 790 0040 D4F88C32 		ldr	r3, [r4, #652]
 791 0044 5B68     		ldr	r3, [r3, #4]
 792 0046 0021     		movs	r1, #0
 793 0048 2046     		mov	r0, r4
 794 004a 9847     		blx	r3
 795              	.LVL90:
 796              	.L68:
 462:Middlewares/ST/STM32_USB_Device_Library/Core/Src/usbd_core.c ****   }
 463:Middlewares/ST/STM32_USB_Device_Library/Core/Src/usbd_core.c **** 
 464:Middlewares/ST/STM32_USB_Device_Library/Core/Src/usbd_core.c ****   return USBD_OK;
 465:Middlewares/ST/STM32_USB_Device_Library/Core/Src/usbd_core.c **** }
 797              		.loc 1 465 0
 798 004c 0020     		movs	r0, #0
 799 004e 70BD     		pop	{r4, r5, r6, pc}
 800              		.cfi_endproc
 801              	.LFE144:
 803              		.section	.text.USBD_LL_SetSpeed,"ax",%progbits
 804              		.align	1
 805              		.global	USBD_LL_SetSpeed
 806              		.syntax unified
 807              		.thumb
 808              		.thumb_func
 809              		.fpu fpv4-sp-d16
 811              	USBD_LL_SetSpeed:
 812              	.LFB145:
 466:Middlewares/ST/STM32_USB_Device_Library/Core/Src/usbd_core.c **** 
 467:Middlewares/ST/STM32_USB_Device_Library/Core/Src/usbd_core.c **** /**
 468:Middlewares/ST/STM32_USB_Device_Library/Core/Src/usbd_core.c **** * @brief  USBD_LL_Reset
 469:Middlewares/ST/STM32_USB_Device_Library/Core/Src/usbd_core.c **** *         Handle Reset event
 470:Middlewares/ST/STM32_USB_Device_Library/Core/Src/usbd_core.c **** * @param  pdev: device instance
 471:Middlewares/ST/STM32_USB_Device_Library/Core/Src/usbd_core.c **** * @retval status
 472:Middlewares/ST/STM32_USB_Device_Library/Core/Src/usbd_core.c **** */
 473:Middlewares/ST/STM32_USB_Device_Library/Core/Src/usbd_core.c **** USBD_StatusTypeDef USBD_LL_SetSpeed(USBD_HandleTypeDef  *pdev, USBD_SpeedTypeDef speed)
 474:Middlewares/ST/STM32_USB_Device_Library/Core/Src/usbd_core.c **** {
 813              		.loc 1 474 0
ARM GAS  /tmp/cc9MbIlP.s 			page 24


 814              		.cfi_startproc
 815              		@ args = 0, pretend = 0, frame = 0
 816              		@ frame_needed = 0, uses_anonymous_args = 0
 817              		@ link register save eliminated.
 818              	.LVL91:
 475:Middlewares/ST/STM32_USB_Device_Library/Core/Src/usbd_core.c ****   pdev->dev_speed = speed;
 819              		.loc 1 475 0
 820 0000 0174     		strb	r1, [r0, #16]
 476:Middlewares/ST/STM32_USB_Device_Library/Core/Src/usbd_core.c ****   return USBD_OK;
 477:Middlewares/ST/STM32_USB_Device_Library/Core/Src/usbd_core.c **** }
 821              		.loc 1 477 0
 822 0002 0020     		movs	r0, #0
 823              	.LVL92:
 824 0004 7047     		bx	lr
 825              		.cfi_endproc
 826              	.LFE145:
 828              		.section	.text.USBD_LL_Suspend,"ax",%progbits
 829              		.align	1
 830              		.global	USBD_LL_Suspend
 831              		.syntax unified
 832              		.thumb
 833              		.thumb_func
 834              		.fpu fpv4-sp-d16
 836              	USBD_LL_Suspend:
 837              	.LFB146:
 478:Middlewares/ST/STM32_USB_Device_Library/Core/Src/usbd_core.c **** 
 479:Middlewares/ST/STM32_USB_Device_Library/Core/Src/usbd_core.c **** /**
 480:Middlewares/ST/STM32_USB_Device_Library/Core/Src/usbd_core.c **** * @brief  USBD_Suspend
 481:Middlewares/ST/STM32_USB_Device_Library/Core/Src/usbd_core.c **** *         Handle Suspend event
 482:Middlewares/ST/STM32_USB_Device_Library/Core/Src/usbd_core.c **** * @param  pdev: device instance
 483:Middlewares/ST/STM32_USB_Device_Library/Core/Src/usbd_core.c **** * @retval status
 484:Middlewares/ST/STM32_USB_Device_Library/Core/Src/usbd_core.c **** */
 485:Middlewares/ST/STM32_USB_Device_Library/Core/Src/usbd_core.c **** 
 486:Middlewares/ST/STM32_USB_Device_Library/Core/Src/usbd_core.c **** USBD_StatusTypeDef USBD_LL_Suspend(USBD_HandleTypeDef  *pdev)
 487:Middlewares/ST/STM32_USB_Device_Library/Core/Src/usbd_core.c **** {
 838              		.loc 1 487 0
 839              		.cfi_startproc
 840              		@ args = 0, pretend = 0, frame = 0
 841              		@ frame_needed = 0, uses_anonymous_args = 0
 842              		@ link register save eliminated.
 843              	.LVL93:
 488:Middlewares/ST/STM32_USB_Device_Library/Core/Src/usbd_core.c ****   pdev->dev_old_state =  pdev->dev_state;
 844              		.loc 1 488 0
 845 0000 90F87432 		ldrb	r3, [r0, #628]	@ zero_extendqisi2
 846 0004 80F87532 		strb	r3, [r0, #629]
 489:Middlewares/ST/STM32_USB_Device_Library/Core/Src/usbd_core.c ****   pdev->dev_state  = USBD_STATE_SUSPENDED;
 847              		.loc 1 489 0
 848 0008 0423     		movs	r3, #4
 849 000a 80F87432 		strb	r3, [r0, #628]
 490:Middlewares/ST/STM32_USB_Device_Library/Core/Src/usbd_core.c ****   return USBD_OK;
 491:Middlewares/ST/STM32_USB_Device_Library/Core/Src/usbd_core.c **** }
 850              		.loc 1 491 0
 851 000e 0020     		movs	r0, #0
 852              	.LVL94:
 853 0010 7047     		bx	lr
 854              		.cfi_endproc
 855              	.LFE146:
ARM GAS  /tmp/cc9MbIlP.s 			page 25


 857              		.section	.text.USBD_LL_Resume,"ax",%progbits
 858              		.align	1
 859              		.global	USBD_LL_Resume
 860              		.syntax unified
 861              		.thumb
 862              		.thumb_func
 863              		.fpu fpv4-sp-d16
 865              	USBD_LL_Resume:
 866              	.LFB147:
 492:Middlewares/ST/STM32_USB_Device_Library/Core/Src/usbd_core.c **** 
 493:Middlewares/ST/STM32_USB_Device_Library/Core/Src/usbd_core.c **** /**
 494:Middlewares/ST/STM32_USB_Device_Library/Core/Src/usbd_core.c **** * @brief  USBD_Resume
 495:Middlewares/ST/STM32_USB_Device_Library/Core/Src/usbd_core.c **** *         Handle Resume event
 496:Middlewares/ST/STM32_USB_Device_Library/Core/Src/usbd_core.c **** * @param  pdev: device instance
 497:Middlewares/ST/STM32_USB_Device_Library/Core/Src/usbd_core.c **** * @retval status
 498:Middlewares/ST/STM32_USB_Device_Library/Core/Src/usbd_core.c **** */
 499:Middlewares/ST/STM32_USB_Device_Library/Core/Src/usbd_core.c **** 
 500:Middlewares/ST/STM32_USB_Device_Library/Core/Src/usbd_core.c **** USBD_StatusTypeDef USBD_LL_Resume(USBD_HandleTypeDef  *pdev)
 501:Middlewares/ST/STM32_USB_Device_Library/Core/Src/usbd_core.c **** {
 867              		.loc 1 501 0
 868              		.cfi_startproc
 869              		@ args = 0, pretend = 0, frame = 0
 870              		@ frame_needed = 0, uses_anonymous_args = 0
 871              		@ link register save eliminated.
 872              	.LVL95:
 502:Middlewares/ST/STM32_USB_Device_Library/Core/Src/usbd_core.c ****   pdev->dev_state = pdev->dev_old_state;
 873              		.loc 1 502 0
 874 0000 90F87532 		ldrb	r3, [r0, #629]	@ zero_extendqisi2
 875 0004 80F87432 		strb	r3, [r0, #628]
 503:Middlewares/ST/STM32_USB_Device_Library/Core/Src/usbd_core.c ****   return USBD_OK;
 504:Middlewares/ST/STM32_USB_Device_Library/Core/Src/usbd_core.c **** }
 876              		.loc 1 504 0
 877 0008 0020     		movs	r0, #0
 878              	.LVL96:
 879 000a 7047     		bx	lr
 880              		.cfi_endproc
 881              	.LFE147:
 883              		.section	.text.USBD_LL_SOF,"ax",%progbits
 884              		.align	1
 885              		.global	USBD_LL_SOF
 886              		.syntax unified
 887              		.thumb
 888              		.thumb_func
 889              		.fpu fpv4-sp-d16
 891              	USBD_LL_SOF:
 892              	.LFB148:
 505:Middlewares/ST/STM32_USB_Device_Library/Core/Src/usbd_core.c **** 
 506:Middlewares/ST/STM32_USB_Device_Library/Core/Src/usbd_core.c **** /**
 507:Middlewares/ST/STM32_USB_Device_Library/Core/Src/usbd_core.c **** * @brief  USBD_SOF
 508:Middlewares/ST/STM32_USB_Device_Library/Core/Src/usbd_core.c **** *         Handle SOF event
 509:Middlewares/ST/STM32_USB_Device_Library/Core/Src/usbd_core.c **** * @param  pdev: device instance
 510:Middlewares/ST/STM32_USB_Device_Library/Core/Src/usbd_core.c **** * @retval status
 511:Middlewares/ST/STM32_USB_Device_Library/Core/Src/usbd_core.c **** */
 512:Middlewares/ST/STM32_USB_Device_Library/Core/Src/usbd_core.c **** 
 513:Middlewares/ST/STM32_USB_Device_Library/Core/Src/usbd_core.c **** USBD_StatusTypeDef USBD_LL_SOF(USBD_HandleTypeDef  *pdev)
 514:Middlewares/ST/STM32_USB_Device_Library/Core/Src/usbd_core.c **** {
 893              		.loc 1 514 0
ARM GAS  /tmp/cc9MbIlP.s 			page 26


 894              		.cfi_startproc
 895              		@ args = 0, pretend = 0, frame = 0
 896              		@ frame_needed = 0, uses_anonymous_args = 0
 897              	.LVL97:
 898 0000 08B5     		push	{r3, lr}
 899              	.LCFI11:
 900              		.cfi_def_cfa_offset 8
 901              		.cfi_offset 3, -8
 902              		.cfi_offset 14, -4
 515:Middlewares/ST/STM32_USB_Device_Library/Core/Src/usbd_core.c ****   if(pdev->dev_state == USBD_STATE_CONFIGURED)
 903              		.loc 1 515 0
 904 0002 90F87432 		ldrb	r3, [r0, #628]	@ zero_extendqisi2
 905 0006 032B     		cmp	r3, #3
 906 0008 01D0     		beq	.L76
 907              	.LVL98:
 908              	.L74:
 516:Middlewares/ST/STM32_USB_Device_Library/Core/Src/usbd_core.c ****   {
 517:Middlewares/ST/STM32_USB_Device_Library/Core/Src/usbd_core.c ****     if(pdev->pClass->SOF != NULL)
 518:Middlewares/ST/STM32_USB_Device_Library/Core/Src/usbd_core.c ****     {
 519:Middlewares/ST/STM32_USB_Device_Library/Core/Src/usbd_core.c ****       pdev->pClass->SOF(pdev);
 520:Middlewares/ST/STM32_USB_Device_Library/Core/Src/usbd_core.c ****     }
 521:Middlewares/ST/STM32_USB_Device_Library/Core/Src/usbd_core.c ****   }
 522:Middlewares/ST/STM32_USB_Device_Library/Core/Src/usbd_core.c ****   return USBD_OK;
 523:Middlewares/ST/STM32_USB_Device_Library/Core/Src/usbd_core.c **** }
 909              		.loc 1 523 0
 910 000a 0020     		movs	r0, #0
 911 000c 08BD     		pop	{r3, pc}
 912              	.LVL99:
 913              	.L76:
 517:Middlewares/ST/STM32_USB_Device_Library/Core/Src/usbd_core.c ****     {
 914              		.loc 1 517 0
 915 000e D0F88C32 		ldr	r3, [r0, #652]
 916 0012 DB69     		ldr	r3, [r3, #28]
 917 0014 002B     		cmp	r3, #0
 918 0016 F8D0     		beq	.L74
 519:Middlewares/ST/STM32_USB_Device_Library/Core/Src/usbd_core.c ****     }
 919              		.loc 1 519 0
 920 0018 9847     		blx	r3
 921              	.LVL100:
 922 001a F6E7     		b	.L74
 923              		.cfi_endproc
 924              	.LFE148:
 926              		.section	.text.USBD_LL_IsoINIncomplete,"ax",%progbits
 927              		.align	1
 928              		.global	USBD_LL_IsoINIncomplete
 929              		.syntax unified
 930              		.thumb
 931              		.thumb_func
 932              		.fpu fpv4-sp-d16
 934              	USBD_LL_IsoINIncomplete:
 935              	.LFB149:
 524:Middlewares/ST/STM32_USB_Device_Library/Core/Src/usbd_core.c **** 
 525:Middlewares/ST/STM32_USB_Device_Library/Core/Src/usbd_core.c **** /**
 526:Middlewares/ST/STM32_USB_Device_Library/Core/Src/usbd_core.c **** * @brief  USBD_IsoINIncomplete
 527:Middlewares/ST/STM32_USB_Device_Library/Core/Src/usbd_core.c **** *         Handle iso in incomplete event
 528:Middlewares/ST/STM32_USB_Device_Library/Core/Src/usbd_core.c **** * @param  pdev: device instance
 529:Middlewares/ST/STM32_USB_Device_Library/Core/Src/usbd_core.c **** * @retval status
ARM GAS  /tmp/cc9MbIlP.s 			page 27


 530:Middlewares/ST/STM32_USB_Device_Library/Core/Src/usbd_core.c **** */
 531:Middlewares/ST/STM32_USB_Device_Library/Core/Src/usbd_core.c **** USBD_StatusTypeDef USBD_LL_IsoINIncomplete(USBD_HandleTypeDef  *pdev, uint8_t epnum)
 532:Middlewares/ST/STM32_USB_Device_Library/Core/Src/usbd_core.c **** {
 936              		.loc 1 532 0
 937              		.cfi_startproc
 938              		@ args = 0, pretend = 0, frame = 0
 939              		@ frame_needed = 0, uses_anonymous_args = 0
 940              		@ link register save eliminated.
 941              	.LVL101:
 533:Middlewares/ST/STM32_USB_Device_Library/Core/Src/usbd_core.c ****   /* Prevent unused arguments compilation warning */
 534:Middlewares/ST/STM32_USB_Device_Library/Core/Src/usbd_core.c ****   UNUSED(pdev);
 535:Middlewares/ST/STM32_USB_Device_Library/Core/Src/usbd_core.c ****   UNUSED(epnum);
 536:Middlewares/ST/STM32_USB_Device_Library/Core/Src/usbd_core.c **** 
 537:Middlewares/ST/STM32_USB_Device_Library/Core/Src/usbd_core.c ****   return USBD_OK;
 538:Middlewares/ST/STM32_USB_Device_Library/Core/Src/usbd_core.c **** }
 942              		.loc 1 538 0
 943 0000 0020     		movs	r0, #0
 944              	.LVL102:
 945 0002 7047     		bx	lr
 946              		.cfi_endproc
 947              	.LFE149:
 949              		.section	.text.USBD_LL_IsoOUTIncomplete,"ax",%progbits
 950              		.align	1
 951              		.global	USBD_LL_IsoOUTIncomplete
 952              		.syntax unified
 953              		.thumb
 954              		.thumb_func
 955              		.fpu fpv4-sp-d16
 957              	USBD_LL_IsoOUTIncomplete:
 958              	.LFB150:
 539:Middlewares/ST/STM32_USB_Device_Library/Core/Src/usbd_core.c **** 
 540:Middlewares/ST/STM32_USB_Device_Library/Core/Src/usbd_core.c **** /**
 541:Middlewares/ST/STM32_USB_Device_Library/Core/Src/usbd_core.c **** * @brief  USBD_IsoOUTIncomplete
 542:Middlewares/ST/STM32_USB_Device_Library/Core/Src/usbd_core.c **** *         Handle iso out incomplete event
 543:Middlewares/ST/STM32_USB_Device_Library/Core/Src/usbd_core.c **** * @param  pdev: device instance
 544:Middlewares/ST/STM32_USB_Device_Library/Core/Src/usbd_core.c **** * @retval status
 545:Middlewares/ST/STM32_USB_Device_Library/Core/Src/usbd_core.c **** */
 546:Middlewares/ST/STM32_USB_Device_Library/Core/Src/usbd_core.c **** USBD_StatusTypeDef USBD_LL_IsoOUTIncomplete(USBD_HandleTypeDef  *pdev, uint8_t epnum)
 547:Middlewares/ST/STM32_USB_Device_Library/Core/Src/usbd_core.c **** {
 959              		.loc 1 547 0
 960              		.cfi_startproc
 961              		@ args = 0, pretend = 0, frame = 0
 962              		@ frame_needed = 0, uses_anonymous_args = 0
 963              		@ link register save eliminated.
 964              	.LVL103:
 548:Middlewares/ST/STM32_USB_Device_Library/Core/Src/usbd_core.c ****   /* Prevent unused arguments compilation warning */
 549:Middlewares/ST/STM32_USB_Device_Library/Core/Src/usbd_core.c ****   UNUSED(pdev);
 550:Middlewares/ST/STM32_USB_Device_Library/Core/Src/usbd_core.c ****   UNUSED(epnum);
 551:Middlewares/ST/STM32_USB_Device_Library/Core/Src/usbd_core.c **** 
 552:Middlewares/ST/STM32_USB_Device_Library/Core/Src/usbd_core.c ****   return USBD_OK;
 553:Middlewares/ST/STM32_USB_Device_Library/Core/Src/usbd_core.c **** }
 965              		.loc 1 553 0
 966 0000 0020     		movs	r0, #0
 967              	.LVL104:
 968 0002 7047     		bx	lr
 969              		.cfi_endproc
 970              	.LFE150:
ARM GAS  /tmp/cc9MbIlP.s 			page 28


 972              		.section	.text.USBD_LL_DevConnected,"ax",%progbits
 973              		.align	1
 974              		.global	USBD_LL_DevConnected
 975              		.syntax unified
 976              		.thumb
 977              		.thumb_func
 978              		.fpu fpv4-sp-d16
 980              	USBD_LL_DevConnected:
 981              	.LFB151:
 554:Middlewares/ST/STM32_USB_Device_Library/Core/Src/usbd_core.c **** 
 555:Middlewares/ST/STM32_USB_Device_Library/Core/Src/usbd_core.c **** /**
 556:Middlewares/ST/STM32_USB_Device_Library/Core/Src/usbd_core.c **** * @brief  USBD_DevConnected
 557:Middlewares/ST/STM32_USB_Device_Library/Core/Src/usbd_core.c **** *         Handle device connection event
 558:Middlewares/ST/STM32_USB_Device_Library/Core/Src/usbd_core.c **** * @param  pdev: device instance
 559:Middlewares/ST/STM32_USB_Device_Library/Core/Src/usbd_core.c **** * @retval status
 560:Middlewares/ST/STM32_USB_Device_Library/Core/Src/usbd_core.c **** */
 561:Middlewares/ST/STM32_USB_Device_Library/Core/Src/usbd_core.c **** USBD_StatusTypeDef USBD_LL_DevConnected(USBD_HandleTypeDef  *pdev)
 562:Middlewares/ST/STM32_USB_Device_Library/Core/Src/usbd_core.c **** {
 982              		.loc 1 562 0
 983              		.cfi_startproc
 984              		@ args = 0, pretend = 0, frame = 0
 985              		@ frame_needed = 0, uses_anonymous_args = 0
 986              		@ link register save eliminated.
 987              	.LVL105:
 563:Middlewares/ST/STM32_USB_Device_Library/Core/Src/usbd_core.c ****   /* Prevent unused argument compilation warning */
 564:Middlewares/ST/STM32_USB_Device_Library/Core/Src/usbd_core.c ****   UNUSED(pdev);
 565:Middlewares/ST/STM32_USB_Device_Library/Core/Src/usbd_core.c **** 
 566:Middlewares/ST/STM32_USB_Device_Library/Core/Src/usbd_core.c ****   return USBD_OK;
 567:Middlewares/ST/STM32_USB_Device_Library/Core/Src/usbd_core.c **** }
 988              		.loc 1 567 0
 989 0000 0020     		movs	r0, #0
 990              	.LVL106:
 991 0002 7047     		bx	lr
 992              		.cfi_endproc
 993              	.LFE151:
 995              		.section	.text.USBD_LL_DevDisconnected,"ax",%progbits
 996              		.align	1
 997              		.global	USBD_LL_DevDisconnected
 998              		.syntax unified
 999              		.thumb
 1000              		.thumb_func
 1001              		.fpu fpv4-sp-d16
 1003              	USBD_LL_DevDisconnected:
 1004              	.LFB152:
 568:Middlewares/ST/STM32_USB_Device_Library/Core/Src/usbd_core.c **** 
 569:Middlewares/ST/STM32_USB_Device_Library/Core/Src/usbd_core.c **** /**
 570:Middlewares/ST/STM32_USB_Device_Library/Core/Src/usbd_core.c **** * @brief  USBD_DevDisconnected
 571:Middlewares/ST/STM32_USB_Device_Library/Core/Src/usbd_core.c **** *         Handle device disconnection event
 572:Middlewares/ST/STM32_USB_Device_Library/Core/Src/usbd_core.c **** * @param  pdev: device instance
 573:Middlewares/ST/STM32_USB_Device_Library/Core/Src/usbd_core.c **** * @retval status
 574:Middlewares/ST/STM32_USB_Device_Library/Core/Src/usbd_core.c **** */
 575:Middlewares/ST/STM32_USB_Device_Library/Core/Src/usbd_core.c **** USBD_StatusTypeDef USBD_LL_DevDisconnected(USBD_HandleTypeDef  *pdev)
 576:Middlewares/ST/STM32_USB_Device_Library/Core/Src/usbd_core.c **** {
 1005              		.loc 1 576 0
 1006              		.cfi_startproc
 1007              		@ args = 0, pretend = 0, frame = 0
 1008              		@ frame_needed = 0, uses_anonymous_args = 0
ARM GAS  /tmp/cc9MbIlP.s 			page 29


 1009              	.LVL107:
 1010 0000 08B5     		push	{r3, lr}
 1011              	.LCFI12:
 1012              		.cfi_def_cfa_offset 8
 1013              		.cfi_offset 3, -8
 1014              		.cfi_offset 14, -4
 577:Middlewares/ST/STM32_USB_Device_Library/Core/Src/usbd_core.c ****   /* Free Class Resources */
 578:Middlewares/ST/STM32_USB_Device_Library/Core/Src/usbd_core.c ****   pdev->dev_state = USBD_STATE_DEFAULT;
 1015              		.loc 1 578 0
 1016 0002 0122     		movs	r2, #1
 1017 0004 80F87422 		strb	r2, [r0, #628]
 579:Middlewares/ST/STM32_USB_Device_Library/Core/Src/usbd_core.c ****   pdev->pClass->DeInit(pdev, (uint8_t)pdev->dev_config);
 1018              		.loc 1 579 0
 1019 0008 D0F88C22 		ldr	r2, [r0, #652]
 1020 000c 5268     		ldr	r2, [r2, #4]
 1021 000e 0179     		ldrb	r1, [r0, #4]	@ zero_extendqisi2
 1022 0010 9047     		blx	r2
 1023              	.LVL108:
 580:Middlewares/ST/STM32_USB_Device_Library/Core/Src/usbd_core.c **** 
 581:Middlewares/ST/STM32_USB_Device_Library/Core/Src/usbd_core.c ****   return USBD_OK;
 582:Middlewares/ST/STM32_USB_Device_Library/Core/Src/usbd_core.c **** }
 1024              		.loc 1 582 0
 1025 0012 0020     		movs	r0, #0
 1026 0014 08BD     		pop	{r3, pc}
 1027              		.cfi_endproc
 1028              	.LFE152:
 1030              		.text
 1031              	.Letext0:
 1032              		.file 2 "/usr/arm-none-eabi/include/machine/_default_types.h"
 1033              		.file 3 "/usr/arm-none-eabi/include/sys/lock.h"
 1034              		.file 4 "/usr/arm-none-eabi/include/sys/_types.h"
 1035              		.file 5 "/usr/lib/gcc/arm-none-eabi/7.3.1/include/stddef.h"
 1036              		.file 6 "/usr/arm-none-eabi/include/sys/reent.h"
 1037              		.file 7 "/usr/arm-none-eabi/include/sys/_stdint.h"
 1038              		.file 8 "/usr/arm-none-eabi/include/stdlib.h"
 1039              		.file 9 "Drivers/CMSIS/Include/core_cm4.h"
 1040              		.file 10 "Drivers/CMSIS/Device/ST/STM32F4xx/Include/system_stm32f4xx.h"
 1041              		.file 11 "Drivers/STM32F4xx_HAL_Driver/Inc/stm32f4xx_hal.h"
 1042              		.file 12 "Middlewares/ST/STM32_USB_Device_Library/Core/Inc/usbd_def.h"
 1043              		.file 13 "Middlewares/ST/STM32_USB_Device_Library/Core/Inc/usbd_core.h"
 1044              		.file 14 "Middlewares/ST/STM32_USB_Device_Library/Core/Inc/usbd_ioreq.h"
 1045              		.file 15 "Middlewares/ST/STM32_USB_Device_Library/Core/Inc/usbd_ctlreq.h"
ARM GAS  /tmp/cc9MbIlP.s 			page 30

